ARM GAS  C:\Users\user\AppData\Local\Temp\cc6TIdBD.s 			page 1


   1              		.syntax unified
   2              		.cpu cortex-m3
   3              		.fpu softvfp
   4              		.eabi_attribute 20, 1
   5              		.eabi_attribute 21, 1
   6              		.eabi_attribute 23, 3
   7              		.eabi_attribute 24, 1
   8              		.eabi_attribute 25, 1
   9              		.eabi_attribute 26, 1
  10              		.eabi_attribute 30, 1
  11              		.eabi_attribute 34, 1
  12              		.eabi_attribute 18, 4
  13              		.thumb
  14              		.syntax unified
  15              		.file	"ctrl_pend.c"
  16              		.text
  17              	.Ltext0:
  18              		.cfi_sections	.debug_frame
  19              		.global	__aeabi_fcmpgt
  20              		.global	__aeabi_fcmplt
  21              		.section	.text.satf,"ax",%progbits
  22              		.align	2
  23              		.thumb
  24              		.thumb_func
  25              		.type	satf, %function
  26              	satf:
  27              	.LFB119:
  28              		.file 1 "ctrl_pend.c"
   1:ctrl_pend.c   **** /* ============================================================
   2:ctrl_pend.c   ****    ctrl_pend.c — Two-plant on-PSoC controller  v6.3
   3:ctrl_pend.c   ****    CMSIS-DSP: f32 + Q31 / Q15 / Q7 paths.
   4:ctrl_pend.c   **** 
   5:ctrl_pend.c   ****    Tipo numérico seleccionable (g_num_type) para el observer SS:
   6:ctrl_pend.c   ****      F32  → arm_dot_prod/scale/add_f32      (siempre preciso)
   7:ctrl_pend.c   ****      Q31  → arm_dot_prod/scale/add_q31      (entero, eficiente CM3)
   8:ctrl_pend.c   ****      Q15  → arm_dot_prod/scale/add_q15      (SIMD, muy eficiente CM3)
   9:ctrl_pend.c   ****      Q7   → arm_dot_prod/scale/add_q7       (baja precisión)
  10:ctrl_pend.c   ****      F64/F16 → fallback a F32 en PSoC
  11:ctrl_pend.c   **** 
  12:ctrl_pend.c   ****    Normalización para paths Q:
  13:ctrl_pend.c   ****      q_scale (c[16]): todas las señales físicas (y, xhat, u, ref, vint)
  14:ctrl_pend.c   ****      se dividen por q_scale antes de convertir a Q.
  15:ctrl_pend.c   ****      Los coeficientes (A,B,C,D,K,L,Kx) se almacenan PRE-CONVERTIDOS a Q
  16:ctrl_pend.c   ****      SIN normalizar por q_scale (sus valores ya deben ser |coef| < 1).
  17:ctrl_pend.c   ****      NOTA: si |K[i]|, |L[i]| > 1, la conversión a Q satura — normal para
  18:ctrl_pend.c   ****      sistemas físicos con ganancias grandes. El usuario ajusta q_scale y
  19:ctrl_pend.c   ****      diseña el controlador normalizado para usar paths Q con precisión.
  20:ctrl_pend.c   **** 
  21:ctrl_pend.c   ****    Integrador siempre en float (acumula suma de errores sin Ts —
  22:ctrl_pend.c   ****    convención Elia). La ley de control final se hace en float tras
  23:ctrl_pend.c   ****    recuperar xhat del path Q.
  24:ctrl_pend.c   **** 
  25:ctrl_pend.c   ****    TF mode: usa siempre F32 (DF2T scalar, Q no aporta para 6 coef).
  26:ctrl_pend.c   **** 
  27:ctrl_pend.c   ****    Basado en Elia control_app.c (helicóptero FinalV1.8):
  28:ctrl_pend.c   ****      - TF DF2T orden 5 idéntico
  29:ctrl_pend.c   ****      - SS predictor/actual idéntico (innov, z=Ax+Bu, xhat=z+Linv)
ARM GAS  C:\Users\user\AppData\Local\Temp\cc6TIdBD.s 			page 2


  30:ctrl_pend.c   ****      - u_out tracking (saturado) idéntico a g_u_out de Elia
  31:ctrl_pend.c   ****      - vint += e (sin Ts) idéntico
  32:ctrl_pend.c   **** 
  33:ctrl_pend.c   ****    Build: ARM_MATH_CM3 en Preprocessor Defines.
  34:ctrl_pend.c   ****    ============================================================ */
  35:ctrl_pend.c   **** 
  36:ctrl_pend.c   **** #define ARM_MATH_CM3    /* PSoC 5LP = Cortex-M3, sin FPU */
  37:ctrl_pend.c   **** #include "arm_math.h"
  38:ctrl_pend.c   **** 
  39:ctrl_pend.c   **** #include "ctrl_pend.h"
  40:ctrl_pend.c   **** #include "uartp_pend.h"
  41:ctrl_pend.c   **** #include "pendulo.h"
  42:ctrl_pend.c   **** #include "motor.h"
  43:ctrl_pend.c   **** #include <string.h>
  44:ctrl_pend.c   **** 
  45:ctrl_pend.c   **** /* Helper: límite físico efectivo para el lazo inner según modo de salida.
  46:ctrl_pend.c   ****    Cuando la salida del controlador es voltaje (bit1 de g_ref_in_volts), el
  47:ctrl_pend.c   ****    tope es ±MOTOR_V_MAX; en modo PWM directo, ±MOTOR_MAX. Tightens (nunca
  48:ctrl_pend.c   ****    amplía) el sat_min/max definido por el usuario en MATLAB. */
  49:ctrl_pend.c   **** static inline void inner_phys_limits(float *lo, float *hi)
  50:ctrl_pend.c   **** {
  51:ctrl_pend.c   ****     float pmin, pmax;
  52:ctrl_pend.c   ****     if (g_ref_in_volts & 0x02u) {
  53:ctrl_pend.c   ****         pmax =  MOTOR_V_MAX;  pmin = -MOTOR_V_MAX;
  54:ctrl_pend.c   ****     } else {
  55:ctrl_pend.c   ****         pmax =  (float)MOTOR_MAX;  pmin = (float)MOTOR_MIN;
  56:ctrl_pend.c   ****     }
  57:ctrl_pend.c   ****     if (*hi > pmax) *hi = pmax;
  58:ctrl_pend.c   ****     if (*lo < pmin) *lo = pmin;
  59:ctrl_pend.c   **** }
  60:ctrl_pend.c   **** 
  61:ctrl_pend.c   **** /* ============================================================
  62:ctrl_pend.c   ****    Constantes físicas
  63:ctrl_pend.c   ****    ============================================================ */
  64:ctrl_pend.c   **** #define PI_F            3.14159265f
  65:ctrl_pend.c   **** #define MOTOR_CPR_F     1040.0f     /* 4 × 260 PPR (QuadDec x4) */
  66:ctrl_pend.c   **** #define PENDULO_CPR_F   10000.0f
  67:ctrl_pend.c   **** #define PWM_MAX_F       1264.0f
  68:ctrl_pend.c   **** #define PWM_MIN_F      (-1264.0f)
  69:ctrl_pend.c   **** 
  70:ctrl_pend.c   **** /* Filtro Åström de primer orden: y_f = α·y_f_prev + (1−α)·y_raw.
  71:ctrl_pend.c   ****    DC gain = 1; polo discreto α = e^(-2π·fn·Ts) ∈ (0,1).
  72:ctrl_pend.c   ****    - MOT:  fn = 50 Hz → α = e^(-π/2)  ≈ 0.2079  (sobre y1, velocidad motor)
  73:ctrl_pend.c   ****    - PEND: fn = 10 Hz → α = e^(-π/10) ≈ 0.7304  (sobre y2, ángulo péndulo) */
  74:ctrl_pend.c   **** #define ALPHA_ASTROM_MOT     0.207879576350762f
  75:ctrl_pend.c   **** #define ALPHA_ASTROM_PEND    0.730402691048646f
  76:ctrl_pend.c   **** 
  77:ctrl_pend.c   **** /* ============================================================
  78:ctrl_pend.c   ****    Struct de estado por planta
  79:ctrl_pend.c   ****    ============================================================ */
  80:ctrl_pend.c   **** typedef struct {
  81:ctrl_pend.c   ****     uint8  mode;            /* CTRL_MODE_* */
  82:ctrl_pend.c   **** 
  83:ctrl_pend.c   ****     /* TF – Direct Form II Transposed, hasta orden 5 */
  84:ctrl_pend.c   ****     float  tf_b[6];
  85:ctrl_pend.c   ****     float  tf_a[6];         /* a[0] siempre 1 tras normalización */
  86:ctrl_pend.c   ****     float  tf_w[5];         /* estados de retardo */
ARM GAS  C:\Users\user\AppData\Local\Temp\cc6TIdBD.s 			page 3


  87:ctrl_pend.c   **** 
  88:ctrl_pend.c   ****     /* SS – 2 estados, float */
  89:ctrl_pend.c   ****     float  A[4];            /* 2×2 row-major: [A11 A12 A21 A22] */
  90:ctrl_pend.c   ****     float  B[2];            /* 2×1 */
  91:ctrl_pend.c   ****     float  C[2];            /* 1×2 */
  92:ctrl_pend.c   ****     float  D;
  93:ctrl_pend.c   ****     float  L[2];            /* ganancia de observador */
  94:ctrl_pend.c   ****     float  K[2];            /* ganancia de realimentación */
  95:ctrl_pend.c   ****     float  Kx;              /* Nbar (sin integrador) o Ki (con integrador) */
  96:ctrl_pend.c   **** 
  97:ctrl_pend.c   ****     /* SS – estados del observador (float, siempre) */
  98:ctrl_pend.c   ****     float  xhat[2];         /* estimado posterior */
  99:ctrl_pend.c   ****     float  zhat[2];         /* estimado prior (observer actual) */
 100:ctrl_pend.c   ****     float  vint;            /* acumulador integral (float, sin Ts) */
 101:ctrl_pend.c   **** 
 102:ctrl_pend.c   ****     float  ref;             /* setpoint actual */
 103:ctrl_pend.c   ****     float  Nbar;            /* feedforward: u_total = C(z)*(ref-y) + Nbar*ref  (TF mode) */
 104:ctrl_pend.c   ****     float  u_out;           /* salida anterior saturada (para observer) */
 105:ctrl_pend.c   **** 
 106:ctrl_pend.c   ****     /* Decimación (solo outer, planta 1) */
 107:ctrl_pend.c   ****     uint16 N;
 108:ctrl_pend.c   ****     uint16 cnt;
 109:ctrl_pend.c   **** 
 110:ctrl_pend.c   ****     /* Normalización para Q-format (c[16], default 1.0f).
 111:ctrl_pend.c   ****        Señales: x_q = float_to_q(x / q_scale).
 112:ctrl_pend.c   ****        Coeficientes: almacenados sin dividir por q_scale. */
 113:ctrl_pend.c   ****     float  q_scale;
 114:ctrl_pend.c   **** 
 115:ctrl_pend.c   ****     /* Pre-convertidos Q31 (SS mode, arm_float_to_q31) */
 116:ctrl_pend.c   ****     q31_t  qA31[4];
 117:ctrl_pend.c   ****     q31_t  qB31[2];
 118:ctrl_pend.c   ****     q31_t  qC31[2];
 119:ctrl_pend.c   ****     q31_t  qK31[2];
 120:ctrl_pend.c   ****     q31_t  qL31[2];
 121:ctrl_pend.c   ****     q31_t  qD31;
 122:ctrl_pend.c   ****     q31_t  qKx31;
 123:ctrl_pend.c   **** 
 124:ctrl_pend.c   ****     /* Pre-convertidos Q15 */
 125:ctrl_pend.c   ****     q15_t  qA15[4];
 126:ctrl_pend.c   ****     q15_t  qB15[2];
 127:ctrl_pend.c   ****     q15_t  qC15[2];
 128:ctrl_pend.c   ****     q15_t  qK15[2];
 129:ctrl_pend.c   ****     q15_t  qL15[2];
 130:ctrl_pend.c   ****     q15_t  qD15;
 131:ctrl_pend.c   ****     q15_t  qKx15;
 132:ctrl_pend.c   **** 
 133:ctrl_pend.c   ****     /* Pre-convertidos Q7 */
 134:ctrl_pend.c   ****     q7_t   qA7[4];
 135:ctrl_pend.c   ****     q7_t   qB7[2];
 136:ctrl_pend.c   ****     q7_t   qC7[2];
 137:ctrl_pend.c   ****     q7_t   qK7[2];
 138:ctrl_pend.c   ****     q7_t   qL7[2];
 139:ctrl_pend.c   ****     q7_t   qD7;
 140:ctrl_pend.c   ****     q7_t   qKx7;
 141:ctrl_pend.c   **** 
 142:ctrl_pend.c   **** } CtrlLoop;
 143:ctrl_pend.c   **** 
ARM GAS  C:\Users\user\AppData\Local\Temp\cc6TIdBD.s 			page 4


 144:ctrl_pend.c   **** /* ============================================================
 145:ctrl_pend.c   ****    Estado del módulo
 146:ctrl_pend.c   ****    ============================================================ */
 147:ctrl_pend.c   **** static CtrlLoop g_lp[PLANT_COUNT];
 148:ctrl_pend.c   **** static float    g_Ts      = 0.005f;
 149:ctrl_pend.c   **** static uint8    g_running = 0u;
 150:ctrl_pend.c   **** 
 151:ctrl_pend.c   **** /* Tipo numérico activo */
 152:ctrl_pend.c   **** static uint8    g_num_type = CTRL_NUM_F32;
 153:ctrl_pend.c   **** 
 154:ctrl_pend.c   **** /* Estados de los filtros Åström */
 155:ctrl_pend.c   **** static float g_y1_filt = 0.0f;   /* y1 = velocidad angular del motor (rad/s) */
 156:ctrl_pend.c   **** static float g_y2_filt = 0.0f;   /* y2 = ángulo del péndulo (rad)             */
 157:ctrl_pend.c   **** 
 158:ctrl_pend.c   **** /* Telemetría */
 159:ctrl_pend.c   **** volatile float ctrl_telem_u1    = 0.0f;
 160:ctrl_pend.c   **** volatile float ctrl_telem_y1    = 0.0f;
 161:ctrl_pend.c   **** volatile float ctrl_telem_u2    = 0.0f;
 162:ctrl_pend.c   **** volatile float ctrl_telem_y2    = 0.0f;
 163:ctrl_pend.c   **** volatile float ctrl_telem_x1i   = 0.0f;
 164:ctrl_pend.c   **** volatile float ctrl_telem_x2i   = 0.0f;
 165:ctrl_pend.c   **** volatile float ctrl_telem_x1o   = 0.0f;
 166:ctrl_pend.c   **** volatile float ctrl_telem_x2o   = 0.0f;
 167:ctrl_pend.c   **** volatile uint8 ctrl_telem_ready = 0u;
 168:ctrl_pend.c   **** 
 169:ctrl_pend.c   **** /* Timer */
 170:ctrl_pend.c   **** volatile uint8  ctrl_period_pending = 0u;
 171:ctrl_pend.c   **** volatile uint32 ctrl_period_ticks   = (TIMER_CLOCK_HZ / 200u) - 1u;  /* 200 Hz por defecto */
 172:ctrl_pend.c   **** 
 173:ctrl_pend.c   **** /* Saturación configurable */
 174:ctrl_pend.c   **** static float    g_sat_min = PWM_MIN_F;
 175:ctrl_pend.c   **** static float    g_sat_max = PWM_MAX_F;
 176:ctrl_pend.c   **** 
 177:ctrl_pend.c   **** /* ============================================================
 178:ctrl_pend.c   ****    Helpers escalares genéricos
 179:ctrl_pend.c   ****    ============================================================ */
 180:ctrl_pend.c   **** static float satf(float v, float lo, float hi)
 181:ctrl_pend.c   **** {
  29              		.loc 1 181 0
  30              		.cfi_startproc
  31              		@ args = 0, pretend = 0, frame = 0
  32              		@ frame_needed = 0, uses_anonymous_args = 0
  33              	.LVL0:
  34 0000 70B5     		push	{r4, r5, r6, lr}
  35              		.cfi_def_cfa_offset 16
  36              		.cfi_offset 4, -16
  37              		.cfi_offset 5, -12
  38              		.cfi_offset 6, -8
  39              		.cfi_offset 14, -4
  40 0002 0546     		mov	r5, r0
  41 0004 0E46     		mov	r6, r1
  42 0006 1446     		mov	r4, r2
 182:ctrl_pend.c   ****     if (v > hi) return hi;
  43              		.loc 1 182 0
  44 0008 1146     		mov	r1, r2
  45              	.LVL1:
  46 000a FFF7FEFF 		bl	__aeabi_fcmpgt
ARM GAS  C:\Users\user\AppData\Local\Temp\cc6TIdBD.s 			page 5


  47              	.LVL2:
  48 000e 30B9     		cbnz	r0, .L4
 183:ctrl_pend.c   ****     if (v < lo) return lo;
  49              		.loc 1 183 0
  50 0010 3146     		mov	r1, r6
  51 0012 2846     		mov	r0, r5
  52 0014 FFF7FEFF 		bl	__aeabi_fcmplt
  53              	.LVL3:
  54 0018 18B1     		cbz	r0, .L7
  55 001a 3046     		mov	r0, r6
  56 001c 70BD     		pop	{r4, r5, r6, pc}
  57              	.LVL4:
  58              	.L4:
 182:ctrl_pend.c   ****     if (v > hi) return hi;
  59              		.loc 1 182 0
  60 001e 2046     		mov	r0, r4
  61 0020 70BD     		pop	{r4, r5, r6, pc}
  62              	.LVL5:
  63              	.L7:
 184:ctrl_pend.c   ****     return v;
  64              		.loc 1 184 0
  65 0022 2846     		mov	r0, r5
 185:ctrl_pend.c   **** }
  66              		.loc 1 185 0
  67 0024 70BD     		pop	{r4, r5, r6, pc}
  68              		.cfi_endproc
  69              	.LFE119:
  70              		.size	satf, .-satf
  71 0026 00BF     		.section	.text.mode_ss,"ax",%progbits
  72              		.align	2
  73              		.thumb
  74              		.thumb_func
  75              		.type	mode_ss, %function
  76              	mode_ss:
  77              	.LFB120:
 186:ctrl_pend.c   **** 
 187:ctrl_pend.c   **** static uint8 mode_ss(uint8 m)
 188:ctrl_pend.c   **** {
  78              		.loc 1 188 0
  79              		.cfi_startproc
  80              		@ args = 0, pretend = 0, frame = 0
  81              		@ frame_needed = 0, uses_anonymous_args = 0
  82              		@ link register save eliminated.
  83              	.LVL6:
 189:ctrl_pend.c   ****     return (m == CTRL_MODE_SS_PRED_NOI || m == CTRL_MODE_SS_ACT_NOI ||
 190:ctrl_pend.c   ****             m == CTRL_MODE_SS_PRED_I   || m == CTRL_MODE_SS_ACT_I);
  84              		.loc 1 190 0
  85 0000 0138     		subs	r0, r0, #1
  86              	.LVL7:
  87 0002 C0B2     		uxtb	r0, r0
 191:ctrl_pend.c   **** }
  88              		.loc 1 191 0
  89 0004 0328     		cmp	r0, #3
  90 0006 8CBF     		ite	hi
  91 0008 0020     		movhi	r0, #0
  92 000a 0120     		movls	r0, #1
  93 000c 7047     		bx	lr
ARM GAS  C:\Users\user\AppData\Local\Temp\cc6TIdBD.s 			page 6


  94              		.cfi_endproc
  95              	.LFE120:
  96              		.size	mode_ss, .-mode_ss
  97 000e 00BF     		.section	.text.mode_has_i,"ax",%progbits
  98              		.align	2
  99              		.thumb
 100              		.thumb_func
 101              		.type	mode_has_i, %function
 102              	mode_has_i:
 103              	.LFB121:
 192:ctrl_pend.c   **** 
 193:ctrl_pend.c   **** static uint8 mode_has_i(uint8 m)
 194:ctrl_pend.c   **** {
 104              		.loc 1 194 0
 105              		.cfi_startproc
 106              		@ args = 0, pretend = 0, frame = 0
 107              		@ frame_needed = 0, uses_anonymous_args = 0
 108              		@ link register save eliminated.
 109              	.LVL8:
 195:ctrl_pend.c   ****     return (m == CTRL_MODE_SS_PRED_I) || (m == CTRL_MODE_SS_ACT_I);
 110              		.loc 1 195 0
 111 0000 0338     		subs	r0, r0, #3
 112              	.LVL9:
 113 0002 C0B2     		uxtb	r0, r0
 196:ctrl_pend.c   **** }
 114              		.loc 1 196 0
 115 0004 0128     		cmp	r0, #1
 116 0006 8CBF     		ite	hi
 117 0008 0020     		movhi	r0, #0
 118 000a 0120     		movls	r0, #1
 119 000c 7047     		bx	lr
 120              		.cfi_endproc
 121              	.LFE121:
 122              		.size	mode_has_i, .-mode_has_i
 123              		.global	__aeabi_fmul
 124              		.global	__aeabi_fadd
 125              		.global	__aeabi_fsub
 126 000e 00BF     		.section	.text.tf_step,"ax",%progbits
 127              		.align	2
 128              		.thumb
 129              		.thumb_func
 130              		.type	tf_step, %function
 131              	tf_step:
 132              	.LFB131:
 197:ctrl_pend.c   **** 
 198:ctrl_pend.c   **** 
 199:ctrl_pend.c   **** /* ============================================================
 200:ctrl_pend.c   ****    Q-format inline conversions
 201:ctrl_pend.c   ****    Convención: todos los valores representados como fracción de
 202:ctrl_pend.c   ****    q_scale, es decir: q_val = physical_val / q_scale ∈ [-1, 1).
 203:ctrl_pend.c   ****    ============================================================ */
 204:ctrl_pend.c   **** 
 205:ctrl_pend.c   **** /* Float normalizado [-1,1) → Q31 */
 206:ctrl_pend.c   **** static inline q31_t flt_to_q31n(float v) {
 207:ctrl_pend.c   ****     if (v >= 1.0f)  return  (q31_t)0x7FFFFFFF;
 208:ctrl_pend.c   ****     if (v < -1.0f)  return  (q31_t)0x80000000;
 209:ctrl_pend.c   ****     return (q31_t)(v * 2147483648.0f);
ARM GAS  C:\Users\user\AppData\Local\Temp\cc6TIdBD.s 			page 7


 210:ctrl_pend.c   **** }
 211:ctrl_pend.c   **** /* Q31 → float normalizado [-1,1) */
 212:ctrl_pend.c   **** static inline float q31_to_flt(q31_t v) {
 213:ctrl_pend.c   ****     return (float)v * (1.0f / 2147483648.0f);
 214:ctrl_pend.c   **** }
 215:ctrl_pend.c   **** 
 216:ctrl_pend.c   **** /* Float normalizado [-1,1) → Q15 */
 217:ctrl_pend.c   **** static inline q15_t flt_to_q15n(float v) {
 218:ctrl_pend.c   ****     if (v >= 1.0f)  return  (q15_t)0x7FFF;
 219:ctrl_pend.c   ****     if (v < -1.0f)  return  (q15_t)0x8000;
 220:ctrl_pend.c   ****     return (q15_t)(v * 32768.0f);
 221:ctrl_pend.c   **** }
 222:ctrl_pend.c   **** /* Q15 → float normalizado */
 223:ctrl_pend.c   **** static inline float q15_to_flt(q15_t v) {
 224:ctrl_pend.c   ****     return (float)v * (1.0f / 32768.0f);
 225:ctrl_pend.c   **** }
 226:ctrl_pend.c   **** 
 227:ctrl_pend.c   **** /* Float normalizado [-1,1) → Q7 */
 228:ctrl_pend.c   **** static inline q7_t flt_to_q7n(float v) {
 229:ctrl_pend.c   ****     if (v >= 1.0f)  return  (q7_t)0x7F;
 230:ctrl_pend.c   ****     if (v < -1.0f)  return  (q7_t)0x80;
 231:ctrl_pend.c   ****     return (q7_t)(v * 128.0f);
 232:ctrl_pend.c   **** }
 233:ctrl_pend.c   **** /* Q7 → float normalizado */
 234:ctrl_pend.c   **** static inline float q7_to_flt(q7_t v) {
 235:ctrl_pend.c   ****     return (float)v * (1.0f / 128.0f);
 236:ctrl_pend.c   **** }
 237:ctrl_pend.c   **** 
 238:ctrl_pend.c   **** /* Saturating add helpers para escalares Q */
 239:ctrl_pend.c   **** static inline q31_t qsat31(q63_t v) {
 240:ctrl_pend.c   ****     if (v > (q63_t)0x7FFFFFFF)  return (q31_t)0x7FFFFFFF;
 241:ctrl_pend.c   ****     if (v < (q63_t)0xFFFFFFFF80000000LL) return (q31_t)0x80000000;
 242:ctrl_pend.c   ****     return (q31_t)v;
 243:ctrl_pend.c   **** }
 244:ctrl_pend.c   **** static inline q15_t qsat15(q31_t v) {
 245:ctrl_pend.c   ****     if (v >  0x7FFF) return (q15_t)0x7FFF;
 246:ctrl_pend.c   ****     if (v < (q31_t)0xFFFF8000) return (q15_t)0x8000;
 247:ctrl_pend.c   ****     return (q15_t)v;
 248:ctrl_pend.c   **** }
 249:ctrl_pend.c   **** static inline q7_t qsat7(q15_t v) {
 250:ctrl_pend.c   ****     if (v >  0x7F) return (q7_t)0x7F;
 251:ctrl_pend.c   ****     if (v < (q15_t)0xFF80) return (q7_t)0x80;
 252:ctrl_pend.c   ****     return (q7_t)v;
 253:ctrl_pend.c   **** }
 254:ctrl_pend.c   **** 
 255:ctrl_pend.c   **** /* ============================================================
 256:ctrl_pend.c   ****    TF – Direct Form II Transposed step
 257:ctrl_pend.c   ****    Igual al patrón de Elia. CMSIS no aporta para 6 coeficientes
 258:ctrl_pend.c   ****    escalares; DF2T es ya la implementación óptima.
 259:ctrl_pend.c   ****    ============================================================ */
 260:ctrl_pend.c   **** static float tf_step(CtrlLoop *lp, float x)
 261:ctrl_pend.c   **** {
 133              		.loc 1 261 0
 134              		.cfi_startproc
 135              		@ args = 0, pretend = 0, frame = 0
 136              		@ frame_needed = 0, uses_anonymous_args = 0
 137              	.LVL10:
ARM GAS  C:\Users\user\AppData\Local\Temp\cc6TIdBD.s 			page 8


 138 0000 F8B5     		push	{r3, r4, r5, r6, r7, lr}
 139              		.cfi_def_cfa_offset 24
 140              		.cfi_offset 3, -24
 141              		.cfi_offset 4, -20
 142              		.cfi_offset 5, -16
 143              		.cfi_offset 6, -12
 144              		.cfi_offset 7, -8
 145              		.cfi_offset 14, -4
 146 0002 0446     		mov	r4, r0
 147 0004 0E46     		mov	r6, r1
 262:ctrl_pend.c   ****     float y = lp->tf_b[0]*x + lp->tf_w[0];
 148              		.loc 1 262 0
 149 0006 4068     		ldr	r0, [r0, #4]	@ float
 150              	.LVL11:
 151 0008 FFF7FEFF 		bl	__aeabi_fmul
 152              	.LVL12:
 153 000c 616B     		ldr	r1, [r4, #52]	@ float
 154 000e FFF7FEFF 		bl	__aeabi_fadd
 155              	.LVL13:
 156 0012 0546     		mov	r5, r0
 157              	.LVL14:
 263:ctrl_pend.c   ****     lp->tf_w[0] = lp->tf_w[1] + lp->tf_b[1]*x - lp->tf_a[1]*y;
 158              		.loc 1 263 0
 159 0014 A76B     		ldr	r7, [r4, #56]	@ float
 160 0016 A168     		ldr	r1, [r4, #8]	@ float
 161 0018 3046     		mov	r0, r6
 162              	.LVL15:
 163 001a FFF7FEFF 		bl	__aeabi_fmul
 164              	.LVL16:
 165 001e 0146     		mov	r1, r0
 166 0020 3846     		mov	r0, r7
 167 0022 FFF7FEFF 		bl	__aeabi_fadd
 168              	.LVL17:
 169 0026 0746     		mov	r7, r0
 170 0028 216A     		ldr	r1, [r4, #32]	@ float
 171 002a 2846     		mov	r0, r5
 172 002c FFF7FEFF 		bl	__aeabi_fmul
 173              	.LVL18:
 174 0030 0146     		mov	r1, r0
 175 0032 3846     		mov	r0, r7
 176 0034 FFF7FEFF 		bl	__aeabi_fsub
 177              	.LVL19:
 178 0038 6063     		str	r0, [r4, #52]	@ float
 264:ctrl_pend.c   ****     lp->tf_w[1] = lp->tf_w[2] + lp->tf_b[2]*x - lp->tf_a[2]*y;
 179              		.loc 1 264 0
 180 003a E76B     		ldr	r7, [r4, #60]	@ float
 181 003c E168     		ldr	r1, [r4, #12]	@ float
 182 003e 3046     		mov	r0, r6
 183 0040 FFF7FEFF 		bl	__aeabi_fmul
 184              	.LVL20:
 185 0044 0146     		mov	r1, r0
 186 0046 3846     		mov	r0, r7
 187 0048 FFF7FEFF 		bl	__aeabi_fadd
 188              	.LVL21:
 189 004c 0746     		mov	r7, r0
 190 004e 616A     		ldr	r1, [r4, #36]	@ float
 191 0050 2846     		mov	r0, r5
ARM GAS  C:\Users\user\AppData\Local\Temp\cc6TIdBD.s 			page 9


 192 0052 FFF7FEFF 		bl	__aeabi_fmul
 193              	.LVL22:
 194 0056 0146     		mov	r1, r0
 195 0058 3846     		mov	r0, r7
 196 005a FFF7FEFF 		bl	__aeabi_fsub
 197              	.LVL23:
 198 005e A063     		str	r0, [r4, #56]	@ float
 265:ctrl_pend.c   ****     lp->tf_w[2] = lp->tf_w[3] + lp->tf_b[3]*x - lp->tf_a[3]*y;
 199              		.loc 1 265 0
 200 0060 276C     		ldr	r7, [r4, #64]	@ float
 201 0062 2169     		ldr	r1, [r4, #16]	@ float
 202 0064 3046     		mov	r0, r6
 203 0066 FFF7FEFF 		bl	__aeabi_fmul
 204              	.LVL24:
 205 006a 0146     		mov	r1, r0
 206 006c 3846     		mov	r0, r7
 207 006e FFF7FEFF 		bl	__aeabi_fadd
 208              	.LVL25:
 209 0072 0746     		mov	r7, r0
 210 0074 A16A     		ldr	r1, [r4, #40]	@ float
 211 0076 2846     		mov	r0, r5
 212 0078 FFF7FEFF 		bl	__aeabi_fmul
 213              	.LVL26:
 214 007c 0146     		mov	r1, r0
 215 007e 3846     		mov	r0, r7
 216 0080 FFF7FEFF 		bl	__aeabi_fsub
 217              	.LVL27:
 218 0084 E063     		str	r0, [r4, #60]	@ float
 266:ctrl_pend.c   ****     lp->tf_w[3] = lp->tf_w[4] + lp->tf_b[4]*x - lp->tf_a[4]*y;
 219              		.loc 1 266 0
 220 0086 676C     		ldr	r7, [r4, #68]	@ float
 221 0088 6169     		ldr	r1, [r4, #20]	@ float
 222 008a 3046     		mov	r0, r6
 223 008c FFF7FEFF 		bl	__aeabi_fmul
 224              	.LVL28:
 225 0090 0146     		mov	r1, r0
 226 0092 3846     		mov	r0, r7
 227 0094 FFF7FEFF 		bl	__aeabi_fadd
 228              	.LVL29:
 229 0098 0746     		mov	r7, r0
 230 009a E16A     		ldr	r1, [r4, #44]	@ float
 231 009c 2846     		mov	r0, r5
 232 009e FFF7FEFF 		bl	__aeabi_fmul
 233              	.LVL30:
 234 00a2 0146     		mov	r1, r0
 235 00a4 3846     		mov	r0, r7
 236 00a6 FFF7FEFF 		bl	__aeabi_fsub
 237              	.LVL31:
 238 00aa 2064     		str	r0, [r4, #64]	@ float
 267:ctrl_pend.c   ****     lp->tf_w[4] =                lp->tf_b[5]*x - lp->tf_a[5]*y;
 239              		.loc 1 267 0
 240 00ac A169     		ldr	r1, [r4, #24]	@ float
 241 00ae 3046     		mov	r0, r6
 242 00b0 FFF7FEFF 		bl	__aeabi_fmul
 243              	.LVL32:
 244 00b4 0646     		mov	r6, r0
 245              	.LVL33:
ARM GAS  C:\Users\user\AppData\Local\Temp\cc6TIdBD.s 			page 10


 246 00b6 216B     		ldr	r1, [r4, #48]	@ float
 247 00b8 2846     		mov	r0, r5
 248 00ba FFF7FEFF 		bl	__aeabi_fmul
 249              	.LVL34:
 250 00be 0146     		mov	r1, r0
 251 00c0 3046     		mov	r0, r6
 252 00c2 FFF7FEFF 		bl	__aeabi_fsub
 253              	.LVL35:
 254 00c6 6064     		str	r0, [r4, #68]	@ float
 268:ctrl_pend.c   ****     return y;
 269:ctrl_pend.c   **** }
 255              		.loc 1 269 0
 256 00c8 2846     		mov	r0, r5
 257 00ca F8BD     		pop	{r3, r4, r5, r6, r7, pc}
 258              		.cfi_endproc
 259              	.LFE131:
 260              		.size	tf_step, .-tf_step
 261              		.global	__aeabi_fdiv
 262              		.global	__aeabi_fcmpge
 263              		.global	__aeabi_f2iz
 264              		.global	__aeabi_i2f
 265              		.section	.text.ss_yhat_q31,"ax",%progbits
 266              		.align	2
 267              		.thumb
 268              		.thumb_func
 269              		.type	ss_yhat_q31, %function
 270              	ss_yhat_q31:
 271              	.LFB138:
 270:ctrl_pend.c   **** 
 271:ctrl_pend.c   **** /* ============================================================
 272:ctrl_pend.c   ****    SS helpers — F32 (patrón idéntico a Elia control_app.c)
 273:ctrl_pend.c   ****    arm_dot_prod_f32: dot product
 274:ctrl_pend.c   ****    arm_scale_f32:    v * escalar → destino
 275:ctrl_pend.c   ****    arm_add_f32:      suma elemento a elemento
 276:ctrl_pend.c   ****    ============================================================ */
 277:ctrl_pend.c   **** 
 278:ctrl_pend.c   **** /* ŷ = C·x + D·u */
 279:ctrl_pend.c   **** static float ss_yhat_f32(CtrlLoop *lp, const float x[2], float u)
 280:ctrl_pend.c   **** {
 281:ctrl_pend.c   ****     float out = 0.0f;
 282:ctrl_pend.c   ****     arm_dot_prod_f32((float32_t*)lp->C, (float32_t*)x, 2u, (float32_t*)&out);
 283:ctrl_pend.c   ****     return out + lp->D * u;
 284:ctrl_pend.c   **** }
 285:ctrl_pend.c   **** 
 286:ctrl_pend.c   **** /* z = A·x + B·u  (por fila, igual que Elia dot2_cmsis) */
 287:ctrl_pend.c   **** static void ss_predict_f32(CtrlLoop *lp, const float x[2], float u, float z[2])
 288:ctrl_pend.c   **** {
 289:ctrl_pend.c   ****     arm_dot_prod_f32((float32_t*)&lp->A[0], (float32_t*)x, 2u, (float32_t*)&z[0]);
 290:ctrl_pend.c   ****     z[0] += lp->B[0] * u;
 291:ctrl_pend.c   ****     arm_dot_prod_f32((float32_t*)&lp->A[2], (float32_t*)x, 2u, (float32_t*)&z[1]);
 292:ctrl_pend.c   ****     z[1] += lp->B[1] * u;
 293:ctrl_pend.c   **** }
 294:ctrl_pend.c   **** 
 295:ctrl_pend.c   **** /* u_cmd = −K·xhat + Kx*(vint o ref) */
 296:ctrl_pend.c   **** static float ss_u_cmd_f32(CtrlLoop *lp)
 297:ctrl_pend.c   **** {
 298:ctrl_pend.c   ****     float kx = 0.0f;
ARM GAS  C:\Users\user\AppData\Local\Temp\cc6TIdBD.s 			page 11


 299:ctrl_pend.c   ****     arm_dot_prod_f32((float32_t*)lp->K, (float32_t*)lp->xhat, 2u, (float32_t*)&kx);
 300:ctrl_pend.c   ****     float extra = mode_has_i(lp->mode) ? (lp->Kx * lp->vint)
 301:ctrl_pend.c   ****                                        : (lp->Kx * lp->ref);
 302:ctrl_pend.c   ****     return extra - kx;
 303:ctrl_pend.c   **** }
 304:ctrl_pend.c   **** 
 305:ctrl_pend.c   **** /* Observer predictor:
 306:ctrl_pend.c   ****    innov = y − ŷ(xhat, u_prev)
 307:ctrl_pend.c   ****    z = A·xhat + B·u_k
 308:ctrl_pend.c   ****    xhat ← z + L·innov                                         */
 309:ctrl_pend.c   **** static void ss_obs_pred_f32(CtrlLoop *lp, float y, float u_prev, float u_k)
 310:ctrl_pend.c   **** {
 311:ctrl_pend.c   ****     float innov = y - ss_yhat_f32(lp, lp->xhat, u_prev);
 312:ctrl_pend.c   ****     float z[2], Linv[2];
 313:ctrl_pend.c   ****     ss_predict_f32(lp, lp->xhat, u_k, z);
 314:ctrl_pend.c   ****     arm_scale_f32((float32_t*)lp->L, innov, (float32_t*)Linv, 2u);
 315:ctrl_pend.c   ****     arm_add_f32((float32_t*)z, (float32_t*)Linv, (float32_t*)lp->xhat, 2u);
 316:ctrl_pend.c   **** }
 317:ctrl_pend.c   **** 
 318:ctrl_pend.c   **** /* Observer actual — corrección: xhat ← zhat + L·innov       */
 319:ctrl_pend.c   **** static void ss_obs_act_correct_f32(CtrlLoop *lp, float y, float u_prev)
 320:ctrl_pend.c   **** {
 321:ctrl_pend.c   ****     float innov = y - ss_yhat_f32(lp, lp->zhat, u_prev);
 322:ctrl_pend.c   ****     float Linv[2];
 323:ctrl_pend.c   ****     arm_scale_f32((float32_t*)lp->L, innov, (float32_t*)Linv, 2u);
 324:ctrl_pend.c   ****     arm_add_f32((float32_t*)lp->zhat, (float32_t*)Linv, (float32_t*)lp->xhat, 2u);
 325:ctrl_pend.c   **** }
 326:ctrl_pend.c   **** 
 327:ctrl_pend.c   **** /* Observer actual — predicción: zhat ← A·xhat + B·u         */
 328:ctrl_pend.c   **** static void ss_obs_act_predict_f32(CtrlLoop *lp, float u_k)
 329:ctrl_pend.c   **** {
 330:ctrl_pend.c   ****     ss_predict_f32(lp, lp->xhat, u_k, lp->zhat);
 331:ctrl_pend.c   **** }
 332:ctrl_pend.c   **** 
 333:ctrl_pend.c   **** /* ============================================================
 334:ctrl_pend.c   ****    SS helpers — Q31
 335:ctrl_pend.c   ****    Señales normalizadas: x_q = flt_to_q31n(x / q_scale)
 336:ctrl_pend.c   ****    Coeficientes pre-convertidos: qA31, qB31, etc. (= arm_float_to_q31 del valor físico)
 337:ctrl_pend.c   **** 
 338:ctrl_pend.c   ****    arm_dot_prod_q31: resultado 16.48 → >>17 para Q31
 339:ctrl_pend.c   ****    arm_scale_q31(..., shift=0): (src × scaleFract) >> 31 → Q31
 340:ctrl_pend.c   ****    arm_add_q31: suma saturada Q31
 341:ctrl_pend.c   ****    ============================================================ */
 342:ctrl_pend.c   **** 
 343:ctrl_pend.c   **** static float ss_yhat_q31(CtrlLoop *lp, const float x[2], float u)
 344:ctrl_pend.c   **** {
 272              		.loc 1 344 0
 273              		.cfi_startproc
 274              		@ args = 0, pretend = 0, frame = 16
 275              		@ frame_needed = 0, uses_anonymous_args = 0
 276              	.LVL36:
 277 0000 2DE9F043 		push	{r4, r5, r6, r7, r8, r9, lr}
 278              		.cfi_def_cfa_offset 28
 279              		.cfi_offset 4, -28
 280              		.cfi_offset 5, -24
 281              		.cfi_offset 6, -20
 282              		.cfi_offset 7, -16
ARM GAS  C:\Users\user\AppData\Local\Temp\cc6TIdBD.s 			page 12


 283              		.cfi_offset 8, -12
 284              		.cfi_offset 9, -8
 285              		.cfi_offset 14, -4
 286 0004 85B0     		sub	sp, sp, #20
 287              		.cfi_def_cfa_offset 48
 288 0006 0646     		mov	r6, r0
 289 0008 0C46     		mov	r4, r1
 290 000a 1746     		mov	r7, r2
 345:ctrl_pend.c   ****     float qs = lp->q_scale;
 291              		.loc 1 345 0
 292 000c D0F8A450 		ldr	r5, [r0, #164]	@ float
 293              	.LVL37:
 346:ctrl_pend.c   ****     q31_t xq[2];
 347:ctrl_pend.c   ****     q63_t dot;
 348:ctrl_pend.c   **** 
 349:ctrl_pend.c   ****     xq[0] = flt_to_q31n(x[0] / qs);
 294              		.loc 1 349 0
 295 0010 2946     		mov	r1, r5
 296              	.LVL38:
 297 0012 2068     		ldr	r0, [r4]	@ float
 298              	.LVL39:
 299 0014 FFF7FEFF 		bl	__aeabi_fdiv
 300              	.LVL40:
 301 0018 8046     		mov	r8, r0
 302              	.LVL41:
 303              	.LBB206:
 304              	.LBB207:
 207:ctrl_pend.c   ****     if (v < -1.0f)  return  (q31_t)0x80000000;
 305              		.loc 1 207 0
 306 001a 4FF07E51 		mov	r1, #1065353216
 307 001e FFF7FEFF 		bl	__aeabi_fcmpge
 308              	.LVL42:
 309 0022 60B9     		cbnz	r0, .L18
 208:ctrl_pend.c   ****     return (q31_t)(v * 2147483648.0f);
 310              		.loc 1 208 0
 311 0024 4449     		ldr	r1, .L27
 312 0026 4046     		mov	r0, r8
 313 0028 FFF7FEFF 		bl	__aeabi_fcmplt
 314              	.LVL43:
 315 002c 50B9     		cbnz	r0, .L19
 209:ctrl_pend.c   **** }
 316              		.loc 1 209 0
 317 002e 4FF09E41 		mov	r1, #1325400064
 318 0032 4046     		mov	r0, r8
 319 0034 FFF7FEFF 		bl	__aeabi_fmul
 320              	.LVL44:
 321 0038 FFF7FEFF 		bl	__aeabi_f2iz
 322              	.LVL45:
 323 003c 04E0     		b	.L14
 324              	.L18:
 207:ctrl_pend.c   ****     if (v < -1.0f)  return  (q31_t)0x80000000;
 325              		.loc 1 207 0
 326 003e 6FF00040 		mvn	r0, #-2147483648
 327 0042 01E0     		b	.L14
 328              	.L19:
 208:ctrl_pend.c   ****     return (q31_t)(v * 2147483648.0f);
 329              		.loc 1 208 0
ARM GAS  C:\Users\user\AppData\Local\Temp\cc6TIdBD.s 			page 13


 330 0044 4FF00040 		mov	r0, #-2147483648
 331              	.L14:
 332              	.LVL46:
 333              	.LBE207:
 334              	.LBE206:
 335              		.loc 1 349 0
 336 0048 0290     		str	r0, [sp, #8]
 350:ctrl_pend.c   ****     xq[1] = flt_to_q31n(x[1] / qs);
 337              		.loc 1 350 0
 338 004a 2946     		mov	r1, r5
 339 004c 6068     		ldr	r0, [r4, #4]	@ float
 340 004e FFF7FEFF 		bl	__aeabi_fdiv
 341              	.LVL47:
 342 0052 0446     		mov	r4, r0
 343              	.LVL48:
 344              	.LBB208:
 345              	.LBB209:
 207:ctrl_pend.c   ****     if (v < -1.0f)  return  (q31_t)0x80000000;
 346              		.loc 1 207 0
 347 0054 4FF07E51 		mov	r1, #1065353216
 348 0058 FFF7FEFF 		bl	__aeabi_fcmpge
 349              	.LVL49:
 350 005c 60B9     		cbnz	r0, .L20
 208:ctrl_pend.c   ****     return (q31_t)(v * 2147483648.0f);
 351              		.loc 1 208 0
 352 005e 3649     		ldr	r1, .L27
 353 0060 2046     		mov	r0, r4
 354 0062 FFF7FEFF 		bl	__aeabi_fcmplt
 355              	.LVL50:
 356 0066 50B9     		cbnz	r0, .L21
 209:ctrl_pend.c   **** }
 357              		.loc 1 209 0
 358 0068 4FF09E41 		mov	r1, #1325400064
 359 006c 2046     		mov	r0, r4
 360 006e FFF7FEFF 		bl	__aeabi_fmul
 361              	.LVL51:
 362 0072 FFF7FEFF 		bl	__aeabi_f2iz
 363              	.LVL52:
 364 0076 04E0     		b	.L15
 365              	.L20:
 207:ctrl_pend.c   ****     if (v < -1.0f)  return  (q31_t)0x80000000;
 366              		.loc 1 207 0
 367 0078 6FF00040 		mvn	r0, #-2147483648
 368 007c 01E0     		b	.L15
 369              	.L21:
 208:ctrl_pend.c   ****     return (q31_t)(v * 2147483648.0f);
 370              		.loc 1 208 0
 371 007e 4FF00040 		mov	r0, #-2147483648
 372              	.L15:
 373              	.LVL53:
 374              	.LBE209:
 375              	.LBE208:
 376              		.loc 1 350 0
 377 0082 0390     		str	r0, [sp, #12]
 351:ctrl_pend.c   ****     q31_t uq = flt_to_q31n(u / qs);
 378              		.loc 1 351 0
 379 0084 2946     		mov	r1, r5
ARM GAS  C:\Users\user\AppData\Local\Temp\cc6TIdBD.s 			page 14


 380 0086 3846     		mov	r0, r7
 381 0088 FFF7FEFF 		bl	__aeabi_fdiv
 382              	.LVL54:
 383 008c 0446     		mov	r4, r0
 384              	.LVL55:
 385              	.LBB210:
 386              	.LBB211:
 207:ctrl_pend.c   ****     if (v < -1.0f)  return  (q31_t)0x80000000;
 387              		.loc 1 207 0
 388 008e 4FF07E51 		mov	r1, #1065353216
 389 0092 FFF7FEFF 		bl	__aeabi_fcmpge
 390              	.LVL56:
 391 0096 68B9     		cbnz	r0, .L22
 208:ctrl_pend.c   ****     return (q31_t)(v * 2147483648.0f);
 392              		.loc 1 208 0
 393 0098 2749     		ldr	r1, .L27
 394 009a 2046     		mov	r0, r4
 395 009c FFF7FEFF 		bl	__aeabi_fcmplt
 396              	.LVL57:
 397 00a0 58B9     		cbnz	r0, .L23
 209:ctrl_pend.c   **** }
 398              		.loc 1 209 0
 399 00a2 4FF09E41 		mov	r1, #1325400064
 400 00a6 2046     		mov	r0, r4
 401 00a8 FFF7FEFF 		bl	__aeabi_fmul
 402              	.LVL58:
 403 00ac FFF7FEFF 		bl	__aeabi_f2iz
 404              	.LVL59:
 405 00b0 0446     		mov	r4, r0
 406              	.LVL60:
 407 00b2 04E0     		b	.L16
 408              	.LVL61:
 409              	.L22:
 207:ctrl_pend.c   ****     if (v < -1.0f)  return  (q31_t)0x80000000;
 410              		.loc 1 207 0
 411 00b4 6FF00044 		mvn	r4, #-2147483648
 412              	.LVL62:
 413 00b8 01E0     		b	.L16
 414              	.LVL63:
 415              	.L23:
 208:ctrl_pend.c   ****     return (q31_t)(v * 2147483648.0f);
 416              		.loc 1 208 0
 417 00ba 4FF00044 		mov	r4, #-2147483648
 418              	.LVL64:
 419              	.L16:
 420              	.LBE211:
 421              	.LBE210:
 352:ctrl_pend.c   **** 
 353:ctrl_pend.c   ****     /* C·x: dot product, 16.48 → >> 17 → Q31 */
 354:ctrl_pend.c   ****     arm_dot_prod_q31(lp->qC31, xq, 2u, &dot);
 422              		.loc 1 354 0
 423 00be 6B46     		mov	r3, sp
 424 00c0 0222     		movs	r2, #2
 425 00c2 02A9     		add	r1, sp, #8
 426 00c4 06F1C000 		add	r0, r6, #192
 427 00c8 FFF7FEFF 		bl	arm_dot_prod_q31
 428              	.LVL65:
ARM GAS  C:\Users\user\AppData\Local\Temp\cc6TIdBD.s 			page 15


 355:ctrl_pend.c   ****     q31_t Cx = (q31_t)(dot >> 17);
 429              		.loc 1 355 0
 430 00cc 0099     		ldr	r1, [sp]
 431 00ce 490C     		lsrs	r1, r1, #17
 432 00d0 019B     		ldr	r3, [sp, #4]
 433 00d2 41EAC331 		orr	r1, r1, r3, lsl #15
 434              	.LVL66:
 356:ctrl_pend.c   **** 
 357:ctrl_pend.c   ****     /* D·u: (D_q31 × u_q) >> 31 → Q31 */
 358:ctrl_pend.c   ****     q31_t Du = (q31_t)(((q63_t)lp->qD31 * uq) >> 31);
 435              		.loc 1 358 0
 436 00d6 D6F8D820 		ldr	r2, [r6, #216]
 437 00da 4FEAE279 		asr	r9, r2, #31
 438 00de E717     		asrs	r7, r4, #31
 439              	.LVL67:
 440 00e0 04FB09F0 		mul	r0, r4, r9
 441 00e4 02FB0700 		mla	r0, r2, r7, r0
 442 00e8 A4FB0223 		umull	r2, r3, r4, r2
 443 00ec 0344     		add	r3, r3, r0
 444 00ee D00F     		lsrs	r0, r2, #31
 445 00f0 40EA4300 		orr	r0, r0, r3, lsl #1
 446              	.LVL68:
 359:ctrl_pend.c   **** 
 360:ctrl_pend.c   ****     return q31_to_flt(qsat31((q63_t)Cx + Du)) * qs;
 447              		.loc 1 360 0
 448 00f4 C317     		asrs	r3, r0, #31
 449 00f6 4218     		adds	r2, r0, r1
 450 00f8 43EBE173 		adc	r3, r3, r1, asr #31
 451              	.LVL69:
 452              	.LBB212:
 453              	.LBB213:
 240:ctrl_pend.c   ****     if (v < (q63_t)0xFFFFFFFF80000000LL) return (q31_t)0x80000000;
 454              		.loc 1 240 0
 455 00fc B2F1004F 		cmp	r2, #-2147483648
 456 0100 73F10004 		sbcs	r4, r3, #0
 457 0104 06DA     		bge	.L24
 241:ctrl_pend.c   ****     return (q31_t)v;
 458              		.loc 1 241 0
 459 0106 B2F1004F 		cmp	r2, #-2147483648
 460 010a 73F1FF33 		sbcs	r3, r3, #-1
 461 010e 04DB     		blt	.L25
 242:ctrl_pend.c   **** }
 462              		.loc 1 242 0
 463 0110 0844     		add	r0, r0, r1
 464              	.LVL70:
 465 0112 04E0     		b	.L17
 466              	.LVL71:
 467              	.L24:
 240:ctrl_pend.c   ****     if (v < (q63_t)0xFFFFFFFF80000000LL) return (q31_t)0x80000000;
 468              		.loc 1 240 0
 469 0114 6FF00040 		mvn	r0, #-2147483648
 470              	.LVL72:
 471 0118 01E0     		b	.L17
 472              	.LVL73:
 473              	.L25:
 241:ctrl_pend.c   ****     return (q31_t)v;
 474              		.loc 1 241 0
ARM GAS  C:\Users\user\AppData\Local\Temp\cc6TIdBD.s 			page 16


 475 011a 4FF00040 		mov	r0, #-2147483648
 476              	.LVL74:
 477              	.L17:
 478              	.LBE213:
 479              	.LBE212:
 480              	.LBB214:
 481              	.LBB215:
 213:ctrl_pend.c   **** }
 482              		.loc 1 213 0
 483 011e FFF7FEFF 		bl	__aeabi_i2f
 484              	.LVL75:
 485 0122 4FF04051 		mov	r1, #805306368
 486 0126 FFF7FEFF 		bl	__aeabi_fmul
 487              	.LVL76:
 488              	.LBE215:
 489              	.LBE214:
 490              		.loc 1 360 0
 491 012a 0146     		mov	r1, r0
 492 012c 2846     		mov	r0, r5
 493 012e FFF7FEFF 		bl	__aeabi_fmul
 494              	.LVL77:
 361:ctrl_pend.c   **** }
 495              		.loc 1 361 0
 496 0132 05B0     		add	sp, sp, #20
 497              		.cfi_def_cfa_offset 28
 498              		@ sp needed
 499 0134 BDE8F083 		pop	{r4, r5, r6, r7, r8, r9, pc}
 500              	.LVL78:
 501              	.L28:
 502              		.align	2
 503              	.L27:
 504 0138 000080BF 		.word	-1082130432
 505              		.cfi_endproc
 506              	.LFE138:
 507              		.size	ss_yhat_q31, .-ss_yhat_q31
 508              		.section	.text.ss_obs_act_correct_q31,"ax",%progbits
 509              		.align	2
 510              		.thumb
 511              		.thumb_func
 512              		.type	ss_obs_act_correct_q31, %function
 513              	ss_obs_act_correct_q31:
 514              	.LFB142:
 362:ctrl_pend.c   **** 
 363:ctrl_pend.c   **** static void ss_predict_q31(CtrlLoop *lp, const float x[2], float u, float z[2])
 364:ctrl_pend.c   **** {
 365:ctrl_pend.c   ****     float qs = lp->q_scale;
 366:ctrl_pend.c   ****     q31_t xq[2], Buq[2];
 367:ctrl_pend.c   ****     q63_t dot;
 368:ctrl_pend.c   **** 
 369:ctrl_pend.c   ****     xq[0] = flt_to_q31n(x[0] / qs);
 370:ctrl_pend.c   ****     xq[1] = flt_to_q31n(x[1] / qs);
 371:ctrl_pend.c   ****     q31_t uq = flt_to_q31n(u / qs);
 372:ctrl_pend.c   **** 
 373:ctrl_pend.c   ****     /* B·u: arm_scale_q31 escala el vector B por el escalar u.
 374:ctrl_pend.c   ****        Resultado: Buq[i] = (B_q31[i] × uq) >> 31 → Q31 */
 375:ctrl_pend.c   ****     arm_scale_q31(lp->qB31, uq, 0, Buq, 2u);
 376:ctrl_pend.c   **** 
ARM GAS  C:\Users\user\AppData\Local\Temp\cc6TIdBD.s 			page 17


 377:ctrl_pend.c   ****     /* Fila 0: A[0..1]·x */
 378:ctrl_pend.c   ****     arm_dot_prod_q31(&lp->qA31[0], xq, 2u, &dot);
 379:ctrl_pend.c   ****     q31_t Ax0 = (q31_t)(dot >> 17);
 380:ctrl_pend.c   ****     z[0] = q31_to_flt(qsat31((q63_t)Ax0 + Buq[0])) * qs;
 381:ctrl_pend.c   **** 
 382:ctrl_pend.c   ****     /* Fila 1: A[2..3]·x */
 383:ctrl_pend.c   ****     arm_dot_prod_q31(&lp->qA31[2], xq, 2u, &dot);
 384:ctrl_pend.c   ****     q31_t Ax1 = (q31_t)(dot >> 17);
 385:ctrl_pend.c   ****     z[1] = q31_to_flt(qsat31((q63_t)Ax1 + Buq[1])) * qs;
 386:ctrl_pend.c   **** }
 387:ctrl_pend.c   **** 
 388:ctrl_pend.c   **** static float ss_u_cmd_q31(CtrlLoop *lp)
 389:ctrl_pend.c   **** {
 390:ctrl_pend.c   ****     float qs = lp->q_scale;
 391:ctrl_pend.c   ****     q31_t xhat_q[2];
 392:ctrl_pend.c   ****     q63_t dot;
 393:ctrl_pend.c   **** 
 394:ctrl_pend.c   ****     xhat_q[0] = flt_to_q31n(lp->xhat[0] / qs);
 395:ctrl_pend.c   ****     xhat_q[1] = flt_to_q31n(lp->xhat[1] / qs);
 396:ctrl_pend.c   **** 
 397:ctrl_pend.c   ****     arm_dot_prod_q31(lp->qK31, xhat_q, 2u, &dot);
 398:ctrl_pend.c   ****     q31_t kx = (q31_t)(dot >> 17);
 399:ctrl_pend.c   **** 
 400:ctrl_pend.c   ****     /* extra = Kx * vint_or_ref — calculado en float, luego normalizado */
 401:ctrl_pend.c   ****     float extra_f = mode_has_i(lp->mode) ? (lp->Kx * lp->vint)
 402:ctrl_pend.c   ****                                          : (lp->Kx * lp->ref);
 403:ctrl_pend.c   ****     q31_t extra_q = flt_to_q31n(extra_f / qs);
 404:ctrl_pend.c   **** 
 405:ctrl_pend.c   ****     return q31_to_flt(qsat31((q63_t)extra_q - kx)) * qs;
 406:ctrl_pend.c   **** }
 407:ctrl_pend.c   **** 
 408:ctrl_pend.c   **** static void ss_obs_pred_q31(CtrlLoop *lp, float y, float u_prev, float u_k)
 409:ctrl_pend.c   **** {
 410:ctrl_pend.c   ****     float qs = lp->q_scale;
 411:ctrl_pend.c   **** 
 412:ctrl_pend.c   ****     /* innov = y - ŷ(xhat, u_prev) */
 413:ctrl_pend.c   ****     float innov = y - ss_yhat_q31(lp, lp->xhat, u_prev);
 414:ctrl_pend.c   ****     q31_t innov_q = flt_to_q31n(innov / qs);
 415:ctrl_pend.c   **** 
 416:ctrl_pend.c   ****     /* z = A·xhat + B·u_k (resultado en float) */
 417:ctrl_pend.c   ****     float z[2];
 418:ctrl_pend.c   ****     ss_predict_q31(lp, lp->xhat, u_k, z);
 419:ctrl_pend.c   **** 
 420:ctrl_pend.c   ****     /* Linv = L × innov: arm_scale_q31(L_q, innov_q, shift=0, Linv, 2) */
 421:ctrl_pend.c   ****     q31_t Linv[2];
 422:ctrl_pend.c   ****     arm_scale_q31(lp->qL31, innov_q, 0, Linv, 2u);
 423:ctrl_pend.c   **** 
 424:ctrl_pend.c   ****     /* xhat = z + Linv (suma Q31 saturada) */
 425:ctrl_pend.c   ****     q31_t zq[2];
 426:ctrl_pend.c   ****     zq[0] = flt_to_q31n(z[0] / qs);
 427:ctrl_pend.c   ****     zq[1] = flt_to_q31n(z[1] / qs);
 428:ctrl_pend.c   ****     q31_t xhat_q[2];
 429:ctrl_pend.c   ****     arm_add_q31(zq, Linv, xhat_q, 2u);
 430:ctrl_pend.c   **** 
 431:ctrl_pend.c   ****     lp->xhat[0] = q31_to_flt(xhat_q[0]) * qs;
 432:ctrl_pend.c   ****     lp->xhat[1] = q31_to_flt(xhat_q[1]) * qs;
 433:ctrl_pend.c   **** }
ARM GAS  C:\Users\user\AppData\Local\Temp\cc6TIdBD.s 			page 18


 434:ctrl_pend.c   **** 
 435:ctrl_pend.c   **** static void ss_obs_act_correct_q31(CtrlLoop *lp, float y, float u_prev)
 436:ctrl_pend.c   **** {
 515              		.loc 1 436 0
 516              		.cfi_startproc
 517              		@ args = 0, pretend = 0, frame = 24
 518              		@ frame_needed = 0, uses_anonymous_args = 0
 519              	.LVL79:
 520 0000 70B5     		push	{r4, r5, r6, lr}
 521              		.cfi_def_cfa_offset 16
 522              		.cfi_offset 4, -16
 523              		.cfi_offset 5, -12
 524              		.cfi_offset 6, -8
 525              		.cfi_offset 14, -4
 526 0002 88B0     		sub	sp, sp, #32
 527              		.cfi_def_cfa_offset 48
 528 0004 0446     		mov	r4, r0
 529 0006 0E46     		mov	r6, r1
 437:ctrl_pend.c   ****     float qs = lp->q_scale;
 530              		.loc 1 437 0
 531 0008 D0F8A450 		ldr	r5, [r0, #164]	@ float
 532              	.LVL80:
 438:ctrl_pend.c   **** 
 439:ctrl_pend.c   ****     float innov = y - ss_yhat_q31(lp, lp->zhat, u_prev);
 533              		.loc 1 439 0
 534 000c 00F18801 		add	r1, r0, #136
 535              	.LVL81:
 536 0010 FFF7FEFF 		bl	ss_yhat_q31
 537              	.LVL82:
 538 0014 0146     		mov	r1, r0
 539 0016 3046     		mov	r0, r6
 540 0018 FFF7FEFF 		bl	__aeabi_fsub
 541              	.LVL83:
 440:ctrl_pend.c   ****     q31_t innov_q = flt_to_q31n(innov / qs);
 542              		.loc 1 440 0
 543 001c 2946     		mov	r1, r5
 544 001e FFF7FEFF 		bl	__aeabi_fdiv
 545              	.LVL84:
 546 0022 0646     		mov	r6, r0
 547              	.LVL85:
 548              	.LBB216:
 549              	.LBB217:
 207:ctrl_pend.c   ****     if (v < -1.0f)  return  (q31_t)0x80000000;
 550              		.loc 1 207 0
 551 0024 4FF07E51 		mov	r1, #1065353216
 552 0028 FFF7FEFF 		bl	__aeabi_fcmpge
 553              	.LVL86:
 554 002c 68B9     		cbnz	r0, .L33
 208:ctrl_pend.c   ****     return (q31_t)(v * 2147483648.0f);
 555              		.loc 1 208 0
 556 002e 3C49     		ldr	r1, .L40
 557 0030 3046     		mov	r0, r6
 558 0032 FFF7FEFF 		bl	__aeabi_fcmplt
 559              	.LVL87:
 560 0036 58B9     		cbnz	r0, .L34
 209:ctrl_pend.c   **** }
 561              		.loc 1 209 0
ARM GAS  C:\Users\user\AppData\Local\Temp\cc6TIdBD.s 			page 19


 562 0038 4FF09E41 		mov	r1, #1325400064
 563 003c 3046     		mov	r0, r6
 564 003e FFF7FEFF 		bl	__aeabi_fmul
 565              	.LVL88:
 566 0042 FFF7FEFF 		bl	__aeabi_f2iz
 567              	.LVL89:
 568 0046 0146     		mov	r1, r0
 569 0048 04E0     		b	.L30
 570              	.L33:
 207:ctrl_pend.c   ****     if (v < -1.0f)  return  (q31_t)0x80000000;
 571              		.loc 1 207 0
 572 004a 6FF00041 		mvn	r1, #-2147483648
 573 004e 01E0     		b	.L30
 574              	.L34:
 208:ctrl_pend.c   ****     return (q31_t)(v * 2147483648.0f);
 575              		.loc 1 208 0
 576 0050 4FF00041 		mov	r1, #-2147483648
 577              	.L30:
 578              	.LVL90:
 579              	.LBE217:
 580              	.LBE216:
 441:ctrl_pend.c   **** 
 442:ctrl_pend.c   ****     q31_t Linv[2];
 443:ctrl_pend.c   ****     arm_scale_q31(lp->qL31, innov_q, 0, Linv, 2u);
 581              		.loc 1 443 0
 582 0054 0223     		movs	r3, #2
 583 0056 0093     		str	r3, [sp]
 584 0058 06AB     		add	r3, sp, #24
 585 005a 0022     		movs	r2, #0
 586 005c 04F1D000 		add	r0, r4, #208
 587 0060 FFF7FEFF 		bl	arm_scale_q31
 588              	.LVL91:
 444:ctrl_pend.c   **** 
 445:ctrl_pend.c   ****     q31_t zhat_q[2];
 446:ctrl_pend.c   ****     zhat_q[0] = flt_to_q31n(lp->zhat[0] / qs);
 589              		.loc 1 446 0
 590 0064 2946     		mov	r1, r5
 591 0066 D4F88800 		ldr	r0, [r4, #136]	@ float
 592 006a FFF7FEFF 		bl	__aeabi_fdiv
 593              	.LVL92:
 594 006e 0646     		mov	r6, r0
 595              	.LVL93:
 596              	.LBB218:
 597              	.LBB219:
 207:ctrl_pend.c   ****     if (v < -1.0f)  return  (q31_t)0x80000000;
 598              		.loc 1 207 0
 599 0070 4FF07E51 		mov	r1, #1065353216
 600 0074 FFF7FEFF 		bl	__aeabi_fcmpge
 601              	.LVL94:
 602 0078 60B9     		cbnz	r0, .L35
 208:ctrl_pend.c   ****     return (q31_t)(v * 2147483648.0f);
 603              		.loc 1 208 0
 604 007a 2949     		ldr	r1, .L40
 605 007c 3046     		mov	r0, r6
 606 007e FFF7FEFF 		bl	__aeabi_fcmplt
 607              	.LVL95:
 608 0082 50B9     		cbnz	r0, .L36
ARM GAS  C:\Users\user\AppData\Local\Temp\cc6TIdBD.s 			page 20


 209:ctrl_pend.c   **** }
 609              		.loc 1 209 0
 610 0084 4FF09E41 		mov	r1, #1325400064
 611 0088 3046     		mov	r0, r6
 612 008a FFF7FEFF 		bl	__aeabi_fmul
 613              	.LVL96:
 614 008e FFF7FEFF 		bl	__aeabi_f2iz
 615              	.LVL97:
 616 0092 04E0     		b	.L31
 617              	.L35:
 207:ctrl_pend.c   ****     if (v < -1.0f)  return  (q31_t)0x80000000;
 618              		.loc 1 207 0
 619 0094 6FF00040 		mvn	r0, #-2147483648
 620 0098 01E0     		b	.L31
 621              	.L36:
 208:ctrl_pend.c   ****     return (q31_t)(v * 2147483648.0f);
 622              		.loc 1 208 0
 623 009a 4FF00040 		mov	r0, #-2147483648
 624              	.L31:
 625              	.LVL98:
 626              	.LBE219:
 627              	.LBE218:
 628              		.loc 1 446 0
 629 009e 0490     		str	r0, [sp, #16]
 447:ctrl_pend.c   ****     zhat_q[1] = flt_to_q31n(lp->zhat[1] / qs);
 630              		.loc 1 447 0
 631 00a0 2946     		mov	r1, r5
 632 00a2 D4F88C00 		ldr	r0, [r4, #140]	@ float
 633 00a6 FFF7FEFF 		bl	__aeabi_fdiv
 634              	.LVL99:
 635 00aa 0646     		mov	r6, r0
 636              	.LVL100:
 637              	.LBB220:
 638              	.LBB221:
 207:ctrl_pend.c   ****     if (v < -1.0f)  return  (q31_t)0x80000000;
 639              		.loc 1 207 0
 640 00ac 4FF07E51 		mov	r1, #1065353216
 641 00b0 FFF7FEFF 		bl	__aeabi_fcmpge
 642              	.LVL101:
 643 00b4 60B9     		cbnz	r0, .L37
 208:ctrl_pend.c   ****     return (q31_t)(v * 2147483648.0f);
 644              		.loc 1 208 0
 645 00b6 1A49     		ldr	r1, .L40
 646 00b8 3046     		mov	r0, r6
 647 00ba FFF7FEFF 		bl	__aeabi_fcmplt
 648              	.LVL102:
 649 00be 50B9     		cbnz	r0, .L38
 209:ctrl_pend.c   **** }
 650              		.loc 1 209 0
 651 00c0 4FF09E41 		mov	r1, #1325400064
 652 00c4 3046     		mov	r0, r6
 653 00c6 FFF7FEFF 		bl	__aeabi_fmul
 654              	.LVL103:
 655 00ca FFF7FEFF 		bl	__aeabi_f2iz
 656              	.LVL104:
 657 00ce 04E0     		b	.L32
 658              	.L37:
ARM GAS  C:\Users\user\AppData\Local\Temp\cc6TIdBD.s 			page 21


 207:ctrl_pend.c   ****     if (v < -1.0f)  return  (q31_t)0x80000000;
 659              		.loc 1 207 0
 660 00d0 6FF00040 		mvn	r0, #-2147483648
 661 00d4 01E0     		b	.L32
 662              	.L38:
 208:ctrl_pend.c   ****     return (q31_t)(v * 2147483648.0f);
 663              		.loc 1 208 0
 664 00d6 4FF00040 		mov	r0, #-2147483648
 665              	.L32:
 666              	.LVL105:
 667              	.LBE221:
 668              	.LBE220:
 669              		.loc 1 447 0
 670 00da 0590     		str	r0, [sp, #20]
 448:ctrl_pend.c   ****     q31_t xhat_q[2];
 449:ctrl_pend.c   ****     arm_add_q31(zhat_q, Linv, xhat_q, 2u);
 671              		.loc 1 449 0
 672 00dc 0223     		movs	r3, #2
 673 00de 02AA     		add	r2, sp, #8
 674 00e0 06A9     		add	r1, sp, #24
 675 00e2 04A8     		add	r0, sp, #16
 676 00e4 FFF7FEFF 		bl	arm_add_q31
 677              	.LVL106:
 678              	.LBB222:
 679              	.LBB223:
 213:ctrl_pend.c   **** }
 680              		.loc 1 213 0
 681 00e8 0298     		ldr	r0, [sp, #8]
 682 00ea FFF7FEFF 		bl	__aeabi_i2f
 683              	.LVL107:
 684 00ee 4FF04051 		mov	r1, #805306368
 685 00f2 FFF7FEFF 		bl	__aeabi_fmul
 686              	.LVL108:
 687              	.LBE223:
 688              	.LBE222:
 450:ctrl_pend.c   **** 
 451:ctrl_pend.c   ****     lp->xhat[0] = q31_to_flt(xhat_q[0]) * qs;
 689              		.loc 1 451 0
 690 00f6 0146     		mov	r1, r0
 691 00f8 2846     		mov	r0, r5
 692 00fa FFF7FEFF 		bl	__aeabi_fmul
 693              	.LVL109:
 694 00fe C4F88000 		str	r0, [r4, #128]	@ float
 695              	.LVL110:
 696              	.LBB224:
 697              	.LBB225:
 213:ctrl_pend.c   **** }
 698              		.loc 1 213 0
 699 0102 0398     		ldr	r0, [sp, #12]
 700 0104 FFF7FEFF 		bl	__aeabi_i2f
 701              	.LVL111:
 702 0108 4FF04051 		mov	r1, #805306368
 703 010c FFF7FEFF 		bl	__aeabi_fmul
 704              	.LVL112:
 705              	.LBE225:
 706              	.LBE224:
 452:ctrl_pend.c   ****     lp->xhat[1] = q31_to_flt(xhat_q[1]) * qs;
ARM GAS  C:\Users\user\AppData\Local\Temp\cc6TIdBD.s 			page 22


 707              		.loc 1 452 0
 708 0110 0146     		mov	r1, r0
 709 0112 2846     		mov	r0, r5
 710 0114 FFF7FEFF 		bl	__aeabi_fmul
 711              	.LVL113:
 712 0118 C4F88400 		str	r0, [r4, #132]	@ float
 453:ctrl_pend.c   **** }
 713              		.loc 1 453 0
 714 011c 08B0     		add	sp, sp, #32
 715              		.cfi_def_cfa_offset 16
 716              		@ sp needed
 717 011e 70BD     		pop	{r4, r5, r6, pc}
 718              	.LVL114:
 719              	.L41:
 720              		.align	2
 721              	.L40:
 722 0120 000080BF 		.word	-1082130432
 723              		.cfi_endproc
 724              	.LFE142:
 725              		.size	ss_obs_act_correct_q31, .-ss_obs_act_correct_q31
 726              		.section	.text.ss_predict_q31,"ax",%progbits
 727              		.align	2
 728              		.thumb
 729              		.thumb_func
 730              		.type	ss_predict_q31, %function
 731              	ss_predict_q31:
 732              	.LFB139:
 364:ctrl_pend.c   ****     float qs = lp->q_scale;
 733              		.loc 1 364 0
 734              		.cfi_startproc
 735              		@ args = 0, pretend = 0, frame = 24
 736              		@ frame_needed = 0, uses_anonymous_args = 0
 737              	.LVL115:
 738 0000 2DE9F043 		push	{r4, r5, r6, r7, r8, r9, lr}
 739              		.cfi_def_cfa_offset 28
 740              		.cfi_offset 4, -28
 741              		.cfi_offset 5, -24
 742              		.cfi_offset 6, -20
 743              		.cfi_offset 7, -16
 744              		.cfi_offset 8, -12
 745              		.cfi_offset 9, -8
 746              		.cfi_offset 14, -4
 747 0004 89B0     		sub	sp, sp, #36
 748              		.cfi_def_cfa_offset 64
 749 0006 0646     		mov	r6, r0
 750 0008 0F46     		mov	r7, r1
 751 000a 9046     		mov	r8, r2
 752 000c 1D46     		mov	r5, r3
 365:ctrl_pend.c   ****     q31_t xq[2], Buq[2];
 753              		.loc 1 365 0
 754 000e D0F8A440 		ldr	r4, [r0, #164]	@ float
 755              	.LVL116:
 369:ctrl_pend.c   ****     xq[1] = flt_to_q31n(x[1] / qs);
 756              		.loc 1 369 0
 757 0012 2146     		mov	r1, r4
 758              	.LVL117:
 759 0014 3868     		ldr	r0, [r7]	@ float
ARM GAS  C:\Users\user\AppData\Local\Temp\cc6TIdBD.s 			page 23


 760              	.LVL118:
 761 0016 FFF7FEFF 		bl	__aeabi_fdiv
 762              	.LVL119:
 763 001a 8146     		mov	r9, r0
 764              	.LVL120:
 765              	.LBB226:
 766              	.LBB227:
 207:ctrl_pend.c   ****     if (v < -1.0f)  return  (q31_t)0x80000000;
 767              		.loc 1 207 0
 768 001c 4FF07E51 		mov	r1, #1065353216
 769 0020 FFF7FEFF 		bl	__aeabi_fcmpge
 770              	.LVL121:
 771 0024 60B9     		cbnz	r0, .L48
 208:ctrl_pend.c   ****     return (q31_t)(v * 2147483648.0f);
 772              		.loc 1 208 0
 773 0026 5A49     		ldr	r1, .L59
 774 0028 4846     		mov	r0, r9
 775 002a FFF7FEFF 		bl	__aeabi_fcmplt
 776              	.LVL122:
 777 002e 50B9     		cbnz	r0, .L49
 209:ctrl_pend.c   **** }
 778              		.loc 1 209 0
 779 0030 4FF09E41 		mov	r1, #1325400064
 780 0034 4846     		mov	r0, r9
 781 0036 FFF7FEFF 		bl	__aeabi_fmul
 782              	.LVL123:
 783 003a FFF7FEFF 		bl	__aeabi_f2iz
 784              	.LVL124:
 785 003e 04E0     		b	.L43
 786              	.L48:
 207:ctrl_pend.c   ****     if (v < -1.0f)  return  (q31_t)0x80000000;
 787              		.loc 1 207 0
 788 0040 6FF00040 		mvn	r0, #-2147483648
 789 0044 01E0     		b	.L43
 790              	.L49:
 208:ctrl_pend.c   ****     return (q31_t)(v * 2147483648.0f);
 791              		.loc 1 208 0
 792 0046 4FF00040 		mov	r0, #-2147483648
 793              	.L43:
 794              	.LVL125:
 795              	.LBE227:
 796              	.LBE226:
 369:ctrl_pend.c   ****     xq[1] = flt_to_q31n(x[1] / qs);
 797              		.loc 1 369 0
 798 004a 0690     		str	r0, [sp, #24]
 370:ctrl_pend.c   ****     q31_t uq = flt_to_q31n(u / qs);
 799              		.loc 1 370 0
 800 004c 2146     		mov	r1, r4
 801 004e 7868     		ldr	r0, [r7, #4]	@ float
 802 0050 FFF7FEFF 		bl	__aeabi_fdiv
 803              	.LVL126:
 804 0054 0746     		mov	r7, r0
 805              	.LVL127:
 806              	.LBB228:
 807              	.LBB229:
 207:ctrl_pend.c   ****     if (v < -1.0f)  return  (q31_t)0x80000000;
 808              		.loc 1 207 0
ARM GAS  C:\Users\user\AppData\Local\Temp\cc6TIdBD.s 			page 24


 809 0056 4FF07E51 		mov	r1, #1065353216
 810 005a FFF7FEFF 		bl	__aeabi_fcmpge
 811              	.LVL128:
 812 005e 60B9     		cbnz	r0, .L50
 208:ctrl_pend.c   ****     return (q31_t)(v * 2147483648.0f);
 813              		.loc 1 208 0
 814 0060 4B49     		ldr	r1, .L59
 815 0062 3846     		mov	r0, r7
 816 0064 FFF7FEFF 		bl	__aeabi_fcmplt
 817              	.LVL129:
 818 0068 50B9     		cbnz	r0, .L51
 209:ctrl_pend.c   **** }
 819              		.loc 1 209 0
 820 006a 4FF09E41 		mov	r1, #1325400064
 821 006e 3846     		mov	r0, r7
 822 0070 FFF7FEFF 		bl	__aeabi_fmul
 823              	.LVL130:
 824 0074 FFF7FEFF 		bl	__aeabi_f2iz
 825              	.LVL131:
 826 0078 04E0     		b	.L44
 827              	.L50:
 207:ctrl_pend.c   ****     if (v < -1.0f)  return  (q31_t)0x80000000;
 828              		.loc 1 207 0
 829 007a 6FF00040 		mvn	r0, #-2147483648
 830 007e 01E0     		b	.L44
 831              	.L51:
 208:ctrl_pend.c   ****     return (q31_t)(v * 2147483648.0f);
 832              		.loc 1 208 0
 833 0080 4FF00040 		mov	r0, #-2147483648
 834              	.L44:
 835              	.LVL132:
 836              	.LBE229:
 837              	.LBE228:
 370:ctrl_pend.c   ****     q31_t uq = flt_to_q31n(u / qs);
 838              		.loc 1 370 0
 839 0084 0790     		str	r0, [sp, #28]
 371:ctrl_pend.c   **** 
 840              		.loc 1 371 0
 841 0086 2146     		mov	r1, r4
 842 0088 4046     		mov	r0, r8
 843 008a FFF7FEFF 		bl	__aeabi_fdiv
 844              	.LVL133:
 845 008e 0746     		mov	r7, r0
 846              	.LVL134:
 847              	.LBB230:
 848              	.LBB231:
 207:ctrl_pend.c   ****     if (v < -1.0f)  return  (q31_t)0x80000000;
 849              		.loc 1 207 0
 850 0090 4FF07E51 		mov	r1, #1065353216
 851 0094 FFF7FEFF 		bl	__aeabi_fcmpge
 852              	.LVL135:
 853 0098 68B9     		cbnz	r0, .L52
 208:ctrl_pend.c   ****     return (q31_t)(v * 2147483648.0f);
 854              		.loc 1 208 0
 855 009a 3D49     		ldr	r1, .L59
 856 009c 3846     		mov	r0, r7
 857 009e FFF7FEFF 		bl	__aeabi_fcmplt
ARM GAS  C:\Users\user\AppData\Local\Temp\cc6TIdBD.s 			page 25


 858              	.LVL136:
 859 00a2 58B9     		cbnz	r0, .L53
 209:ctrl_pend.c   **** }
 860              		.loc 1 209 0
 861 00a4 4FF09E41 		mov	r1, #1325400064
 862 00a8 3846     		mov	r0, r7
 863 00aa FFF7FEFF 		bl	__aeabi_fmul
 864              	.LVL137:
 865 00ae FFF7FEFF 		bl	__aeabi_f2iz
 866              	.LVL138:
 867 00b2 0146     		mov	r1, r0
 868 00b4 04E0     		b	.L45
 869              	.L52:
 207:ctrl_pend.c   ****     if (v < -1.0f)  return  (q31_t)0x80000000;
 870              		.loc 1 207 0
 871 00b6 6FF00041 		mvn	r1, #-2147483648
 872 00ba 01E0     		b	.L45
 873              	.L53:
 208:ctrl_pend.c   ****     return (q31_t)(v * 2147483648.0f);
 874              		.loc 1 208 0
 875 00bc 4FF00041 		mov	r1, #-2147483648
 876              	.L45:
 877              	.LVL139:
 878              	.LBE231:
 879              	.LBE230:
 375:ctrl_pend.c   **** 
 880              		.loc 1 375 0
 881 00c0 0227     		movs	r7, #2
 882 00c2 0097     		str	r7, [sp]
 883 00c4 04AB     		add	r3, sp, #16
 884 00c6 0022     		movs	r2, #0
 885 00c8 06F1B800 		add	r0, r6, #184
 886 00cc FFF7FEFF 		bl	arm_scale_q31
 887              	.LVL140:
 378:ctrl_pend.c   ****     q31_t Ax0 = (q31_t)(dot >> 17);
 888              		.loc 1 378 0
 889 00d0 02AB     		add	r3, sp, #8
 890 00d2 3A46     		mov	r2, r7
 891 00d4 06A9     		add	r1, sp, #24
 892 00d6 06F1A800 		add	r0, r6, #168
 893 00da FFF7FEFF 		bl	arm_dot_prod_q31
 894              	.LVL141:
 379:ctrl_pend.c   ****     z[0] = q31_to_flt(qsat31((q63_t)Ax0 + Buq[0])) * qs;
 895              		.loc 1 379 0
 896 00de 029B     		ldr	r3, [sp, #8]
 897 00e0 5B0C     		lsrs	r3, r3, #17
 898 00e2 039A     		ldr	r2, [sp, #12]
 899 00e4 43EAC233 		orr	r3, r3, r2, lsl #15
 900              	.LVL142:
 380:ctrl_pend.c   **** 
 901              		.loc 1 380 0
 902 00e8 0498     		ldr	r0, [sp, #16]
 903 00ea 4FEAE079 		asr	r9, r0, #31
 904 00ee 10EB0308 		adds	r8, r0, r3
 905              	.LVL143:
 906 00f2 49EBE379 		adc	r9, r9, r3, asr #31
 907              	.LVL144:
ARM GAS  C:\Users\user\AppData\Local\Temp\cc6TIdBD.s 			page 26


 908              	.LBB232:
 909              	.LBB233:
 240:ctrl_pend.c   ****     if (v < (q63_t)0xFFFFFFFF80000000LL) return (q31_t)0x80000000;
 910              		.loc 1 240 0
 911 00f6 B8F1004F 		cmp	r8, #-2147483648
 912 00fa 79F10002 		sbcs	r2, r9, #0
 913 00fe 06DA     		bge	.L54
 241:ctrl_pend.c   ****     return (q31_t)v;
 914              		.loc 1 241 0
 915 0100 B8F1004F 		cmp	r8, #-2147483648
 916 0104 79F1FF32 		sbcs	r2, r9, #-1
 917 0108 04DB     		blt	.L55
 242:ctrl_pend.c   **** }
 918              		.loc 1 242 0
 919 010a 1844     		add	r0, r0, r3
 920 010c 04E0     		b	.L46
 921              	.L54:
 240:ctrl_pend.c   ****     if (v < (q63_t)0xFFFFFFFF80000000LL) return (q31_t)0x80000000;
 922              		.loc 1 240 0
 923 010e 6FF00040 		mvn	r0, #-2147483648
 924 0112 01E0     		b	.L46
 925              	.L55:
 241:ctrl_pend.c   ****     return (q31_t)v;
 926              		.loc 1 241 0
 927 0114 4FF00040 		mov	r0, #-2147483648
 928              	.L46:
 929              	.LVL145:
 930              	.LBE233:
 931              	.LBE232:
 932              	.LBB234:
 933              	.LBB235:
 213:ctrl_pend.c   **** }
 934              		.loc 1 213 0
 935 0118 FFF7FEFF 		bl	__aeabi_i2f
 936              	.LVL146:
 937 011c 4FF04051 		mov	r1, #805306368
 938 0120 FFF7FEFF 		bl	__aeabi_fmul
 939              	.LVL147:
 940              	.LBE235:
 941              	.LBE234:
 380:ctrl_pend.c   **** 
 942              		.loc 1 380 0
 943 0124 0146     		mov	r1, r0
 944 0126 2046     		mov	r0, r4
 945 0128 FFF7FEFF 		bl	__aeabi_fmul
 946              	.LVL148:
 947 012c 2860     		str	r0, [r5]	@ float
 383:ctrl_pend.c   ****     q31_t Ax1 = (q31_t)(dot >> 17);
 948              		.loc 1 383 0
 949 012e 02AB     		add	r3, sp, #8
 950 0130 0222     		movs	r2, #2
 951 0132 06A9     		add	r1, sp, #24
 952 0134 06F1B000 		add	r0, r6, #176
 953 0138 FFF7FEFF 		bl	arm_dot_prod_q31
 954              	.LVL149:
 384:ctrl_pend.c   ****     z[1] = q31_to_flt(qsat31((q63_t)Ax1 + Buq[1])) * qs;
 955              		.loc 1 384 0
ARM GAS  C:\Users\user\AppData\Local\Temp\cc6TIdBD.s 			page 27


 956 013c 029B     		ldr	r3, [sp, #8]
 957 013e 5B0C     		lsrs	r3, r3, #17
 958 0140 039A     		ldr	r2, [sp, #12]
 959 0142 43EAC233 		orr	r3, r3, r2, lsl #15
 960              	.LVL150:
 385:ctrl_pend.c   **** }
 961              		.loc 1 385 0
 962 0146 0598     		ldr	r0, [sp, #20]
 963 0148 C717     		asrs	r7, r0, #31
 964 014a C618     		adds	r6, r0, r3
 965              	.LVL151:
 966 014c 47EBE377 		adc	r7, r7, r3, asr #31
 967              	.LVL152:
 968              	.LBB236:
 969              	.LBB237:
 240:ctrl_pend.c   ****     if (v < (q63_t)0xFFFFFFFF80000000LL) return (q31_t)0x80000000;
 970              		.loc 1 240 0
 971 0150 B6F1004F 		cmp	r6, #-2147483648
 972 0154 77F10002 		sbcs	r2, r7, #0
 973 0158 06DA     		bge	.L56
 241:ctrl_pend.c   ****     return (q31_t)v;
 974              		.loc 1 241 0
 975 015a B6F1004F 		cmp	r6, #-2147483648
 976 015e 77F1FF32 		sbcs	r2, r7, #-1
 977 0162 04DB     		blt	.L57
 242:ctrl_pend.c   **** }
 978              		.loc 1 242 0
 979 0164 1844     		add	r0, r0, r3
 980 0166 04E0     		b	.L47
 981              	.L56:
 240:ctrl_pend.c   ****     if (v < (q63_t)0xFFFFFFFF80000000LL) return (q31_t)0x80000000;
 982              		.loc 1 240 0
 983 0168 6FF00040 		mvn	r0, #-2147483648
 984 016c 01E0     		b	.L47
 985              	.L57:
 241:ctrl_pend.c   ****     return (q31_t)v;
 986              		.loc 1 241 0
 987 016e 4FF00040 		mov	r0, #-2147483648
 988              	.L47:
 989              	.LVL153:
 990              	.LBE237:
 991              	.LBE236:
 992              	.LBB238:
 993              	.LBB239:
 213:ctrl_pend.c   **** }
 994              		.loc 1 213 0
 995 0172 FFF7FEFF 		bl	__aeabi_i2f
 996              	.LVL154:
 997 0176 4FF04051 		mov	r1, #805306368
 998 017a FFF7FEFF 		bl	__aeabi_fmul
 999              	.LVL155:
 1000              	.LBE239:
 1001              	.LBE238:
 385:ctrl_pend.c   **** }
 1002              		.loc 1 385 0
 1003 017e 0146     		mov	r1, r0
 1004 0180 2046     		mov	r0, r4
ARM GAS  C:\Users\user\AppData\Local\Temp\cc6TIdBD.s 			page 28


 1005 0182 FFF7FEFF 		bl	__aeabi_fmul
 1006              	.LVL156:
 1007 0186 6860     		str	r0, [r5, #4]	@ float
 386:ctrl_pend.c   **** 
 1008              		.loc 1 386 0
 1009 0188 09B0     		add	sp, sp, #36
 1010              		.cfi_def_cfa_offset 28
 1011              		@ sp needed
 1012 018a BDE8F083 		pop	{r4, r5, r6, r7, r8, r9, pc}
 1013              	.LVL157:
 1014              	.L60:
 1015 018e 00BF     		.align	2
 1016              	.L59:
 1017 0190 000080BF 		.word	-1082130432
 1018              		.cfi_endproc
 1019              	.LFE139:
 1020              		.size	ss_predict_q31, .-ss_predict_q31
 1021              		.section	.text.ss_obs_pred_q31,"ax",%progbits
 1022              		.align	2
 1023              		.thumb
 1024              		.thumb_func
 1025              		.type	ss_obs_pred_q31, %function
 1026              	ss_obs_pred_q31:
 1027              	.LFB141:
 409:ctrl_pend.c   ****     float qs = lp->q_scale;
 1028              		.loc 1 409 0
 1029              		.cfi_startproc
 1030              		@ args = 0, pretend = 0, frame = 32
 1031              		@ frame_needed = 0, uses_anonymous_args = 0
 1032              	.LVL158:
 1033 0000 2DE9F041 		push	{r4, r5, r6, r7, r8, lr}
 1034              		.cfi_def_cfa_offset 24
 1035              		.cfi_offset 4, -24
 1036              		.cfi_offset 5, -20
 1037              		.cfi_offset 6, -16
 1038              		.cfi_offset 7, -12
 1039              		.cfi_offset 8, -8
 1040              		.cfi_offset 14, -4
 1041 0004 8AB0     		sub	sp, sp, #40
 1042              		.cfi_def_cfa_offset 64
 1043 0006 0446     		mov	r4, r0
 1044 0008 8846     		mov	r8, r1
 1045 000a 1F46     		mov	r7, r3
 410:ctrl_pend.c   **** 
 1046              		.loc 1 410 0
 1047 000c D0F8A450 		ldr	r5, [r0, #164]	@ float
 1048              	.LVL159:
 413:ctrl_pend.c   ****     q31_t innov_q = flt_to_q31n(innov / qs);
 1049              		.loc 1 413 0
 1050 0010 00F18006 		add	r6, r0, #128
 1051 0014 3146     		mov	r1, r6
 1052              	.LVL160:
 1053 0016 FFF7FEFF 		bl	ss_yhat_q31
 1054              	.LVL161:
 1055 001a 0146     		mov	r1, r0
 1056 001c 4046     		mov	r0, r8
 1057 001e FFF7FEFF 		bl	__aeabi_fsub
ARM GAS  C:\Users\user\AppData\Local\Temp\cc6TIdBD.s 			page 29


 1058              	.LVL162:
 414:ctrl_pend.c   **** 
 1059              		.loc 1 414 0
 1060 0022 2946     		mov	r1, r5
 1061 0024 FFF7FEFF 		bl	__aeabi_fdiv
 1062              	.LVL163:
 1063 0028 8046     		mov	r8, r0
 1064              	.LVL164:
 1065              	.LBB240:
 1066              	.LBB241:
 207:ctrl_pend.c   ****     if (v < -1.0f)  return  (q31_t)0x80000000;
 1067              		.loc 1 207 0
 1068 002a 4FF07E51 		mov	r1, #1065353216
 1069 002e FFF7FEFF 		bl	__aeabi_fcmpge
 1070              	.LVL165:
 1071 0032 68B9     		cbnz	r0, .L65
 208:ctrl_pend.c   ****     return (q31_t)(v * 2147483648.0f);
 1072              		.loc 1 208 0
 1073 0034 3F49     		ldr	r1, .L72
 1074 0036 4046     		mov	r0, r8
 1075 0038 FFF7FEFF 		bl	__aeabi_fcmplt
 1076              	.LVL166:
 1077 003c 58B9     		cbnz	r0, .L66
 209:ctrl_pend.c   **** }
 1078              		.loc 1 209 0
 1079 003e 4FF09E41 		mov	r1, #1325400064
 1080 0042 4046     		mov	r0, r8
 1081 0044 FFF7FEFF 		bl	__aeabi_fmul
 1082              	.LVL167:
 1083 0048 FFF7FEFF 		bl	__aeabi_f2iz
 1084              	.LVL168:
 1085 004c 8046     		mov	r8, r0
 1086              	.LVL169:
 1087 004e 04E0     		b	.L62
 1088              	.LVL170:
 1089              	.L65:
 207:ctrl_pend.c   ****     if (v < -1.0f)  return  (q31_t)0x80000000;
 1090              		.loc 1 207 0
 1091 0050 6FF00048 		mvn	r8, #-2147483648
 1092              	.LVL171:
 1093 0054 01E0     		b	.L62
 1094              	.LVL172:
 1095              	.L66:
 208:ctrl_pend.c   ****     return (q31_t)(v * 2147483648.0f);
 1096              		.loc 1 208 0
 1097 0056 4FF00048 		mov	r8, #-2147483648
 1098              	.LVL173:
 1099              	.L62:
 1100              	.LBE241:
 1101              	.LBE240:
 418:ctrl_pend.c   **** 
 1102              		.loc 1 418 0
 1103 005a 08AB     		add	r3, sp, #32
 1104 005c 3A46     		mov	r2, r7
 1105 005e 3146     		mov	r1, r6
 1106 0060 2046     		mov	r0, r4
 1107 0062 FFF7FEFF 		bl	ss_predict_q31
ARM GAS  C:\Users\user\AppData\Local\Temp\cc6TIdBD.s 			page 30


 1108              	.LVL174:
 422:ctrl_pend.c   **** 
 1109              		.loc 1 422 0
 1110 0066 0223     		movs	r3, #2
 1111 0068 0093     		str	r3, [sp]
 1112 006a 06AB     		add	r3, sp, #24
 1113 006c 0022     		movs	r2, #0
 1114 006e 4146     		mov	r1, r8
 1115 0070 04F1D000 		add	r0, r4, #208
 1116 0074 FFF7FEFF 		bl	arm_scale_q31
 1117              	.LVL175:
 426:ctrl_pend.c   ****     zq[1] = flt_to_q31n(z[1] / qs);
 1118              		.loc 1 426 0
 1119 0078 2946     		mov	r1, r5
 1120 007a 0898     		ldr	r0, [sp, #32]	@ float
 1121 007c FFF7FEFF 		bl	__aeabi_fdiv
 1122              	.LVL176:
 1123 0080 0646     		mov	r6, r0
 1124              	.LVL177:
 1125              	.LBB242:
 1126              	.LBB243:
 207:ctrl_pend.c   ****     if (v < -1.0f)  return  (q31_t)0x80000000;
 1127              		.loc 1 207 0
 1128 0082 4FF07E51 		mov	r1, #1065353216
 1129 0086 FFF7FEFF 		bl	__aeabi_fcmpge
 1130              	.LVL178:
 1131 008a 60B9     		cbnz	r0, .L67
 208:ctrl_pend.c   ****     return (q31_t)(v * 2147483648.0f);
 1132              		.loc 1 208 0
 1133 008c 2949     		ldr	r1, .L72
 1134 008e 3046     		mov	r0, r6
 1135 0090 FFF7FEFF 		bl	__aeabi_fcmplt
 1136              	.LVL179:
 1137 0094 50B9     		cbnz	r0, .L68
 209:ctrl_pend.c   **** }
 1138              		.loc 1 209 0
 1139 0096 4FF09E41 		mov	r1, #1325400064
 1140 009a 3046     		mov	r0, r6
 1141 009c FFF7FEFF 		bl	__aeabi_fmul
 1142              	.LVL180:
 1143 00a0 FFF7FEFF 		bl	__aeabi_f2iz
 1144              	.LVL181:
 1145 00a4 04E0     		b	.L63
 1146              	.L67:
 207:ctrl_pend.c   ****     if (v < -1.0f)  return  (q31_t)0x80000000;
 1147              		.loc 1 207 0
 1148 00a6 6FF00040 		mvn	r0, #-2147483648
 1149 00aa 01E0     		b	.L63
 1150              	.L68:
 208:ctrl_pend.c   ****     return (q31_t)(v * 2147483648.0f);
 1151              		.loc 1 208 0
 1152 00ac 4FF00040 		mov	r0, #-2147483648
 1153              	.L63:
 1154              	.LVL182:
 1155              	.LBE243:
 1156              	.LBE242:
 426:ctrl_pend.c   ****     zq[1] = flt_to_q31n(z[1] / qs);
ARM GAS  C:\Users\user\AppData\Local\Temp\cc6TIdBD.s 			page 31


 1157              		.loc 1 426 0
 1158 00b0 0490     		str	r0, [sp, #16]
 427:ctrl_pend.c   ****     q31_t xhat_q[2];
 1159              		.loc 1 427 0
 1160 00b2 2946     		mov	r1, r5
 1161 00b4 0998     		ldr	r0, [sp, #36]	@ float
 1162 00b6 FFF7FEFF 		bl	__aeabi_fdiv
 1163              	.LVL183:
 1164 00ba 0646     		mov	r6, r0
 1165              	.LVL184:
 1166              	.LBB244:
 1167              	.LBB245:
 207:ctrl_pend.c   ****     if (v < -1.0f)  return  (q31_t)0x80000000;
 1168              		.loc 1 207 0
 1169 00bc 4FF07E51 		mov	r1, #1065353216
 1170 00c0 FFF7FEFF 		bl	__aeabi_fcmpge
 1171              	.LVL185:
 1172 00c4 60B9     		cbnz	r0, .L69
 208:ctrl_pend.c   ****     return (q31_t)(v * 2147483648.0f);
 1173              		.loc 1 208 0
 1174 00c6 1B49     		ldr	r1, .L72
 1175 00c8 3046     		mov	r0, r6
 1176 00ca FFF7FEFF 		bl	__aeabi_fcmplt
 1177              	.LVL186:
 1178 00ce 50B9     		cbnz	r0, .L70
 209:ctrl_pend.c   **** }
 1179              		.loc 1 209 0
 1180 00d0 4FF09E41 		mov	r1, #1325400064
 1181 00d4 3046     		mov	r0, r6
 1182 00d6 FFF7FEFF 		bl	__aeabi_fmul
 1183              	.LVL187:
 1184 00da FFF7FEFF 		bl	__aeabi_f2iz
 1185              	.LVL188:
 1186 00de 04E0     		b	.L64
 1187              	.L69:
 207:ctrl_pend.c   ****     if (v < -1.0f)  return  (q31_t)0x80000000;
 1188              		.loc 1 207 0
 1189 00e0 6FF00040 		mvn	r0, #-2147483648
 1190 00e4 01E0     		b	.L64
 1191              	.L70:
 208:ctrl_pend.c   ****     return (q31_t)(v * 2147483648.0f);
 1192              		.loc 1 208 0
 1193 00e6 4FF00040 		mov	r0, #-2147483648
 1194              	.L64:
 1195              	.LVL189:
 1196              	.LBE245:
 1197              	.LBE244:
 427:ctrl_pend.c   ****     q31_t xhat_q[2];
 1198              		.loc 1 427 0
 1199 00ea 0590     		str	r0, [sp, #20]
 429:ctrl_pend.c   **** 
 1200              		.loc 1 429 0
 1201 00ec 0223     		movs	r3, #2
 1202 00ee 02AA     		add	r2, sp, #8
 1203 00f0 06A9     		add	r1, sp, #24
 1204 00f2 04A8     		add	r0, sp, #16
 1205 00f4 FFF7FEFF 		bl	arm_add_q31
ARM GAS  C:\Users\user\AppData\Local\Temp\cc6TIdBD.s 			page 32


 1206              	.LVL190:
 1207              	.LBB246:
 1208              	.LBB247:
 213:ctrl_pend.c   **** }
 1209              		.loc 1 213 0
 1210 00f8 0298     		ldr	r0, [sp, #8]
 1211 00fa FFF7FEFF 		bl	__aeabi_i2f
 1212              	.LVL191:
 1213 00fe 4FF04051 		mov	r1, #805306368
 1214 0102 FFF7FEFF 		bl	__aeabi_fmul
 1215              	.LVL192:
 1216              	.LBE247:
 1217              	.LBE246:
 431:ctrl_pend.c   ****     lp->xhat[1] = q31_to_flt(xhat_q[1]) * qs;
 1218              		.loc 1 431 0
 1219 0106 0146     		mov	r1, r0
 1220 0108 2846     		mov	r0, r5
 1221 010a FFF7FEFF 		bl	__aeabi_fmul
 1222              	.LVL193:
 1223 010e C4F88000 		str	r0, [r4, #128]	@ float
 1224              	.LVL194:
 1225              	.LBB248:
 1226              	.LBB249:
 213:ctrl_pend.c   **** }
 1227              		.loc 1 213 0
 1228 0112 0398     		ldr	r0, [sp, #12]
 1229 0114 FFF7FEFF 		bl	__aeabi_i2f
 1230              	.LVL195:
 1231 0118 4FF04051 		mov	r1, #805306368
 1232 011c FFF7FEFF 		bl	__aeabi_fmul
 1233              	.LVL196:
 1234              	.LBE249:
 1235              	.LBE248:
 432:ctrl_pend.c   **** }
 1236              		.loc 1 432 0
 1237 0120 0146     		mov	r1, r0
 1238 0122 2846     		mov	r0, r5
 1239 0124 FFF7FEFF 		bl	__aeabi_fmul
 1240              	.LVL197:
 1241 0128 C4F88400 		str	r0, [r4, #132]	@ float
 433:ctrl_pend.c   **** 
 1242              		.loc 1 433 0
 1243 012c 0AB0     		add	sp, sp, #40
 1244              		.cfi_def_cfa_offset 24
 1245              		@ sp needed
 1246 012e BDE8F081 		pop	{r4, r5, r6, r7, r8, pc}
 1247              	.LVL198:
 1248              	.L73:
 1249 0132 00BF     		.align	2
 1250              	.L72:
 1251 0134 000080BF 		.word	-1082130432
 1252              		.cfi_endproc
 1253              	.LFE141:
 1254              		.size	ss_obs_pred_q31, .-ss_obs_pred_q31
 1255              		.section	.text.ss_obs_act_predict_q31,"ax",%progbits
 1256              		.align	2
 1257              		.thumb
ARM GAS  C:\Users\user\AppData\Local\Temp\cc6TIdBD.s 			page 33


 1258              		.thumb_func
 1259              		.type	ss_obs_act_predict_q31, %function
 1260              	ss_obs_act_predict_q31:
 1261              	.LFB143:
 454:ctrl_pend.c   **** 
 455:ctrl_pend.c   **** static void ss_obs_act_predict_q31(CtrlLoop *lp, float u_k)
 456:ctrl_pend.c   **** {
 1262              		.loc 1 456 0
 1263              		.cfi_startproc
 1264              		@ args = 0, pretend = 0, frame = 0
 1265              		@ frame_needed = 0, uses_anonymous_args = 0
 1266              	.LVL199:
 1267 0000 10B5     		push	{r4, lr}
 1268              		.cfi_def_cfa_offset 8
 1269              		.cfi_offset 4, -8
 1270              		.cfi_offset 14, -4
 457:ctrl_pend.c   ****     ss_predict_q31(lp, lp->xhat, u_k, lp->zhat);
 1271              		.loc 1 457 0
 1272 0002 00F18803 		add	r3, r0, #136
 1273 0006 0A46     		mov	r2, r1
 1274 0008 00F18001 		add	r1, r0, #128
 1275              	.LVL200:
 1276 000c FFF7FEFF 		bl	ss_predict_q31
 1277              	.LVL201:
 1278 0010 10BD     		pop	{r4, pc}
 1279              		.cfi_endproc
 1280              	.LFE143:
 1281              		.size	ss_obs_act_predict_q31, .-ss_obs_act_predict_q31
 1282 0012 00BF     		.section	.text.ss_u_cmd_q31,"ax",%progbits
 1283              		.align	2
 1284              		.thumb
 1285              		.thumb_func
 1286              		.type	ss_u_cmd_q31, %function
 1287              	ss_u_cmd_q31:
 1288              	.LFB140:
 389:ctrl_pend.c   ****     float qs = lp->q_scale;
 1289              		.loc 1 389 0
 1290              		.cfi_startproc
 1291              		@ args = 0, pretend = 0, frame = 16
 1292              		@ frame_needed = 0, uses_anonymous_args = 0
 1293              	.LVL202:
 1294 0000 F0B5     		push	{r4, r5, r6, r7, lr}
 1295              		.cfi_def_cfa_offset 20
 1296              		.cfi_offset 4, -20
 1297              		.cfi_offset 5, -16
 1298              		.cfi_offset 6, -12
 1299              		.cfi_offset 7, -8
 1300              		.cfi_offset 14, -4
 1301 0002 85B0     		sub	sp, sp, #20
 1302              		.cfi_def_cfa_offset 40
 1303 0004 0446     		mov	r4, r0
 390:ctrl_pend.c   ****     q31_t xhat_q[2];
 1304              		.loc 1 390 0
 1305 0006 D0F8A460 		ldr	r6, [r0, #164]	@ float
 1306              	.LVL203:
 394:ctrl_pend.c   ****     xhat_q[1] = flt_to_q31n(lp->xhat[1] / qs);
 1307              		.loc 1 394 0
ARM GAS  C:\Users\user\AppData\Local\Temp\cc6TIdBD.s 			page 34


 1308 000a 3146     		mov	r1, r6
 1309 000c D0F88000 		ldr	r0, [r0, #128]	@ float
 1310              	.LVL204:
 1311 0010 FFF7FEFF 		bl	__aeabi_fdiv
 1312              	.LVL205:
 1313 0014 0546     		mov	r5, r0
 1314              	.LVL206:
 1315              	.LBB250:
 1316              	.LBB251:
 207:ctrl_pend.c   ****     if (v < -1.0f)  return  (q31_t)0x80000000;
 1317              		.loc 1 207 0
 1318 0016 4FF07E51 		mov	r1, #1065353216
 1319 001a FFF7FEFF 		bl	__aeabi_fcmpge
 1320              	.LVL207:
 1321 001e 60B9     		cbnz	r0, .L83
 208:ctrl_pend.c   ****     return (q31_t)(v * 2147483648.0f);
 1322              		.loc 1 208 0
 1323 0020 4449     		ldr	r1, .L92
 1324 0022 2846     		mov	r0, r5
 1325 0024 FFF7FEFF 		bl	__aeabi_fcmplt
 1326              	.LVL208:
 1327 0028 50B9     		cbnz	r0, .L84
 209:ctrl_pend.c   **** }
 1328              		.loc 1 209 0
 1329 002a 4FF09E41 		mov	r1, #1325400064
 1330 002e 2846     		mov	r0, r5
 1331 0030 FFF7FEFF 		bl	__aeabi_fmul
 1332              	.LVL209:
 1333 0034 FFF7FEFF 		bl	__aeabi_f2iz
 1334              	.LVL210:
 1335 0038 04E0     		b	.L77
 1336              	.L83:
 207:ctrl_pend.c   ****     if (v < -1.0f)  return  (q31_t)0x80000000;
 1337              		.loc 1 207 0
 1338 003a 6FF00040 		mvn	r0, #-2147483648
 1339 003e 01E0     		b	.L77
 1340              	.L84:
 208:ctrl_pend.c   ****     return (q31_t)(v * 2147483648.0f);
 1341              		.loc 1 208 0
 1342 0040 4FF00040 		mov	r0, #-2147483648
 1343              	.L77:
 1344              	.LVL211:
 1345              	.LBE251:
 1346              	.LBE250:
 394:ctrl_pend.c   ****     xhat_q[1] = flt_to_q31n(lp->xhat[1] / qs);
 1347              		.loc 1 394 0
 1348 0044 0290     		str	r0, [sp, #8]
 395:ctrl_pend.c   **** 
 1349              		.loc 1 395 0
 1350 0046 3146     		mov	r1, r6
 1351 0048 D4F88400 		ldr	r0, [r4, #132]	@ float
 1352 004c FFF7FEFF 		bl	__aeabi_fdiv
 1353              	.LVL212:
 1354 0050 0546     		mov	r5, r0
 1355              	.LVL213:
 1356              	.LBB252:
 1357              	.LBB253:
ARM GAS  C:\Users\user\AppData\Local\Temp\cc6TIdBD.s 			page 35


 207:ctrl_pend.c   ****     if (v < -1.0f)  return  (q31_t)0x80000000;
 1358              		.loc 1 207 0
 1359 0052 4FF07E51 		mov	r1, #1065353216
 1360 0056 FFF7FEFF 		bl	__aeabi_fcmpge
 1361              	.LVL214:
 1362 005a 60B9     		cbnz	r0, .L85
 208:ctrl_pend.c   ****     return (q31_t)(v * 2147483648.0f);
 1363              		.loc 1 208 0
 1364 005c 3549     		ldr	r1, .L92
 1365 005e 2846     		mov	r0, r5
 1366 0060 FFF7FEFF 		bl	__aeabi_fcmplt
 1367              	.LVL215:
 1368 0064 50B9     		cbnz	r0, .L86
 209:ctrl_pend.c   **** }
 1369              		.loc 1 209 0
 1370 0066 4FF09E41 		mov	r1, #1325400064
 1371 006a 2846     		mov	r0, r5
 1372 006c FFF7FEFF 		bl	__aeabi_fmul
 1373              	.LVL216:
 1374 0070 FFF7FEFF 		bl	__aeabi_f2iz
 1375              	.LVL217:
 1376 0074 04E0     		b	.L78
 1377              	.L85:
 207:ctrl_pend.c   ****     if (v < -1.0f)  return  (q31_t)0x80000000;
 1378              		.loc 1 207 0
 1379 0076 6FF00040 		mvn	r0, #-2147483648
 1380 007a 01E0     		b	.L78
 1381              	.L86:
 208:ctrl_pend.c   ****     return (q31_t)(v * 2147483648.0f);
 1382              		.loc 1 208 0
 1383 007c 4FF00040 		mov	r0, #-2147483648
 1384              	.L78:
 1385              	.LVL218:
 1386              	.LBE253:
 1387              	.LBE252:
 395:ctrl_pend.c   **** 
 1388              		.loc 1 395 0
 1389 0080 0390     		str	r0, [sp, #12]
 397:ctrl_pend.c   ****     q31_t kx = (q31_t)(dot >> 17);
 1390              		.loc 1 397 0
 1391 0082 6B46     		mov	r3, sp
 1392 0084 0222     		movs	r2, #2
 1393 0086 02A9     		add	r1, sp, #8
 1394 0088 04F1C800 		add	r0, r4, #200
 1395 008c FFF7FEFF 		bl	arm_dot_prod_q31
 1396              	.LVL219:
 398:ctrl_pend.c   **** 
 1397              		.loc 1 398 0
 1398 0090 009D     		ldr	r5, [sp]
 1399 0092 6D0C     		lsrs	r5, r5, #17
 1400 0094 019B     		ldr	r3, [sp, #4]
 1401 0096 45EAC335 		orr	r5, r5, r3, lsl #15
 1402 009a 2F46     		mov	r7, r5
 1403              	.LVL220:
 401:ctrl_pend.c   ****                                          : (lp->Kx * lp->ref);
 1404              		.loc 1 401 0
 1405 009c 2078     		ldrb	r0, [r4]	@ zero_extendqisi2
ARM GAS  C:\Users\user\AppData\Local\Temp\cc6TIdBD.s 			page 36


 1406 009e FFF7FEFF 		bl	mode_has_i
 1407              	.LVL221:
 402:ctrl_pend.c   ****     q31_t extra_q = flt_to_q31n(extra_f / qs);
 1408              		.loc 1 402 0
 1409 00a2 28B1     		cbz	r0, .L79
 402:ctrl_pend.c   ****     q31_t extra_q = flt_to_q31n(extra_f / qs);
 1410              		.loc 1 402 0 is_stmt 0 discriminator 1
 1411 00a4 D4F89010 		ldr	r1, [r4, #144]	@ float
 1412 00a8 E06F     		ldr	r0, [r4, #124]	@ float
 1413 00aa FFF7FEFF 		bl	__aeabi_fmul
 1414              	.LVL222:
 1415 00ae 04E0     		b	.L80
 1416              	.L79:
 402:ctrl_pend.c   ****     q31_t extra_q = flt_to_q31n(extra_f / qs);
 1417              		.loc 1 402 0 discriminator 2
 1418 00b0 D4F89410 		ldr	r1, [r4, #148]	@ float
 1419 00b4 E06F     		ldr	r0, [r4, #124]	@ float
 1420 00b6 FFF7FEFF 		bl	__aeabi_fmul
 1421              	.LVL223:
 1422              	.L80:
 403:ctrl_pend.c   **** 
 1423              		.loc 1 403 0 is_stmt 1
 1424 00ba 3146     		mov	r1, r6
 1425 00bc FFF7FEFF 		bl	__aeabi_fdiv
 1426              	.LVL224:
 1427 00c0 0446     		mov	r4, r0
 1428              	.LVL225:
 1429              	.LBB254:
 1430              	.LBB255:
 207:ctrl_pend.c   ****     if (v < -1.0f)  return  (q31_t)0x80000000;
 1431              		.loc 1 207 0
 1432 00c2 4FF07E51 		mov	r1, #1065353216
 1433 00c6 FFF7FEFF 		bl	__aeabi_fcmpge
 1434              	.LVL226:
 1435 00ca 60B9     		cbnz	r0, .L87
 208:ctrl_pend.c   ****     return (q31_t)(v * 2147483648.0f);
 1436              		.loc 1 208 0
 1437 00cc 1949     		ldr	r1, .L92
 1438 00ce 2046     		mov	r0, r4
 1439 00d0 FFF7FEFF 		bl	__aeabi_fcmplt
 1440              	.LVL227:
 1441 00d4 50B9     		cbnz	r0, .L88
 209:ctrl_pend.c   **** }
 1442              		.loc 1 209 0
 1443 00d6 4FF09E41 		mov	r1, #1325400064
 1444 00da 2046     		mov	r0, r4
 1445 00dc FFF7FEFF 		bl	__aeabi_fmul
 1446              	.LVL228:
 1447 00e0 FFF7FEFF 		bl	__aeabi_f2iz
 1448              	.LVL229:
 1449 00e4 04E0     		b	.L81
 1450              	.L87:
 207:ctrl_pend.c   ****     if (v < -1.0f)  return  (q31_t)0x80000000;
 1451              		.loc 1 207 0
 1452 00e6 6FF00040 		mvn	r0, #-2147483648
 1453 00ea 01E0     		b	.L81
 1454              	.L88:
ARM GAS  C:\Users\user\AppData\Local\Temp\cc6TIdBD.s 			page 37


 208:ctrl_pend.c   ****     return (q31_t)(v * 2147483648.0f);
 1455              		.loc 1 208 0
 1456 00ec 4FF00040 		mov	r0, #-2147483648
 1457              	.L81:
 1458              	.LVL230:
 1459              	.LBE255:
 1460              	.LBE254:
 405:ctrl_pend.c   **** }
 1461              		.loc 1 405 0
 1462 00f0 C317     		asrs	r3, r0, #31
 1463 00f2 C21B     		subs	r2, r0, r7
 1464 00f4 63EBE773 		sbc	r3, r3, r7, asr #31
 1465              	.LVL231:
 1466              	.LBB256:
 1467              	.LBB257:
 240:ctrl_pend.c   ****     if (v < (q63_t)0xFFFFFFFF80000000LL) return (q31_t)0x80000000;
 1468              		.loc 1 240 0
 1469 00f8 B2F1004F 		cmp	r2, #-2147483648
 1470 00fc 73F10001 		sbcs	r1, r3, #0
 1471 0100 06DA     		bge	.L89
 241:ctrl_pend.c   ****     return (q31_t)v;
 1472              		.loc 1 241 0
 1473 0102 B2F1004F 		cmp	r2, #-2147483648
 1474 0106 73F1FF33 		sbcs	r3, r3, #-1
 1475 010a 04DB     		blt	.L90
 242:ctrl_pend.c   **** }
 1476              		.loc 1 242 0
 1477 010c 401B     		subs	r0, r0, r5
 1478 010e 04E0     		b	.L82
 1479              	.L89:
 240:ctrl_pend.c   ****     if (v < (q63_t)0xFFFFFFFF80000000LL) return (q31_t)0x80000000;
 1480              		.loc 1 240 0
 1481 0110 6FF00040 		mvn	r0, #-2147483648
 1482 0114 01E0     		b	.L82
 1483              	.L90:
 241:ctrl_pend.c   ****     return (q31_t)v;
 1484              		.loc 1 241 0
 1485 0116 4FF00040 		mov	r0, #-2147483648
 1486              	.L82:
 1487              	.LVL232:
 1488              	.LBE257:
 1489              	.LBE256:
 1490              	.LBB258:
 1491              	.LBB259:
 213:ctrl_pend.c   **** }
 1492              		.loc 1 213 0
 1493 011a FFF7FEFF 		bl	__aeabi_i2f
 1494              	.LVL233:
 1495 011e 4FF04051 		mov	r1, #805306368
 1496 0122 FFF7FEFF 		bl	__aeabi_fmul
 1497              	.LVL234:
 1498              	.LBE259:
 1499              	.LBE258:
 405:ctrl_pend.c   **** }
 1500              		.loc 1 405 0
 1501 0126 0146     		mov	r1, r0
 1502 0128 3046     		mov	r0, r6
ARM GAS  C:\Users\user\AppData\Local\Temp\cc6TIdBD.s 			page 38


 1503 012a FFF7FEFF 		bl	__aeabi_fmul
 1504              	.LVL235:
 406:ctrl_pend.c   **** 
 1505              		.loc 1 406 0
 1506 012e 05B0     		add	sp, sp, #20
 1507              		.cfi_def_cfa_offset 20
 1508              		@ sp needed
 1509 0130 F0BD     		pop	{r4, r5, r6, r7, pc}
 1510              	.LVL236:
 1511              	.L93:
 1512 0132 00BF     		.align	2
 1513              	.L92:
 1514 0134 000080BF 		.word	-1082130432
 1515              		.cfi_endproc
 1516              	.LFE140:
 1517              		.size	ss_u_cmd_q31, .-ss_u_cmd_q31
 1518              		.section	.text.ss_yhat_q15,"ax",%progbits
 1519              		.align	2
 1520              		.thumb
 1521              		.thumb_func
 1522              		.type	ss_yhat_q15, %function
 1523              	ss_yhat_q15:
 1524              	.LFB144:
 458:ctrl_pend.c   **** }
 459:ctrl_pend.c   **** 
 460:ctrl_pend.c   **** /* ============================================================
 461:ctrl_pend.c   ****    SS helpers — Q15
 462:ctrl_pend.c   ****    arm_dot_prod_q15: resultado 34.30 → >>15 para Q15
 463:ctrl_pend.c   ****    arm_scale_q15(..., shift=0): (src × scaleFract) >> 15 → Q15
 464:ctrl_pend.c   ****    arm_add_q15: suma saturada Q15
 465:ctrl_pend.c   ****    ============================================================ */
 466:ctrl_pend.c   **** 
 467:ctrl_pend.c   **** static float ss_yhat_q15(CtrlLoop *lp, const float x[2], float u)
 468:ctrl_pend.c   **** {
 1525              		.loc 1 468 0
 1526              		.cfi_startproc
 1527              		@ args = 0, pretend = 0, frame = 16
 1528              		@ frame_needed = 0, uses_anonymous_args = 0
 1529              	.LVL237:
 1530 0000 2DE9F041 		push	{r4, r5, r6, r7, r8, lr}
 1531              		.cfi_def_cfa_offset 24
 1532              		.cfi_offset 4, -24
 1533              		.cfi_offset 5, -20
 1534              		.cfi_offset 6, -16
 1535              		.cfi_offset 7, -12
 1536              		.cfi_offset 8, -8
 1537              		.cfi_offset 14, -4
 1538 0004 84B0     		sub	sp, sp, #16
 1539              		.cfi_def_cfa_offset 40
 1540 0006 0546     		mov	r5, r0
 1541 0008 0E46     		mov	r6, r1
 1542 000a 1746     		mov	r7, r2
 469:ctrl_pend.c   ****     float qs = lp->q_scale;
 1543              		.loc 1 469 0
 1544 000c D0F8A440 		ldr	r4, [r0, #164]	@ float
 1545              	.LVL238:
 470:ctrl_pend.c   ****     q15_t xq[2];
ARM GAS  C:\Users\user\AppData\Local\Temp\cc6TIdBD.s 			page 39


 471:ctrl_pend.c   ****     q63_t dot;
 472:ctrl_pend.c   **** 
 473:ctrl_pend.c   ****     xq[0] = flt_to_q15n(x[0] / qs);
 1546              		.loc 1 473 0
 1547 0010 2146     		mov	r1, r4
 1548              	.LVL239:
 1549 0012 3068     		ldr	r0, [r6]	@ float
 1550              	.LVL240:
 1551 0014 FFF7FEFF 		bl	__aeabi_fdiv
 1552              	.LVL241:
 1553 0018 8046     		mov	r8, r0
 1554              	.LVL242:
 1555              	.LBB260:
 1556              	.LBB261:
 218:ctrl_pend.c   ****     if (v < -1.0f)  return  (q15_t)0x8000;
 1557              		.loc 1 218 0
 1558 001a 4FF07E51 		mov	r1, #1065353216
 1559 001e FFF7FEFF 		bl	__aeabi_fcmpge
 1560              	.LVL243:
 1561 0022 68B9     		cbnz	r0, .L101
 219:ctrl_pend.c   ****     return (q15_t)(v * 32768.0f);
 1562              		.loc 1 219 0
 1563 0024 4849     		ldr	r1, .L114
 1564 0026 4046     		mov	r0, r8
 1565 0028 FFF7FEFF 		bl	__aeabi_fcmplt
 1566              	.LVL244:
 1567 002c 58B9     		cbnz	r0, .L102
 220:ctrl_pend.c   **** }
 1568              		.loc 1 220 0
 1569 002e 4FF08E41 		mov	r1, #1191182336
 1570 0032 4046     		mov	r0, r8
 1571 0034 FFF7FEFF 		bl	__aeabi_fmul
 1572              	.LVL245:
 1573 0038 FFF7FEFF 		bl	__aeabi_f2iz
 1574              	.LVL246:
 1575 003c 00B2     		sxth	r0, r0
 1576 003e 03E0     		b	.L95
 1577              	.L101:
 218:ctrl_pend.c   ****     if (v < -1.0f)  return  (q15_t)0x8000;
 1578              		.loc 1 218 0
 1579 0040 47F6FF70 		movw	r0, #32767
 1580 0044 00E0     		b	.L95
 1581              	.L102:
 219:ctrl_pend.c   ****     return (q15_t)(v * 32768.0f);
 1582              		.loc 1 219 0
 1583 0046 4148     		ldr	r0, .L114+4
 1584              	.L95:
 1585              	.LVL247:
 1586              	.LBE261:
 1587              	.LBE260:
 1588              		.loc 1 473 0
 1589 0048 ADF80C00 		strh	r0, [sp, #12]	@ movhi
 474:ctrl_pend.c   ****     xq[1] = flt_to_q15n(x[1] / qs);
 1590              		.loc 1 474 0
 1591 004c 2146     		mov	r1, r4
 1592 004e 7068     		ldr	r0, [r6, #4]	@ float
 1593 0050 FFF7FEFF 		bl	__aeabi_fdiv
ARM GAS  C:\Users\user\AppData\Local\Temp\cc6TIdBD.s 			page 40


 1594              	.LVL248:
 1595 0054 0646     		mov	r6, r0
 1596              	.LVL249:
 1597              	.LBB262:
 1598              	.LBB263:
 218:ctrl_pend.c   ****     if (v < -1.0f)  return  (q15_t)0x8000;
 1599              		.loc 1 218 0
 1600 0056 4FF07E51 		mov	r1, #1065353216
 1601 005a FFF7FEFF 		bl	__aeabi_fcmpge
 1602              	.LVL250:
 1603 005e 68B9     		cbnz	r0, .L103
 219:ctrl_pend.c   ****     return (q15_t)(v * 32768.0f);
 1604              		.loc 1 219 0
 1605 0060 3949     		ldr	r1, .L114
 1606 0062 3046     		mov	r0, r6
 1607 0064 FFF7FEFF 		bl	__aeabi_fcmplt
 1608              	.LVL251:
 1609 0068 58B9     		cbnz	r0, .L104
 220:ctrl_pend.c   **** }
 1610              		.loc 1 220 0
 1611 006a 4FF08E41 		mov	r1, #1191182336
 1612 006e 3046     		mov	r0, r6
 1613 0070 FFF7FEFF 		bl	__aeabi_fmul
 1614              	.LVL252:
 1615 0074 FFF7FEFF 		bl	__aeabi_f2iz
 1616              	.LVL253:
 1617 0078 00B2     		sxth	r0, r0
 1618 007a 03E0     		b	.L96
 1619              	.L103:
 218:ctrl_pend.c   ****     if (v < -1.0f)  return  (q15_t)0x8000;
 1620              		.loc 1 218 0
 1621 007c 47F6FF70 		movw	r0, #32767
 1622 0080 00E0     		b	.L96
 1623              	.L104:
 219:ctrl_pend.c   ****     return (q15_t)(v * 32768.0f);
 1624              		.loc 1 219 0
 1625 0082 3248     		ldr	r0, .L114+4
 1626              	.L96:
 1627              	.LVL254:
 1628              	.LBE263:
 1629              	.LBE262:
 1630              		.loc 1 474 0
 1631 0084 ADF80E00 		strh	r0, [sp, #14]	@ movhi
 475:ctrl_pend.c   ****     q15_t uq = flt_to_q15n(u / qs);
 1632              		.loc 1 475 0
 1633 0088 2146     		mov	r1, r4
 1634 008a 3846     		mov	r0, r7
 1635 008c FFF7FEFF 		bl	__aeabi_fdiv
 1636              	.LVL255:
 1637 0090 0646     		mov	r6, r0
 1638              	.LVL256:
 1639              	.LBB264:
 1640              	.LBB265:
 218:ctrl_pend.c   ****     if (v < -1.0f)  return  (q15_t)0x8000;
 1641              		.loc 1 218 0
 1642 0092 4FF07E51 		mov	r1, #1065353216
 1643 0096 FFF7FEFF 		bl	__aeabi_fcmpge
ARM GAS  C:\Users\user\AppData\Local\Temp\cc6TIdBD.s 			page 41


 1644              	.LVL257:
 1645 009a 68B9     		cbnz	r0, .L105
 219:ctrl_pend.c   ****     return (q15_t)(v * 32768.0f);
 1646              		.loc 1 219 0
 1647 009c 2A49     		ldr	r1, .L114
 1648 009e 3046     		mov	r0, r6
 1649 00a0 FFF7FEFF 		bl	__aeabi_fcmplt
 1650              	.LVL258:
 1651 00a4 58B9     		cbnz	r0, .L106
 220:ctrl_pend.c   **** }
 1652              		.loc 1 220 0
 1653 00a6 4FF08E41 		mov	r1, #1191182336
 1654 00aa 3046     		mov	r0, r6
 1655 00ac FFF7FEFF 		bl	__aeabi_fmul
 1656              	.LVL259:
 1657 00b0 FFF7FEFF 		bl	__aeabi_f2iz
 1658              	.LVL260:
 1659 00b4 06B2     		sxth	r6, r0
 1660              	.LVL261:
 1661 00b6 03E0     		b	.L97
 1662              	.LVL262:
 1663              	.L105:
 218:ctrl_pend.c   ****     if (v < -1.0f)  return  (q15_t)0x8000;
 1664              		.loc 1 218 0
 1665 00b8 47F6FF76 		movw	r6, #32767
 1666              	.LVL263:
 1667 00bc 00E0     		b	.L97
 1668              	.LVL264:
 1669              	.L106:
 219:ctrl_pend.c   ****     return (q15_t)(v * 32768.0f);
 1670              		.loc 1 219 0
 1671 00be 234E     		ldr	r6, .L114+4
 1672              	.LVL265:
 1673              	.L97:
 1674              	.LBE265:
 1675              	.LBE264:
 476:ctrl_pend.c   **** 
 477:ctrl_pend.c   ****     arm_dot_prod_q15(lp->qC15, xq, 2u, &dot);
 1676              		.loc 1 477 0
 1677 00c0 6B46     		mov	r3, sp
 1678 00c2 0222     		movs	r2, #2
 1679 00c4 03A9     		add	r1, sp, #12
 1680 00c6 05F1EC00 		add	r0, r5, #236
 1681 00ca FFF7FEFF 		bl	arm_dot_prod_q15
 1682              	.LVL266:
 478:ctrl_pend.c   ****     q15_t Cx = qsat15((q31_t)(dot >> 15));
 1683              		.loc 1 478 0
 1684 00ce 009B     		ldr	r3, [sp]
 1685 00d0 DB0B     		lsrs	r3, r3, #15
 1686 00d2 019A     		ldr	r2, [sp, #4]
 1687 00d4 43EA4243 		orr	r3, r3, r2, lsl #17
 1688              	.LVL267:
 1689              	.LBB266:
 1690              	.LBB267:
 245:ctrl_pend.c   ****     if (v < (q31_t)0xFFFF8000) return (q15_t)0x8000;
 1691              		.loc 1 245 0
 1692 00d8 B3F5004F 		cmp	r3, #32768
ARM GAS  C:\Users\user\AppData\Local\Temp\cc6TIdBD.s 			page 42


 1693 00dc 04DA     		bge	.L107
 246:ctrl_pend.c   ****     return (q15_t)v;
 1694              		.loc 1 246 0
 1695 00de 13F5004F 		cmn	r3, #32768
 1696 00e2 04DB     		blt	.L108
 247:ctrl_pend.c   **** }
 1697              		.loc 1 247 0
 1698 00e4 18B2     		sxth	r0, r3
 1699 00e6 03E0     		b	.L98
 1700              	.L107:
 245:ctrl_pend.c   ****     if (v < (q31_t)0xFFFF8000) return (q15_t)0x8000;
 1701              		.loc 1 245 0
 1702 00e8 47F6FF70 		movw	r0, #32767
 1703 00ec 00E0     		b	.L98
 1704              	.L108:
 246:ctrl_pend.c   ****     return (q15_t)v;
 1705              		.loc 1 246 0
 1706 00ee 1748     		ldr	r0, .L114+4
 1707              	.L98:
 1708              	.LVL268:
 1709              	.LBE267:
 1710              	.LBE266:
 479:ctrl_pend.c   **** 
 480:ctrl_pend.c   ****     /* D·u: (D_q15 × u_q) >> 15 → Q15 */
 481:ctrl_pend.c   ****     q15_t Du = qsat15((q31_t)((q31_t)lp->qD15 * uq >> 15));
 1711              		.loc 1 481 0
 1712 00f0 B5F9F830 		ldrsh	r3, [r5, #248]
 1713 00f4 03FB06F3 		mul	r3, r3, r6
 1714 00f8 DB13     		asrs	r3, r3, #15
 1715              	.LVL269:
 1716              	.LBB268:
 1717              	.LBB269:
 245:ctrl_pend.c   ****     if (v < (q31_t)0xFFFF8000) return (q15_t)0x8000;
 1718              		.loc 1 245 0
 1719 00fa B3F5004F 		cmp	r3, #32768
 1720 00fe 04DA     		bge	.L109
 246:ctrl_pend.c   ****     return (q15_t)v;
 1721              		.loc 1 246 0
 1722 0100 13F5004F 		cmn	r3, #32768
 1723 0104 04DB     		blt	.L110
 247:ctrl_pend.c   **** }
 1724              		.loc 1 247 0
 1725 0106 1BB2     		sxth	r3, r3
 1726              	.LVL270:
 1727 0108 03E0     		b	.L99
 1728              	.LVL271:
 1729              	.L109:
 245:ctrl_pend.c   ****     if (v < (q31_t)0xFFFF8000) return (q15_t)0x8000;
 1730              		.loc 1 245 0
 1731 010a 47F6FF73 		movw	r3, #32767
 1732              	.LVL272:
 1733 010e 00E0     		b	.L99
 1734              	.LVL273:
 1735              	.L110:
 246:ctrl_pend.c   ****     return (q15_t)v;
 1736              		.loc 1 246 0
 1737 0110 0E4B     		ldr	r3, .L114+4
ARM GAS  C:\Users\user\AppData\Local\Temp\cc6TIdBD.s 			page 43


 1738              	.LVL274:
 1739              	.L99:
 1740              	.LBE269:
 1741              	.LBE268:
 482:ctrl_pend.c   **** 
 483:ctrl_pend.c   ****     return q15_to_flt(qsat15((q31_t)Cx + Du)) * qs;
 1742              		.loc 1 483 0
 1743 0112 1A18     		adds	r2, r3, r0
 1744              	.LVL275:
 1745              	.LBB270:
 1746              	.LBB271:
 245:ctrl_pend.c   ****     if (v < (q31_t)0xFFFF8000) return (q15_t)0x8000;
 1747              		.loc 1 245 0
 1748 0114 B2F5004F 		cmp	r2, #32768
 1749 0118 04DA     		bge	.L111
 246:ctrl_pend.c   ****     return (q15_t)v;
 1750              		.loc 1 246 0
 1751 011a 12F5004F 		cmn	r2, #32768
 1752 011e 04DB     		blt	.L112
 247:ctrl_pend.c   **** }
 1753              		.loc 1 247 0
 1754 0120 10B2     		sxth	r0, r2
 1755 0122 03E0     		b	.L100
 1756              	.L111:
 245:ctrl_pend.c   ****     if (v < (q31_t)0xFFFF8000) return (q15_t)0x8000;
 1757              		.loc 1 245 0
 1758 0124 47F6FF70 		movw	r0, #32767
 1759 0128 00E0     		b	.L100
 1760              	.L112:
 246:ctrl_pend.c   ****     return (q15_t)v;
 1761              		.loc 1 246 0
 1762 012a 0848     		ldr	r0, .L114+4
 1763              	.L100:
 1764              	.LVL276:
 1765              	.LBE271:
 1766              	.LBE270:
 1767              	.LBB272:
 1768              	.LBB273:
 224:ctrl_pend.c   **** }
 1769              		.loc 1 224 0
 1770 012c FFF7FEFF 		bl	__aeabi_i2f
 1771              	.LVL277:
 1772 0130 4FF06051 		mov	r1, #939524096
 1773 0134 FFF7FEFF 		bl	__aeabi_fmul
 1774              	.LVL278:
 1775              	.LBE273:
 1776              	.LBE272:
 1777              		.loc 1 483 0
 1778 0138 0146     		mov	r1, r0
 1779 013a 2046     		mov	r0, r4
 1780 013c FFF7FEFF 		bl	__aeabi_fmul
 1781              	.LVL279:
 484:ctrl_pend.c   **** }
 1782              		.loc 1 484 0
 1783 0140 04B0     		add	sp, sp, #16
 1784              		.cfi_def_cfa_offset 24
 1785              		@ sp needed
ARM GAS  C:\Users\user\AppData\Local\Temp\cc6TIdBD.s 			page 44


 1786 0142 BDE8F081 		pop	{r4, r5, r6, r7, r8, pc}
 1787              	.LVL280:
 1788              	.L115:
 1789 0146 00BF     		.align	2
 1790              	.L114:
 1791 0148 000080BF 		.word	-1082130432
 1792 014c 0080FFFF 		.word	-32768
 1793              		.cfi_endproc
 1794              	.LFE144:
 1795              		.size	ss_yhat_q15, .-ss_yhat_q15
 1796              		.section	.text.ss_obs_act_correct_q15,"ax",%progbits
 1797              		.align	2
 1798              		.thumb
 1799              		.thumb_func
 1800              		.type	ss_obs_act_correct_q15, %function
 1801              	ss_obs_act_correct_q15:
 1802              	.LFB148:
 485:ctrl_pend.c   **** 
 486:ctrl_pend.c   **** static void ss_predict_q15(CtrlLoop *lp, const float x[2], float u, float z[2])
 487:ctrl_pend.c   **** {
 488:ctrl_pend.c   ****     float qs = lp->q_scale;
 489:ctrl_pend.c   ****     q15_t xq[2], Buq[2];
 490:ctrl_pend.c   ****     q63_t dot;
 491:ctrl_pend.c   **** 
 492:ctrl_pend.c   ****     xq[0] = flt_to_q15n(x[0] / qs);
 493:ctrl_pend.c   ****     xq[1] = flt_to_q15n(x[1] / qs);
 494:ctrl_pend.c   ****     q15_t uq = flt_to_q15n(u / qs);
 495:ctrl_pend.c   **** 
 496:ctrl_pend.c   ****     /* B·u: arm_scale_q15 escala el vector B por escalar u */
 497:ctrl_pend.c   ****     arm_scale_q15(lp->qB15, uq, 0, Buq, 2u);
 498:ctrl_pend.c   **** 
 499:ctrl_pend.c   ****     arm_dot_prod_q15(&lp->qA15[0], xq, 2u, &dot);
 500:ctrl_pend.c   ****     q15_t Ax0 = qsat15((q31_t)(dot >> 15));
 501:ctrl_pend.c   ****     z[0] = q15_to_flt(qsat15((q31_t)Ax0 + Buq[0])) * qs;
 502:ctrl_pend.c   **** 
 503:ctrl_pend.c   ****     arm_dot_prod_q15(&lp->qA15[2], xq, 2u, &dot);
 504:ctrl_pend.c   ****     q15_t Ax1 = qsat15((q31_t)(dot >> 15));
 505:ctrl_pend.c   ****     z[1] = q15_to_flt(qsat15((q31_t)Ax1 + Buq[1])) * qs;
 506:ctrl_pend.c   **** }
 507:ctrl_pend.c   **** 
 508:ctrl_pend.c   **** static float ss_u_cmd_q15(CtrlLoop *lp)
 509:ctrl_pend.c   **** {
 510:ctrl_pend.c   ****     float qs = lp->q_scale;
 511:ctrl_pend.c   ****     q15_t xhat_q[2];
 512:ctrl_pend.c   ****     q63_t dot;
 513:ctrl_pend.c   **** 
 514:ctrl_pend.c   ****     xhat_q[0] = flt_to_q15n(lp->xhat[0] / qs);
 515:ctrl_pend.c   ****     xhat_q[1] = flt_to_q15n(lp->xhat[1] / qs);
 516:ctrl_pend.c   **** 
 517:ctrl_pend.c   ****     arm_dot_prod_q15(lp->qK15, xhat_q, 2u, &dot);
 518:ctrl_pend.c   ****     q15_t kx = qsat15((q31_t)(dot >> 15));
 519:ctrl_pend.c   **** 
 520:ctrl_pend.c   ****     float extra_f = mode_has_i(lp->mode) ? (lp->Kx * lp->vint)
 521:ctrl_pend.c   ****                                          : (lp->Kx * lp->ref);
 522:ctrl_pend.c   ****     q15_t extra_q = flt_to_q15n(extra_f / qs);
 523:ctrl_pend.c   **** 
 524:ctrl_pend.c   ****     return q15_to_flt(qsat15((q31_t)extra_q - kx)) * qs;
ARM GAS  C:\Users\user\AppData\Local\Temp\cc6TIdBD.s 			page 45


 525:ctrl_pend.c   **** }
 526:ctrl_pend.c   **** 
 527:ctrl_pend.c   **** static void ss_obs_pred_q15(CtrlLoop *lp, float y, float u_prev, float u_k)
 528:ctrl_pend.c   **** {
 529:ctrl_pend.c   ****     float qs = lp->q_scale;
 530:ctrl_pend.c   **** 
 531:ctrl_pend.c   ****     float innov = y - ss_yhat_q15(lp, lp->xhat, u_prev);
 532:ctrl_pend.c   ****     q15_t innov_q = flt_to_q15n(innov / qs);
 533:ctrl_pend.c   **** 
 534:ctrl_pend.c   ****     float z[2];
 535:ctrl_pend.c   ****     ss_predict_q15(lp, lp->xhat, u_k, z);
 536:ctrl_pend.c   **** 
 537:ctrl_pend.c   ****     q15_t Linv[2];
 538:ctrl_pend.c   ****     arm_scale_q15(lp->qL15, innov_q, 0, Linv, 2u);
 539:ctrl_pend.c   **** 
 540:ctrl_pend.c   ****     q15_t zq[2];
 541:ctrl_pend.c   ****     zq[0] = flt_to_q15n(z[0] / qs);
 542:ctrl_pend.c   ****     zq[1] = flt_to_q15n(z[1] / qs);
 543:ctrl_pend.c   ****     q15_t xhat_q[2];
 544:ctrl_pend.c   ****     arm_add_q15(zq, Linv, xhat_q, 2u);
 545:ctrl_pend.c   **** 
 546:ctrl_pend.c   ****     lp->xhat[0] = q15_to_flt(xhat_q[0]) * qs;
 547:ctrl_pend.c   ****     lp->xhat[1] = q15_to_flt(xhat_q[1]) * qs;
 548:ctrl_pend.c   **** }
 549:ctrl_pend.c   **** 
 550:ctrl_pend.c   **** static void ss_obs_act_correct_q15(CtrlLoop *lp, float y, float u_prev)
 551:ctrl_pend.c   **** {
 1803              		.loc 1 551 0
 1804              		.cfi_startproc
 1805              		@ args = 0, pretend = 0, frame = 16
 1806              		@ frame_needed = 0, uses_anonymous_args = 0
 1807              	.LVL281:
 1808 0000 70B5     		push	{r4, r5, r6, lr}
 1809              		.cfi_def_cfa_offset 16
 1810              		.cfi_offset 4, -16
 1811              		.cfi_offset 5, -12
 1812              		.cfi_offset 6, -8
 1813              		.cfi_offset 14, -4
 1814 0002 86B0     		sub	sp, sp, #24
 1815              		.cfi_def_cfa_offset 40
 1816 0004 0446     		mov	r4, r0
 1817 0006 0E46     		mov	r6, r1
 552:ctrl_pend.c   ****     float qs = lp->q_scale;
 1818              		.loc 1 552 0
 1819 0008 D0F8A450 		ldr	r5, [r0, #164]	@ float
 1820              	.LVL282:
 553:ctrl_pend.c   **** 
 554:ctrl_pend.c   ****     float innov = y - ss_yhat_q15(lp, lp->zhat, u_prev);
 1821              		.loc 1 554 0
 1822 000c 00F18801 		add	r1, r0, #136
 1823              	.LVL283:
 1824 0010 FFF7FEFF 		bl	ss_yhat_q15
 1825              	.LVL284:
 1826 0014 0146     		mov	r1, r0
 1827 0016 3046     		mov	r0, r6
 1828 0018 FFF7FEFF 		bl	__aeabi_fsub
 1829              	.LVL285:
ARM GAS  C:\Users\user\AppData\Local\Temp\cc6TIdBD.s 			page 46


 555:ctrl_pend.c   ****     q15_t innov_q = flt_to_q15n(innov / qs);
 1830              		.loc 1 555 0
 1831 001c 2946     		mov	r1, r5
 1832 001e FFF7FEFF 		bl	__aeabi_fdiv
 1833              	.LVL286:
 1834 0022 0646     		mov	r6, r0
 1835              	.LVL287:
 1836              	.LBB274:
 1837              	.LBB275:
 218:ctrl_pend.c   ****     if (v < -1.0f)  return  (q15_t)0x8000;
 1838              		.loc 1 218 0
 1839 0024 4FF07E51 		mov	r1, #1065353216
 1840 0028 FFF7FEFF 		bl	__aeabi_fcmpge
 1841              	.LVL288:
 1842 002c 68B9     		cbnz	r0, .L120
 219:ctrl_pend.c   ****     return (q15_t)(v * 32768.0f);
 1843              		.loc 1 219 0
 1844 002e 3E49     		ldr	r1, .L127
 1845 0030 3046     		mov	r0, r6
 1846 0032 FFF7FEFF 		bl	__aeabi_fcmplt
 1847              	.LVL289:
 1848 0036 58B9     		cbnz	r0, .L121
 220:ctrl_pend.c   **** }
 1849              		.loc 1 220 0
 1850 0038 4FF08E41 		mov	r1, #1191182336
 1851 003c 3046     		mov	r0, r6
 1852 003e FFF7FEFF 		bl	__aeabi_fmul
 1853              	.LVL290:
 1854 0042 FFF7FEFF 		bl	__aeabi_f2iz
 1855              	.LVL291:
 1856 0046 01B2     		sxth	r1, r0
 1857 0048 03E0     		b	.L117
 1858              	.L120:
 218:ctrl_pend.c   ****     if (v < -1.0f)  return  (q15_t)0x8000;
 1859              		.loc 1 218 0
 1860 004a 47F6FF71 		movw	r1, #32767
 1861 004e 00E0     		b	.L117
 1862              	.L121:
 219:ctrl_pend.c   ****     return (q15_t)(v * 32768.0f);
 1863              		.loc 1 219 0
 1864 0050 3649     		ldr	r1, .L127+4
 1865              	.L117:
 1866              	.LVL292:
 1867              	.LBE275:
 1868              	.LBE274:
 556:ctrl_pend.c   **** 
 557:ctrl_pend.c   ****     q15_t Linv[2];
 558:ctrl_pend.c   ****     arm_scale_q15(lp->qL15, innov_q, 0, Linv, 2u);
 1869              		.loc 1 558 0
 1870 0052 0223     		movs	r3, #2
 1871 0054 0093     		str	r3, [sp]
 1872 0056 05AB     		add	r3, sp, #20
 1873 0058 0022     		movs	r2, #0
 1874 005a 04F1F400 		add	r0, r4, #244
 1875 005e FFF7FEFF 		bl	arm_scale_q15
 1876              	.LVL293:
 559:ctrl_pend.c   **** 
ARM GAS  C:\Users\user\AppData\Local\Temp\cc6TIdBD.s 			page 47


 560:ctrl_pend.c   ****     q15_t zhat_q[2];
 561:ctrl_pend.c   ****     zhat_q[0] = flt_to_q15n(lp->zhat[0] / qs);
 1877              		.loc 1 561 0
 1878 0062 2946     		mov	r1, r5
 1879 0064 D4F88800 		ldr	r0, [r4, #136]	@ float
 1880 0068 FFF7FEFF 		bl	__aeabi_fdiv
 1881              	.LVL294:
 1882 006c 0646     		mov	r6, r0
 1883              	.LVL295:
 1884              	.LBB276:
 1885              	.LBB277:
 218:ctrl_pend.c   ****     if (v < -1.0f)  return  (q15_t)0x8000;
 1886              		.loc 1 218 0
 1887 006e 4FF07E51 		mov	r1, #1065353216
 1888 0072 FFF7FEFF 		bl	__aeabi_fcmpge
 1889              	.LVL296:
 1890 0076 68B9     		cbnz	r0, .L122
 219:ctrl_pend.c   ****     return (q15_t)(v * 32768.0f);
 1891              		.loc 1 219 0
 1892 0078 2B49     		ldr	r1, .L127
 1893 007a 3046     		mov	r0, r6
 1894 007c FFF7FEFF 		bl	__aeabi_fcmplt
 1895              	.LVL297:
 1896 0080 58B9     		cbnz	r0, .L123
 220:ctrl_pend.c   **** }
 1897              		.loc 1 220 0
 1898 0082 4FF08E41 		mov	r1, #1191182336
 1899 0086 3046     		mov	r0, r6
 1900 0088 FFF7FEFF 		bl	__aeabi_fmul
 1901              	.LVL298:
 1902 008c FFF7FEFF 		bl	__aeabi_f2iz
 1903              	.LVL299:
 1904 0090 00B2     		sxth	r0, r0
 1905 0092 03E0     		b	.L118
 1906              	.L122:
 218:ctrl_pend.c   ****     if (v < -1.0f)  return  (q15_t)0x8000;
 1907              		.loc 1 218 0
 1908 0094 47F6FF70 		movw	r0, #32767
 1909 0098 00E0     		b	.L118
 1910              	.L123:
 219:ctrl_pend.c   ****     return (q15_t)(v * 32768.0f);
 1911              		.loc 1 219 0
 1912 009a 2448     		ldr	r0, .L127+4
 1913              	.L118:
 1914              	.LVL300:
 1915              	.LBE277:
 1916              	.LBE276:
 1917              		.loc 1 561 0
 1918 009c ADF81000 		strh	r0, [sp, #16]	@ movhi
 562:ctrl_pend.c   ****     zhat_q[1] = flt_to_q15n(lp->zhat[1] / qs);
 1919              		.loc 1 562 0
 1920 00a0 2946     		mov	r1, r5
 1921 00a2 D4F88C00 		ldr	r0, [r4, #140]	@ float
 1922 00a6 FFF7FEFF 		bl	__aeabi_fdiv
 1923              	.LVL301:
 1924 00aa 0646     		mov	r6, r0
 1925              	.LVL302:
ARM GAS  C:\Users\user\AppData\Local\Temp\cc6TIdBD.s 			page 48


 1926              	.LBB278:
 1927              	.LBB279:
 218:ctrl_pend.c   ****     if (v < -1.0f)  return  (q15_t)0x8000;
 1928              		.loc 1 218 0
 1929 00ac 4FF07E51 		mov	r1, #1065353216
 1930 00b0 FFF7FEFF 		bl	__aeabi_fcmpge
 1931              	.LVL303:
 1932 00b4 68B9     		cbnz	r0, .L124
 219:ctrl_pend.c   ****     return (q15_t)(v * 32768.0f);
 1933              		.loc 1 219 0
 1934 00b6 1C49     		ldr	r1, .L127
 1935 00b8 3046     		mov	r0, r6
 1936 00ba FFF7FEFF 		bl	__aeabi_fcmplt
 1937              	.LVL304:
 1938 00be 58B9     		cbnz	r0, .L125
 220:ctrl_pend.c   **** }
 1939              		.loc 1 220 0
 1940 00c0 4FF08E41 		mov	r1, #1191182336
 1941 00c4 3046     		mov	r0, r6
 1942 00c6 FFF7FEFF 		bl	__aeabi_fmul
 1943              	.LVL305:
 1944 00ca FFF7FEFF 		bl	__aeabi_f2iz
 1945              	.LVL306:
 1946 00ce 00B2     		sxth	r0, r0
 1947 00d0 03E0     		b	.L119
 1948              	.L124:
 218:ctrl_pend.c   ****     if (v < -1.0f)  return  (q15_t)0x8000;
 1949              		.loc 1 218 0
 1950 00d2 47F6FF70 		movw	r0, #32767
 1951 00d6 00E0     		b	.L119
 1952              	.L125:
 219:ctrl_pend.c   ****     return (q15_t)(v * 32768.0f);
 1953              		.loc 1 219 0
 1954 00d8 1448     		ldr	r0, .L127+4
 1955              	.L119:
 1956              	.LVL307:
 1957              	.LBE279:
 1958              	.LBE278:
 1959              		.loc 1 562 0
 1960 00da ADF81200 		strh	r0, [sp, #18]	@ movhi
 563:ctrl_pend.c   ****     q15_t xhat_q[2];
 564:ctrl_pend.c   ****     arm_add_q15(zhat_q, Linv, xhat_q, 2u);
 1961              		.loc 1 564 0
 1962 00de 0223     		movs	r3, #2
 1963 00e0 03AA     		add	r2, sp, #12
 1964 00e2 05A9     		add	r1, sp, #20
 1965 00e4 04A8     		add	r0, sp, #16
 1966 00e6 FFF7FEFF 		bl	arm_add_q15
 1967              	.LVL308:
 1968              	.LBB280:
 1969              	.LBB281:
 224:ctrl_pend.c   **** }
 1970              		.loc 1 224 0
 1971 00ea BDF90C00 		ldrsh	r0, [sp, #12]
 1972 00ee FFF7FEFF 		bl	__aeabi_i2f
 1973              	.LVL309:
 1974 00f2 4FF06051 		mov	r1, #939524096
ARM GAS  C:\Users\user\AppData\Local\Temp\cc6TIdBD.s 			page 49


 1975 00f6 FFF7FEFF 		bl	__aeabi_fmul
 1976              	.LVL310:
 1977              	.LBE281:
 1978              	.LBE280:
 565:ctrl_pend.c   **** 
 566:ctrl_pend.c   ****     lp->xhat[0] = q15_to_flt(xhat_q[0]) * qs;
 1979              		.loc 1 566 0
 1980 00fa 0146     		mov	r1, r0
 1981 00fc 2846     		mov	r0, r5
 1982 00fe FFF7FEFF 		bl	__aeabi_fmul
 1983              	.LVL311:
 1984 0102 C4F88000 		str	r0, [r4, #128]	@ float
 1985              	.LVL312:
 1986              	.LBB282:
 1987              	.LBB283:
 224:ctrl_pend.c   **** }
 1988              		.loc 1 224 0
 1989 0106 BDF90E00 		ldrsh	r0, [sp, #14]
 1990 010a FFF7FEFF 		bl	__aeabi_i2f
 1991              	.LVL313:
 1992 010e 4FF06051 		mov	r1, #939524096
 1993 0112 FFF7FEFF 		bl	__aeabi_fmul
 1994              	.LVL314:
 1995              	.LBE283:
 1996              	.LBE282:
 567:ctrl_pend.c   ****     lp->xhat[1] = q15_to_flt(xhat_q[1]) * qs;
 1997              		.loc 1 567 0
 1998 0116 0146     		mov	r1, r0
 1999 0118 2846     		mov	r0, r5
 2000 011a FFF7FEFF 		bl	__aeabi_fmul
 2001              	.LVL315:
 2002 011e C4F88400 		str	r0, [r4, #132]	@ float
 568:ctrl_pend.c   **** }
 2003              		.loc 1 568 0
 2004 0122 06B0     		add	sp, sp, #24
 2005              		.cfi_def_cfa_offset 16
 2006              		@ sp needed
 2007 0124 70BD     		pop	{r4, r5, r6, pc}
 2008              	.LVL316:
 2009              	.L128:
 2010 0126 00BF     		.align	2
 2011              	.L127:
 2012 0128 000080BF 		.word	-1082130432
 2013 012c 0080FFFF 		.word	-32768
 2014              		.cfi_endproc
 2015              	.LFE148:
 2016              		.size	ss_obs_act_correct_q15, .-ss_obs_act_correct_q15
 2017              		.section	.text.ss_predict_q15,"ax",%progbits
 2018              		.align	2
 2019              		.thumb
 2020              		.thumb_func
 2021              		.type	ss_predict_q15, %function
 2022              	ss_predict_q15:
 2023              	.LFB145:
 487:ctrl_pend.c   ****     float qs = lp->q_scale;
 2024              		.loc 1 487 0
 2025              		.cfi_startproc
ARM GAS  C:\Users\user\AppData\Local\Temp\cc6TIdBD.s 			page 50


 2026              		@ args = 0, pretend = 0, frame = 16
 2027              		@ frame_needed = 0, uses_anonymous_args = 0
 2028              	.LVL317:
 2029 0000 2DE9F043 		push	{r4, r5, r6, r7, r8, r9, lr}
 2030              		.cfi_def_cfa_offset 28
 2031              		.cfi_offset 4, -28
 2032              		.cfi_offset 5, -24
 2033              		.cfi_offset 6, -20
 2034              		.cfi_offset 7, -16
 2035              		.cfi_offset 8, -12
 2036              		.cfi_offset 9, -8
 2037              		.cfi_offset 14, -4
 2038 0004 87B0     		sub	sp, sp, #28
 2039              		.cfi_def_cfa_offset 56
 2040 0006 0646     		mov	r6, r0
 2041 0008 0F46     		mov	r7, r1
 2042 000a 9046     		mov	r8, r2
 2043 000c 1D46     		mov	r5, r3
 488:ctrl_pend.c   ****     q15_t xq[2], Buq[2];
 2044              		.loc 1 488 0
 2045 000e D0F8A440 		ldr	r4, [r0, #164]	@ float
 2046              	.LVL318:
 492:ctrl_pend.c   ****     xq[1] = flt_to_q15n(x[1] / qs);
 2047              		.loc 1 492 0
 2048 0012 2146     		mov	r1, r4
 2049              	.LVL319:
 2050 0014 3868     		ldr	r0, [r7]	@ float
 2051              	.LVL320:
 2052 0016 FFF7FEFF 		bl	__aeabi_fdiv
 2053              	.LVL321:
 2054 001a 8146     		mov	r9, r0
 2055              	.LVL322:
 2056              	.LBB284:
 2057              	.LBB285:
 218:ctrl_pend.c   ****     if (v < -1.0f)  return  (q15_t)0x8000;
 2058              		.loc 1 218 0
 2059 001c 4FF07E51 		mov	r1, #1065353216
 2060 0020 FFF7FEFF 		bl	__aeabi_fcmpge
 2061              	.LVL323:
 2062 0024 68B9     		cbnz	r0, .L137
 219:ctrl_pend.c   ****     return (q15_t)(v * 32768.0f);
 2063              		.loc 1 219 0
 2064 0026 5E49     		ldr	r1, .L152
 2065 0028 4846     		mov	r0, r9
 2066 002a FFF7FEFF 		bl	__aeabi_fcmplt
 2067              	.LVL324:
 2068 002e 58B9     		cbnz	r0, .L138
 220:ctrl_pend.c   **** }
 2069              		.loc 1 220 0
 2070 0030 4FF08E41 		mov	r1, #1191182336
 2071 0034 4846     		mov	r0, r9
 2072 0036 FFF7FEFF 		bl	__aeabi_fmul
 2073              	.LVL325:
 2074 003a FFF7FEFF 		bl	__aeabi_f2iz
 2075              	.LVL326:
 2076 003e 00B2     		sxth	r0, r0
 2077 0040 03E0     		b	.L130
ARM GAS  C:\Users\user\AppData\Local\Temp\cc6TIdBD.s 			page 51


 2078              	.L137:
 218:ctrl_pend.c   ****     if (v < -1.0f)  return  (q15_t)0x8000;
 2079              		.loc 1 218 0
 2080 0042 47F6FF70 		movw	r0, #32767
 2081 0046 00E0     		b	.L130
 2082              	.L138:
 219:ctrl_pend.c   ****     return (q15_t)(v * 32768.0f);
 2083              		.loc 1 219 0
 2084 0048 5648     		ldr	r0, .L152+4
 2085              	.L130:
 2086              	.LVL327:
 2087              	.LBE285:
 2088              	.LBE284:
 492:ctrl_pend.c   ****     xq[1] = flt_to_q15n(x[1] / qs);
 2089              		.loc 1 492 0
 2090 004a ADF81400 		strh	r0, [sp, #20]	@ movhi
 493:ctrl_pend.c   ****     q15_t uq = flt_to_q15n(u / qs);
 2091              		.loc 1 493 0
 2092 004e 2146     		mov	r1, r4
 2093 0050 7868     		ldr	r0, [r7, #4]	@ float
 2094 0052 FFF7FEFF 		bl	__aeabi_fdiv
 2095              	.LVL328:
 2096 0056 0746     		mov	r7, r0
 2097              	.LVL329:
 2098              	.LBB286:
 2099              	.LBB287:
 218:ctrl_pend.c   ****     if (v < -1.0f)  return  (q15_t)0x8000;
 2100              		.loc 1 218 0
 2101 0058 4FF07E51 		mov	r1, #1065353216
 2102 005c FFF7FEFF 		bl	__aeabi_fcmpge
 2103              	.LVL330:
 2104 0060 68B9     		cbnz	r0, .L139
 219:ctrl_pend.c   ****     return (q15_t)(v * 32768.0f);
 2105              		.loc 1 219 0
 2106 0062 4F49     		ldr	r1, .L152
 2107 0064 3846     		mov	r0, r7
 2108 0066 FFF7FEFF 		bl	__aeabi_fcmplt
 2109              	.LVL331:
 2110 006a 58B9     		cbnz	r0, .L140
 220:ctrl_pend.c   **** }
 2111              		.loc 1 220 0
 2112 006c 4FF08E41 		mov	r1, #1191182336
 2113 0070 3846     		mov	r0, r7
 2114 0072 FFF7FEFF 		bl	__aeabi_fmul
 2115              	.LVL332:
 2116 0076 FFF7FEFF 		bl	__aeabi_f2iz
 2117              	.LVL333:
 2118 007a 00B2     		sxth	r0, r0
 2119 007c 03E0     		b	.L131
 2120              	.L139:
 218:ctrl_pend.c   ****     if (v < -1.0f)  return  (q15_t)0x8000;
 2121              		.loc 1 218 0
 2122 007e 47F6FF70 		movw	r0, #32767
 2123 0082 00E0     		b	.L131
 2124              	.L140:
 219:ctrl_pend.c   ****     return (q15_t)(v * 32768.0f);
 2125              		.loc 1 219 0
ARM GAS  C:\Users\user\AppData\Local\Temp\cc6TIdBD.s 			page 52


 2126 0084 4748     		ldr	r0, .L152+4
 2127              	.L131:
 2128              	.LVL334:
 2129              	.LBE287:
 2130              	.LBE286:
 493:ctrl_pend.c   ****     q15_t uq = flt_to_q15n(u / qs);
 2131              		.loc 1 493 0
 2132 0086 ADF81600 		strh	r0, [sp, #22]	@ movhi
 494:ctrl_pend.c   **** 
 2133              		.loc 1 494 0
 2134 008a 2146     		mov	r1, r4
 2135 008c 4046     		mov	r0, r8
 2136 008e FFF7FEFF 		bl	__aeabi_fdiv
 2137              	.LVL335:
 2138 0092 0746     		mov	r7, r0
 2139              	.LVL336:
 2140              	.LBB288:
 2141              	.LBB289:
 218:ctrl_pend.c   ****     if (v < -1.0f)  return  (q15_t)0x8000;
 2142              		.loc 1 218 0
 2143 0094 4FF07E51 		mov	r1, #1065353216
 2144 0098 FFF7FEFF 		bl	__aeabi_fcmpge
 2145              	.LVL337:
 2146 009c 68B9     		cbnz	r0, .L141
 219:ctrl_pend.c   ****     return (q15_t)(v * 32768.0f);
 2147              		.loc 1 219 0
 2148 009e 4049     		ldr	r1, .L152
 2149 00a0 3846     		mov	r0, r7
 2150 00a2 FFF7FEFF 		bl	__aeabi_fcmplt
 2151              	.LVL338:
 2152 00a6 58B9     		cbnz	r0, .L142
 220:ctrl_pend.c   **** }
 2153              		.loc 1 220 0
 2154 00a8 4FF08E41 		mov	r1, #1191182336
 2155 00ac 3846     		mov	r0, r7
 2156 00ae FFF7FEFF 		bl	__aeabi_fmul
 2157              	.LVL339:
 2158 00b2 FFF7FEFF 		bl	__aeabi_f2iz
 2159              	.LVL340:
 2160 00b6 01B2     		sxth	r1, r0
 2161 00b8 03E0     		b	.L132
 2162              	.L141:
 218:ctrl_pend.c   ****     if (v < -1.0f)  return  (q15_t)0x8000;
 2163              		.loc 1 218 0
 2164 00ba 47F6FF71 		movw	r1, #32767
 2165 00be 00E0     		b	.L132
 2166              	.L142:
 219:ctrl_pend.c   ****     return (q15_t)(v * 32768.0f);
 2167              		.loc 1 219 0
 2168 00c0 3849     		ldr	r1, .L152+4
 2169              	.L132:
 2170              	.LVL341:
 2171              	.LBE289:
 2172              	.LBE288:
 497:ctrl_pend.c   **** 
 2173              		.loc 1 497 0
 2174 00c2 0227     		movs	r7, #2
ARM GAS  C:\Users\user\AppData\Local\Temp\cc6TIdBD.s 			page 53


 2175 00c4 0097     		str	r7, [sp]
 2176 00c6 04AB     		add	r3, sp, #16
 2177 00c8 0022     		movs	r2, #0
 2178 00ca 06F1E800 		add	r0, r6, #232
 2179 00ce FFF7FEFF 		bl	arm_scale_q15
 2180              	.LVL342:
 499:ctrl_pend.c   ****     q15_t Ax0 = qsat15((q31_t)(dot >> 15));
 2181              		.loc 1 499 0
 2182 00d2 02AB     		add	r3, sp, #8
 2183 00d4 3A46     		mov	r2, r7
 2184 00d6 05A9     		add	r1, sp, #20
 2185 00d8 06F1E000 		add	r0, r6, #224
 2186 00dc FFF7FEFF 		bl	arm_dot_prod_q15
 2187              	.LVL343:
 500:ctrl_pend.c   ****     z[0] = q15_to_flt(qsat15((q31_t)Ax0 + Buq[0])) * qs;
 2188              		.loc 1 500 0
 2189 00e0 029B     		ldr	r3, [sp, #8]
 2190 00e2 DB0B     		lsrs	r3, r3, #15
 2191 00e4 039A     		ldr	r2, [sp, #12]
 2192 00e6 43EA4243 		orr	r3, r3, r2, lsl #17
 2193              	.LVL344:
 2194              	.LBB290:
 2195              	.LBB291:
 245:ctrl_pend.c   ****     if (v < (q31_t)0xFFFF8000) return (q15_t)0x8000;
 2196              		.loc 1 245 0
 2197 00ea B3F5004F 		cmp	r3, #32768
 2198 00ee 04DA     		bge	.L143
 246:ctrl_pend.c   ****     return (q15_t)v;
 2199              		.loc 1 246 0
 2200 00f0 13F5004F 		cmn	r3, #32768
 2201 00f4 04DB     		blt	.L144
 247:ctrl_pend.c   **** }
 2202              		.loc 1 247 0
 2203 00f6 1BB2     		sxth	r3, r3
 2204              	.LVL345:
 2205 00f8 03E0     		b	.L133
 2206              	.LVL346:
 2207              	.L143:
 245:ctrl_pend.c   ****     if (v < (q31_t)0xFFFF8000) return (q15_t)0x8000;
 2208              		.loc 1 245 0
 2209 00fa 47F6FF73 		movw	r3, #32767
 2210              	.LVL347:
 2211 00fe 00E0     		b	.L133
 2212              	.LVL348:
 2213              	.L144:
 246:ctrl_pend.c   ****     return (q15_t)v;
 2214              		.loc 1 246 0
 2215 0100 284B     		ldr	r3, .L152+4
 2216              	.LVL349:
 2217              	.L133:
 2218              	.LBE291:
 2219              	.LBE290:
 501:ctrl_pend.c   **** 
 2220              		.loc 1 501 0
 2221 0102 BDF91000 		ldrsh	r0, [sp, #16]
 2222 0106 C218     		adds	r2, r0, r3
 2223              	.LVL350:
ARM GAS  C:\Users\user\AppData\Local\Temp\cc6TIdBD.s 			page 54


 2224              	.LBB292:
 2225              	.LBB293:
 245:ctrl_pend.c   ****     if (v < (q31_t)0xFFFF8000) return (q15_t)0x8000;
 2226              		.loc 1 245 0
 2227 0108 B2F5004F 		cmp	r2, #32768
 2228 010c 04DA     		bge	.L145
 246:ctrl_pend.c   ****     return (q15_t)v;
 2229              		.loc 1 246 0
 2230 010e 12F5004F 		cmn	r2, #32768
 2231 0112 04DB     		blt	.L146
 247:ctrl_pend.c   **** }
 2232              		.loc 1 247 0
 2233 0114 10B2     		sxth	r0, r2
 2234 0116 03E0     		b	.L134
 2235              	.L145:
 245:ctrl_pend.c   ****     if (v < (q31_t)0xFFFF8000) return (q15_t)0x8000;
 2236              		.loc 1 245 0
 2237 0118 47F6FF70 		movw	r0, #32767
 2238 011c 00E0     		b	.L134
 2239              	.L146:
 246:ctrl_pend.c   ****     return (q15_t)v;
 2240              		.loc 1 246 0
 2241 011e 2148     		ldr	r0, .L152+4
 2242              	.L134:
 2243              	.LVL351:
 2244              	.LBE293:
 2245              	.LBE292:
 2246              	.LBB294:
 2247              	.LBB295:
 224:ctrl_pend.c   **** }
 2248              		.loc 1 224 0
 2249 0120 FFF7FEFF 		bl	__aeabi_i2f
 2250              	.LVL352:
 2251 0124 4FF06051 		mov	r1, #939524096
 2252 0128 FFF7FEFF 		bl	__aeabi_fmul
 2253              	.LVL353:
 2254              	.LBE295:
 2255              	.LBE294:
 501:ctrl_pend.c   **** 
 2256              		.loc 1 501 0
 2257 012c 0146     		mov	r1, r0
 2258 012e 2046     		mov	r0, r4
 2259 0130 FFF7FEFF 		bl	__aeabi_fmul
 2260              	.LVL354:
 2261 0134 2860     		str	r0, [r5]	@ float
 503:ctrl_pend.c   ****     q15_t Ax1 = qsat15((q31_t)(dot >> 15));
 2262              		.loc 1 503 0
 2263 0136 02AB     		add	r3, sp, #8
 2264 0138 0222     		movs	r2, #2
 2265 013a 05A9     		add	r1, sp, #20
 2266 013c 06F1E400 		add	r0, r6, #228
 2267 0140 FFF7FEFF 		bl	arm_dot_prod_q15
 2268              	.LVL355:
 504:ctrl_pend.c   ****     z[1] = q15_to_flt(qsat15((q31_t)Ax1 + Buq[1])) * qs;
 2269              		.loc 1 504 0
 2270 0144 029B     		ldr	r3, [sp, #8]
 2271 0146 DB0B     		lsrs	r3, r3, #15
ARM GAS  C:\Users\user\AppData\Local\Temp\cc6TIdBD.s 			page 55


 2272 0148 039A     		ldr	r2, [sp, #12]
 2273 014a 43EA4243 		orr	r3, r3, r2, lsl #17
 2274              	.LVL356:
 2275              	.LBB296:
 2276              	.LBB297:
 245:ctrl_pend.c   ****     if (v < (q31_t)0xFFFF8000) return (q15_t)0x8000;
 2277              		.loc 1 245 0
 2278 014e B3F5004F 		cmp	r3, #32768
 2279 0152 04DA     		bge	.L147
 246:ctrl_pend.c   ****     return (q15_t)v;
 2280              		.loc 1 246 0
 2281 0154 13F5004F 		cmn	r3, #32768
 2282 0158 04DB     		blt	.L148
 247:ctrl_pend.c   **** }
 2283              		.loc 1 247 0
 2284 015a 1BB2     		sxth	r3, r3
 2285              	.LVL357:
 2286 015c 03E0     		b	.L135
 2287              	.LVL358:
 2288              	.L147:
 245:ctrl_pend.c   ****     if (v < (q31_t)0xFFFF8000) return (q15_t)0x8000;
 2289              		.loc 1 245 0
 2290 015e 47F6FF73 		movw	r3, #32767
 2291              	.LVL359:
 2292 0162 00E0     		b	.L135
 2293              	.LVL360:
 2294              	.L148:
 246:ctrl_pend.c   ****     return (q15_t)v;
 2295              		.loc 1 246 0
 2296 0164 0F4B     		ldr	r3, .L152+4
 2297              	.LVL361:
 2298              	.L135:
 2299              	.LBE297:
 2300              	.LBE296:
 505:ctrl_pend.c   **** }
 2301              		.loc 1 505 0
 2302 0166 BDF91200 		ldrsh	r0, [sp, #18]
 2303 016a C218     		adds	r2, r0, r3
 2304              	.LVL362:
 2305              	.LBB298:
 2306              	.LBB299:
 245:ctrl_pend.c   ****     if (v < (q31_t)0xFFFF8000) return (q15_t)0x8000;
 2307              		.loc 1 245 0
 2308 016c B2F5004F 		cmp	r2, #32768
 2309 0170 04DA     		bge	.L149
 246:ctrl_pend.c   ****     return (q15_t)v;
 2310              		.loc 1 246 0
 2311 0172 12F5004F 		cmn	r2, #32768
 2312 0176 04DB     		blt	.L150
 247:ctrl_pend.c   **** }
 2313              		.loc 1 247 0
 2314 0178 10B2     		sxth	r0, r2
 2315 017a 03E0     		b	.L136
 2316              	.L149:
 245:ctrl_pend.c   ****     if (v < (q31_t)0xFFFF8000) return (q15_t)0x8000;
 2317              		.loc 1 245 0
 2318 017c 47F6FF70 		movw	r0, #32767
ARM GAS  C:\Users\user\AppData\Local\Temp\cc6TIdBD.s 			page 56


 2319 0180 00E0     		b	.L136
 2320              	.L150:
 246:ctrl_pend.c   ****     return (q15_t)v;
 2321              		.loc 1 246 0
 2322 0182 0848     		ldr	r0, .L152+4
 2323              	.L136:
 2324              	.LVL363:
 2325              	.LBE299:
 2326              	.LBE298:
 2327              	.LBB300:
 2328              	.LBB301:
 224:ctrl_pend.c   **** }
 2329              		.loc 1 224 0
 2330 0184 FFF7FEFF 		bl	__aeabi_i2f
 2331              	.LVL364:
 2332 0188 4FF06051 		mov	r1, #939524096
 2333 018c FFF7FEFF 		bl	__aeabi_fmul
 2334              	.LVL365:
 2335              	.LBE301:
 2336              	.LBE300:
 505:ctrl_pend.c   **** }
 2337              		.loc 1 505 0
 2338 0190 0146     		mov	r1, r0
 2339 0192 2046     		mov	r0, r4
 2340 0194 FFF7FEFF 		bl	__aeabi_fmul
 2341              	.LVL366:
 2342 0198 6860     		str	r0, [r5, #4]	@ float
 506:ctrl_pend.c   **** 
 2343              		.loc 1 506 0
 2344 019a 07B0     		add	sp, sp, #28
 2345              		.cfi_def_cfa_offset 28
 2346              		@ sp needed
 2347 019c BDE8F083 		pop	{r4, r5, r6, r7, r8, r9, pc}
 2348              	.LVL367:
 2349              	.L153:
 2350              		.align	2
 2351              	.L152:
 2352 01a0 000080BF 		.word	-1082130432
 2353 01a4 0080FFFF 		.word	-32768
 2354              		.cfi_endproc
 2355              	.LFE145:
 2356              		.size	ss_predict_q15, .-ss_predict_q15
 2357              		.section	.text.ss_obs_pred_q15,"ax",%progbits
 2358              		.align	2
 2359              		.thumb
 2360              		.thumb_func
 2361              		.type	ss_obs_pred_q15, %function
 2362              	ss_obs_pred_q15:
 2363              	.LFB147:
 528:ctrl_pend.c   ****     float qs = lp->q_scale;
 2364              		.loc 1 528 0
 2365              		.cfi_startproc
 2366              		@ args = 0, pretend = 0, frame = 24
 2367              		@ frame_needed = 0, uses_anonymous_args = 0
 2368              	.LVL368:
 2369 0000 2DE9F041 		push	{r4, r5, r6, r7, r8, lr}
 2370              		.cfi_def_cfa_offset 24
ARM GAS  C:\Users\user\AppData\Local\Temp\cc6TIdBD.s 			page 57


 2371              		.cfi_offset 4, -24
 2372              		.cfi_offset 5, -20
 2373              		.cfi_offset 6, -16
 2374              		.cfi_offset 7, -12
 2375              		.cfi_offset 8, -8
 2376              		.cfi_offset 14, -4
 2377 0004 88B0     		sub	sp, sp, #32
 2378              		.cfi_def_cfa_offset 56
 2379 0006 0446     		mov	r4, r0
 2380 0008 8846     		mov	r8, r1
 2381 000a 1F46     		mov	r7, r3
 529:ctrl_pend.c   **** 
 2382              		.loc 1 529 0
 2383 000c D0F8A450 		ldr	r5, [r0, #164]	@ float
 2384              	.LVL369:
 531:ctrl_pend.c   ****     q15_t innov_q = flt_to_q15n(innov / qs);
 2385              		.loc 1 531 0
 2386 0010 00F18006 		add	r6, r0, #128
 2387 0014 3146     		mov	r1, r6
 2388              	.LVL370:
 2389 0016 FFF7FEFF 		bl	ss_yhat_q15
 2390              	.LVL371:
 2391 001a 0146     		mov	r1, r0
 2392 001c 4046     		mov	r0, r8
 2393 001e FFF7FEFF 		bl	__aeabi_fsub
 2394              	.LVL372:
 532:ctrl_pend.c   **** 
 2395              		.loc 1 532 0
 2396 0022 2946     		mov	r1, r5
 2397 0024 FFF7FEFF 		bl	__aeabi_fdiv
 2398              	.LVL373:
 2399 0028 8046     		mov	r8, r0
 2400              	.LVL374:
 2401              	.LBB302:
 2402              	.LBB303:
 218:ctrl_pend.c   ****     if (v < -1.0f)  return  (q15_t)0x8000;
 2403              		.loc 1 218 0
 2404 002a 4FF07E51 		mov	r1, #1065353216
 2405 002e FFF7FEFF 		bl	__aeabi_fcmpge
 2406              	.LVL375:
 2407 0032 70B9     		cbnz	r0, .L158
 219:ctrl_pend.c   ****     return (q15_t)(v * 32768.0f);
 2408              		.loc 1 219 0
 2409 0034 4149     		ldr	r1, .L165
 2410 0036 4046     		mov	r0, r8
 2411 0038 FFF7FEFF 		bl	__aeabi_fcmplt
 2412              	.LVL376:
 2413 003c 60B9     		cbnz	r0, .L159
 220:ctrl_pend.c   **** }
 2414              		.loc 1 220 0
 2415 003e 4FF08E41 		mov	r1, #1191182336
 2416 0042 4046     		mov	r0, r8
 2417 0044 FFF7FEFF 		bl	__aeabi_fmul
 2418              	.LVL377:
 2419 0048 FFF7FEFF 		bl	__aeabi_f2iz
 2420              	.LVL378:
 2421 004c 0FFA80F8 		sxth	r8, r0
ARM GAS  C:\Users\user\AppData\Local\Temp\cc6TIdBD.s 			page 58


 2422              	.LVL379:
 2423 0050 04E0     		b	.L155
 2424              	.LVL380:
 2425              	.L158:
 218:ctrl_pend.c   ****     if (v < -1.0f)  return  (q15_t)0x8000;
 2426              		.loc 1 218 0
 2427 0052 47F6FF78 		movw	r8, #32767
 2428              	.LVL381:
 2429 0056 01E0     		b	.L155
 2430              	.LVL382:
 2431              	.L159:
 219:ctrl_pend.c   ****     return (q15_t)(v * 32768.0f);
 2432              		.loc 1 219 0
 2433 0058 DFF8E480 		ldr	r8, .L165+4
 2434              	.LVL383:
 2435              	.L155:
 2436              	.LBE303:
 2437              	.LBE302:
 535:ctrl_pend.c   **** 
 2438              		.loc 1 535 0
 2439 005c 06AB     		add	r3, sp, #24
 2440 005e 3A46     		mov	r2, r7
 2441 0060 3146     		mov	r1, r6
 2442 0062 2046     		mov	r0, r4
 2443 0064 FFF7FEFF 		bl	ss_predict_q15
 2444              	.LVL384:
 538:ctrl_pend.c   **** 
 2445              		.loc 1 538 0
 2446 0068 0223     		movs	r3, #2
 2447 006a 0093     		str	r3, [sp]
 2448 006c 05AB     		add	r3, sp, #20
 2449 006e 0022     		movs	r2, #0
 2450 0070 4146     		mov	r1, r8
 2451 0072 04F1F400 		add	r0, r4, #244
 2452 0076 FFF7FEFF 		bl	arm_scale_q15
 2453              	.LVL385:
 541:ctrl_pend.c   ****     zq[1] = flt_to_q15n(z[1] / qs);
 2454              		.loc 1 541 0
 2455 007a 2946     		mov	r1, r5
 2456 007c 0698     		ldr	r0, [sp, #24]	@ float
 2457 007e FFF7FEFF 		bl	__aeabi_fdiv
 2458              	.LVL386:
 2459 0082 0646     		mov	r6, r0
 2460              	.LVL387:
 2461              	.LBB304:
 2462              	.LBB305:
 218:ctrl_pend.c   ****     if (v < -1.0f)  return  (q15_t)0x8000;
 2463              		.loc 1 218 0
 2464 0084 4FF07E51 		mov	r1, #1065353216
 2465 0088 FFF7FEFF 		bl	__aeabi_fcmpge
 2466              	.LVL388:
 2467 008c 68B9     		cbnz	r0, .L160
 219:ctrl_pend.c   ****     return (q15_t)(v * 32768.0f);
 2468              		.loc 1 219 0
 2469 008e 2B49     		ldr	r1, .L165
 2470 0090 3046     		mov	r0, r6
 2471 0092 FFF7FEFF 		bl	__aeabi_fcmplt
ARM GAS  C:\Users\user\AppData\Local\Temp\cc6TIdBD.s 			page 59


 2472              	.LVL389:
 2473 0096 58B9     		cbnz	r0, .L161
 220:ctrl_pend.c   **** }
 2474              		.loc 1 220 0
 2475 0098 4FF08E41 		mov	r1, #1191182336
 2476 009c 3046     		mov	r0, r6
 2477 009e FFF7FEFF 		bl	__aeabi_fmul
 2478              	.LVL390:
 2479 00a2 FFF7FEFF 		bl	__aeabi_f2iz
 2480              	.LVL391:
 2481 00a6 00B2     		sxth	r0, r0
 2482 00a8 03E0     		b	.L156
 2483              	.L160:
 218:ctrl_pend.c   ****     if (v < -1.0f)  return  (q15_t)0x8000;
 2484              		.loc 1 218 0
 2485 00aa 47F6FF70 		movw	r0, #32767
 2486 00ae 00E0     		b	.L156
 2487              	.L161:
 219:ctrl_pend.c   ****     return (q15_t)(v * 32768.0f);
 2488              		.loc 1 219 0
 2489 00b0 2348     		ldr	r0, .L165+4
 2490              	.L156:
 2491              	.LVL392:
 2492              	.LBE305:
 2493              	.LBE304:
 541:ctrl_pend.c   ****     zq[1] = flt_to_q15n(z[1] / qs);
 2494              		.loc 1 541 0
 2495 00b2 ADF81000 		strh	r0, [sp, #16]	@ movhi
 542:ctrl_pend.c   ****     q15_t xhat_q[2];
 2496              		.loc 1 542 0
 2497 00b6 2946     		mov	r1, r5
 2498 00b8 0798     		ldr	r0, [sp, #28]	@ float
 2499 00ba FFF7FEFF 		bl	__aeabi_fdiv
 2500              	.LVL393:
 2501 00be 0646     		mov	r6, r0
 2502              	.LVL394:
 2503              	.LBB306:
 2504              	.LBB307:
 218:ctrl_pend.c   ****     if (v < -1.0f)  return  (q15_t)0x8000;
 2505              		.loc 1 218 0
 2506 00c0 4FF07E51 		mov	r1, #1065353216
 2507 00c4 FFF7FEFF 		bl	__aeabi_fcmpge
 2508              	.LVL395:
 2509 00c8 68B9     		cbnz	r0, .L162
 219:ctrl_pend.c   ****     return (q15_t)(v * 32768.0f);
 2510              		.loc 1 219 0
 2511 00ca 1C49     		ldr	r1, .L165
 2512 00cc 3046     		mov	r0, r6
 2513 00ce FFF7FEFF 		bl	__aeabi_fcmplt
 2514              	.LVL396:
 2515 00d2 58B9     		cbnz	r0, .L163
 220:ctrl_pend.c   **** }
 2516              		.loc 1 220 0
 2517 00d4 4FF08E41 		mov	r1, #1191182336
 2518 00d8 3046     		mov	r0, r6
 2519 00da FFF7FEFF 		bl	__aeabi_fmul
 2520              	.LVL397:
ARM GAS  C:\Users\user\AppData\Local\Temp\cc6TIdBD.s 			page 60


 2521 00de FFF7FEFF 		bl	__aeabi_f2iz
 2522              	.LVL398:
 2523 00e2 00B2     		sxth	r0, r0
 2524 00e4 03E0     		b	.L157
 2525              	.L162:
 218:ctrl_pend.c   ****     if (v < -1.0f)  return  (q15_t)0x8000;
 2526              		.loc 1 218 0
 2527 00e6 47F6FF70 		movw	r0, #32767
 2528 00ea 00E0     		b	.L157
 2529              	.L163:
 219:ctrl_pend.c   ****     return (q15_t)(v * 32768.0f);
 2530              		.loc 1 219 0
 2531 00ec 1448     		ldr	r0, .L165+4
 2532              	.L157:
 2533              	.LVL399:
 2534              	.LBE307:
 2535              	.LBE306:
 542:ctrl_pend.c   ****     q15_t xhat_q[2];
 2536              		.loc 1 542 0
 2537 00ee ADF81200 		strh	r0, [sp, #18]	@ movhi
 544:ctrl_pend.c   **** 
 2538              		.loc 1 544 0
 2539 00f2 0223     		movs	r3, #2
 2540 00f4 03AA     		add	r2, sp, #12
 2541 00f6 05A9     		add	r1, sp, #20
 2542 00f8 04A8     		add	r0, sp, #16
 2543 00fa FFF7FEFF 		bl	arm_add_q15
 2544              	.LVL400:
 2545              	.LBB308:
 2546              	.LBB309:
 224:ctrl_pend.c   **** }
 2547              		.loc 1 224 0
 2548 00fe BDF90C00 		ldrsh	r0, [sp, #12]
 2549 0102 FFF7FEFF 		bl	__aeabi_i2f
 2550              	.LVL401:
 2551 0106 4FF06051 		mov	r1, #939524096
 2552 010a FFF7FEFF 		bl	__aeabi_fmul
 2553              	.LVL402:
 2554              	.LBE309:
 2555              	.LBE308:
 546:ctrl_pend.c   ****     lp->xhat[1] = q15_to_flt(xhat_q[1]) * qs;
 2556              		.loc 1 546 0
 2557 010e 0146     		mov	r1, r0
 2558 0110 2846     		mov	r0, r5
 2559 0112 FFF7FEFF 		bl	__aeabi_fmul
 2560              	.LVL403:
 2561 0116 C4F88000 		str	r0, [r4, #128]	@ float
 2562              	.LVL404:
 2563              	.LBB310:
 2564              	.LBB311:
 224:ctrl_pend.c   **** }
 2565              		.loc 1 224 0
 2566 011a BDF90E00 		ldrsh	r0, [sp, #14]
 2567 011e FFF7FEFF 		bl	__aeabi_i2f
 2568              	.LVL405:
 2569 0122 4FF06051 		mov	r1, #939524096
 2570 0126 FFF7FEFF 		bl	__aeabi_fmul
ARM GAS  C:\Users\user\AppData\Local\Temp\cc6TIdBD.s 			page 61


 2571              	.LVL406:
 2572              	.LBE311:
 2573              	.LBE310:
 547:ctrl_pend.c   **** }
 2574              		.loc 1 547 0
 2575 012a 0146     		mov	r1, r0
 2576 012c 2846     		mov	r0, r5
 2577 012e FFF7FEFF 		bl	__aeabi_fmul
 2578              	.LVL407:
 2579 0132 C4F88400 		str	r0, [r4, #132]	@ float
 548:ctrl_pend.c   **** 
 2580              		.loc 1 548 0
 2581 0136 08B0     		add	sp, sp, #32
 2582              		.cfi_def_cfa_offset 24
 2583              		@ sp needed
 2584 0138 BDE8F081 		pop	{r4, r5, r6, r7, r8, pc}
 2585              	.LVL408:
 2586              	.L166:
 2587              		.align	2
 2588              	.L165:
 2589 013c 000080BF 		.word	-1082130432
 2590 0140 0080FFFF 		.word	-32768
 2591              		.cfi_endproc
 2592              	.LFE147:
 2593              		.size	ss_obs_pred_q15, .-ss_obs_pred_q15
 2594              		.section	.text.ss_obs_act_predict_q15,"ax",%progbits
 2595              		.align	2
 2596              		.thumb
 2597              		.thumb_func
 2598              		.type	ss_obs_act_predict_q15, %function
 2599              	ss_obs_act_predict_q15:
 2600              	.LFB149:
 569:ctrl_pend.c   **** 
 570:ctrl_pend.c   **** static void ss_obs_act_predict_q15(CtrlLoop *lp, float u_k)
 571:ctrl_pend.c   **** {
 2601              		.loc 1 571 0
 2602              		.cfi_startproc
 2603              		@ args = 0, pretend = 0, frame = 0
 2604              		@ frame_needed = 0, uses_anonymous_args = 0
 2605              	.LVL409:
 2606 0000 10B5     		push	{r4, lr}
 2607              		.cfi_def_cfa_offset 8
 2608              		.cfi_offset 4, -8
 2609              		.cfi_offset 14, -4
 572:ctrl_pend.c   ****     ss_predict_q15(lp, lp->xhat, u_k, lp->zhat);
 2610              		.loc 1 572 0
 2611 0002 00F18803 		add	r3, r0, #136
 2612 0006 0A46     		mov	r2, r1
 2613 0008 00F18001 		add	r1, r0, #128
 2614              	.LVL410:
 2615 000c FFF7FEFF 		bl	ss_predict_q15
 2616              	.LVL411:
 2617 0010 10BD     		pop	{r4, pc}
 2618              		.cfi_endproc
 2619              	.LFE149:
 2620              		.size	ss_obs_act_predict_q15, .-ss_obs_act_predict_q15
 2621 0012 00BF     		.section	.text.ss_u_cmd_q15,"ax",%progbits
ARM GAS  C:\Users\user\AppData\Local\Temp\cc6TIdBD.s 			page 62


 2622              		.align	2
 2623              		.thumb
 2624              		.thumb_func
 2625              		.type	ss_u_cmd_q15, %function
 2626              	ss_u_cmd_q15:
 2627              	.LFB146:
 509:ctrl_pend.c   ****     float qs = lp->q_scale;
 2628              		.loc 1 509 0
 2629              		.cfi_startproc
 2630              		@ args = 0, pretend = 0, frame = 16
 2631              		@ frame_needed = 0, uses_anonymous_args = 0
 2632              	.LVL412:
 2633 0000 70B5     		push	{r4, r5, r6, lr}
 2634              		.cfi_def_cfa_offset 16
 2635              		.cfi_offset 4, -16
 2636              		.cfi_offset 5, -12
 2637              		.cfi_offset 6, -8
 2638              		.cfi_offset 14, -4
 2639 0002 84B0     		sub	sp, sp, #16
 2640              		.cfi_def_cfa_offset 32
 2641 0004 0546     		mov	r5, r0
 510:ctrl_pend.c   ****     q15_t xhat_q[2];
 2642              		.loc 1 510 0
 2643 0006 D0F8A460 		ldr	r6, [r0, #164]	@ float
 2644              	.LVL413:
 514:ctrl_pend.c   ****     xhat_q[1] = flt_to_q15n(lp->xhat[1] / qs);
 2645              		.loc 1 514 0
 2646 000a 3146     		mov	r1, r6
 2647 000c D0F88000 		ldr	r0, [r0, #128]	@ float
 2648              	.LVL414:
 2649 0010 FFF7FEFF 		bl	__aeabi_fdiv
 2650              	.LVL415:
 2651 0014 0446     		mov	r4, r0
 2652              	.LVL416:
 2653              	.LBB312:
 2654              	.LBB313:
 218:ctrl_pend.c   ****     if (v < -1.0f)  return  (q15_t)0x8000;
 2655              		.loc 1 218 0
 2656 0016 4FF07E51 		mov	r1, #1065353216
 2657 001a FFF7FEFF 		bl	__aeabi_fcmpge
 2658              	.LVL417:
 2659 001e 68B9     		cbnz	r0, .L177
 219:ctrl_pend.c   ****     return (q15_t)(v * 32768.0f);
 2660              		.loc 1 219 0
 2661 0020 4649     		ldr	r1, .L188
 2662 0022 2046     		mov	r0, r4
 2663 0024 FFF7FEFF 		bl	__aeabi_fcmplt
 2664              	.LVL418:
 2665 0028 58B9     		cbnz	r0, .L178
 220:ctrl_pend.c   **** }
 2666              		.loc 1 220 0
 2667 002a 4FF08E41 		mov	r1, #1191182336
 2668 002e 2046     		mov	r0, r4
 2669 0030 FFF7FEFF 		bl	__aeabi_fmul
 2670              	.LVL419:
 2671 0034 FFF7FEFF 		bl	__aeabi_f2iz
 2672              	.LVL420:
ARM GAS  C:\Users\user\AppData\Local\Temp\cc6TIdBD.s 			page 63


 2673 0038 00B2     		sxth	r0, r0
 2674 003a 03E0     		b	.L170
 2675              	.L177:
 218:ctrl_pend.c   ****     if (v < -1.0f)  return  (q15_t)0x8000;
 2676              		.loc 1 218 0
 2677 003c 47F6FF70 		movw	r0, #32767
 2678 0040 00E0     		b	.L170
 2679              	.L178:
 219:ctrl_pend.c   ****     return (q15_t)(v * 32768.0f);
 2680              		.loc 1 219 0
 2681 0042 3F48     		ldr	r0, .L188+4
 2682              	.L170:
 2683              	.LVL421:
 2684              	.LBE313:
 2685              	.LBE312:
 514:ctrl_pend.c   ****     xhat_q[1] = flt_to_q15n(lp->xhat[1] / qs);
 2686              		.loc 1 514 0
 2687 0044 ADF80C00 		strh	r0, [sp, #12]	@ movhi
 515:ctrl_pend.c   **** 
 2688              		.loc 1 515 0
 2689 0048 3146     		mov	r1, r6
 2690 004a D5F88400 		ldr	r0, [r5, #132]	@ float
 2691 004e FFF7FEFF 		bl	__aeabi_fdiv
 2692              	.LVL422:
 2693 0052 0446     		mov	r4, r0
 2694              	.LVL423:
 2695              	.LBB314:
 2696              	.LBB315:
 218:ctrl_pend.c   ****     if (v < -1.0f)  return  (q15_t)0x8000;
 2697              		.loc 1 218 0
 2698 0054 4FF07E51 		mov	r1, #1065353216
 2699 0058 FFF7FEFF 		bl	__aeabi_fcmpge
 2700              	.LVL424:
 2701 005c 68B9     		cbnz	r0, .L179
 219:ctrl_pend.c   ****     return (q15_t)(v * 32768.0f);
 2702              		.loc 1 219 0
 2703 005e 3749     		ldr	r1, .L188
 2704 0060 2046     		mov	r0, r4
 2705 0062 FFF7FEFF 		bl	__aeabi_fcmplt
 2706              	.LVL425:
 2707 0066 58B9     		cbnz	r0, .L180
 220:ctrl_pend.c   **** }
 2708              		.loc 1 220 0
 2709 0068 4FF08E41 		mov	r1, #1191182336
 2710 006c 2046     		mov	r0, r4
 2711 006e FFF7FEFF 		bl	__aeabi_fmul
 2712              	.LVL426:
 2713 0072 FFF7FEFF 		bl	__aeabi_f2iz
 2714              	.LVL427:
 2715 0076 00B2     		sxth	r0, r0
 2716 0078 03E0     		b	.L171
 2717              	.L179:
 218:ctrl_pend.c   ****     if (v < -1.0f)  return  (q15_t)0x8000;
 2718              		.loc 1 218 0
 2719 007a 47F6FF70 		movw	r0, #32767
 2720 007e 00E0     		b	.L171
 2721              	.L180:
ARM GAS  C:\Users\user\AppData\Local\Temp\cc6TIdBD.s 			page 64


 219:ctrl_pend.c   ****     return (q15_t)(v * 32768.0f);
 2722              		.loc 1 219 0
 2723 0080 2F48     		ldr	r0, .L188+4
 2724              	.L171:
 2725              	.LVL428:
 2726              	.LBE315:
 2727              	.LBE314:
 515:ctrl_pend.c   **** 
 2728              		.loc 1 515 0
 2729 0082 ADF80E00 		strh	r0, [sp, #14]	@ movhi
 517:ctrl_pend.c   ****     q15_t kx = qsat15((q31_t)(dot >> 15));
 2730              		.loc 1 517 0
 2731 0086 6B46     		mov	r3, sp
 2732 0088 0222     		movs	r2, #2
 2733 008a 03A9     		add	r1, sp, #12
 2734 008c 05F1F000 		add	r0, r5, #240
 2735 0090 FFF7FEFF 		bl	arm_dot_prod_q15
 2736              	.LVL429:
 518:ctrl_pend.c   **** 
 2737              		.loc 1 518 0
 2738 0094 009B     		ldr	r3, [sp]
 2739 0096 DB0B     		lsrs	r3, r3, #15
 2740 0098 019A     		ldr	r2, [sp, #4]
 2741 009a 43EA4243 		orr	r3, r3, r2, lsl #17
 2742              	.LVL430:
 2743              	.LBB316:
 2744              	.LBB317:
 245:ctrl_pend.c   ****     if (v < (q31_t)0xFFFF8000) return (q15_t)0x8000;
 2745              		.loc 1 245 0
 2746 009e B3F5004F 		cmp	r3, #32768
 2747 00a2 04DA     		bge	.L181
 246:ctrl_pend.c   ****     return (q15_t)v;
 2748              		.loc 1 246 0
 2749 00a4 13F5004F 		cmn	r3, #32768
 2750 00a8 04DB     		blt	.L182
 247:ctrl_pend.c   **** }
 2751              		.loc 1 247 0
 2752 00aa 1CB2     		sxth	r4, r3
 2753 00ac 03E0     		b	.L172
 2754              	.L181:
 245:ctrl_pend.c   ****     if (v < (q31_t)0xFFFF8000) return (q15_t)0x8000;
 2755              		.loc 1 245 0
 2756 00ae 47F6FF74 		movw	r4, #32767
 2757 00b2 00E0     		b	.L172
 2758              	.L182:
 246:ctrl_pend.c   ****     return (q15_t)v;
 2759              		.loc 1 246 0
 2760 00b4 224C     		ldr	r4, .L188+4
 2761              	.L172:
 2762              	.LVL431:
 2763              	.LBE317:
 2764              	.LBE316:
 520:ctrl_pend.c   ****                                          : (lp->Kx * lp->ref);
 2765              		.loc 1 520 0
 2766 00b6 2878     		ldrb	r0, [r5]	@ zero_extendqisi2
 2767 00b8 FFF7FEFF 		bl	mode_has_i
 2768              	.LVL432:
ARM GAS  C:\Users\user\AppData\Local\Temp\cc6TIdBD.s 			page 65


 521:ctrl_pend.c   ****     q15_t extra_q = flt_to_q15n(extra_f / qs);
 2769              		.loc 1 521 0
 2770 00bc 28B1     		cbz	r0, .L173
 521:ctrl_pend.c   ****     q15_t extra_q = flt_to_q15n(extra_f / qs);
 2771              		.loc 1 521 0 is_stmt 0 discriminator 1
 2772 00be D5F89010 		ldr	r1, [r5, #144]	@ float
 2773 00c2 E86F     		ldr	r0, [r5, #124]	@ float
 2774 00c4 FFF7FEFF 		bl	__aeabi_fmul
 2775              	.LVL433:
 2776 00c8 04E0     		b	.L174
 2777              	.L173:
 521:ctrl_pend.c   ****     q15_t extra_q = flt_to_q15n(extra_f / qs);
 2778              		.loc 1 521 0 discriminator 2
 2779 00ca D5F89410 		ldr	r1, [r5, #148]	@ float
 2780 00ce E86F     		ldr	r0, [r5, #124]	@ float
 2781 00d0 FFF7FEFF 		bl	__aeabi_fmul
 2782              	.LVL434:
 2783              	.L174:
 522:ctrl_pend.c   **** 
 2784              		.loc 1 522 0 is_stmt 1
 2785 00d4 3146     		mov	r1, r6
 2786 00d6 FFF7FEFF 		bl	__aeabi_fdiv
 2787              	.LVL435:
 2788 00da 0546     		mov	r5, r0
 2789              	.LVL436:
 2790              	.LBB318:
 2791              	.LBB319:
 218:ctrl_pend.c   ****     if (v < -1.0f)  return  (q15_t)0x8000;
 2792              		.loc 1 218 0
 2793 00dc 4FF07E51 		mov	r1, #1065353216
 2794 00e0 FFF7FEFF 		bl	__aeabi_fcmpge
 2795              	.LVL437:
 2796 00e4 68B9     		cbnz	r0, .L183
 219:ctrl_pend.c   ****     return (q15_t)(v * 32768.0f);
 2797              		.loc 1 219 0
 2798 00e6 1549     		ldr	r1, .L188
 2799 00e8 2846     		mov	r0, r5
 2800 00ea FFF7FEFF 		bl	__aeabi_fcmplt
 2801              	.LVL438:
 2802 00ee 58B9     		cbnz	r0, .L184
 220:ctrl_pend.c   **** }
 2803              		.loc 1 220 0
 2804 00f0 4FF08E41 		mov	r1, #1191182336
 2805 00f4 2846     		mov	r0, r5
 2806 00f6 FFF7FEFF 		bl	__aeabi_fmul
 2807              	.LVL439:
 2808 00fa FFF7FEFF 		bl	__aeabi_f2iz
 2809              	.LVL440:
 2810 00fe 00B2     		sxth	r0, r0
 2811 0100 03E0     		b	.L175
 2812              	.L183:
 218:ctrl_pend.c   ****     if (v < -1.0f)  return  (q15_t)0x8000;
 2813              		.loc 1 218 0
 2814 0102 47F6FF70 		movw	r0, #32767
 2815 0106 00E0     		b	.L175
 2816              	.L184:
 219:ctrl_pend.c   ****     return (q15_t)(v * 32768.0f);
ARM GAS  C:\Users\user\AppData\Local\Temp\cc6TIdBD.s 			page 66


 2817              		.loc 1 219 0
 2818 0108 0D48     		ldr	r0, .L188+4
 2819              	.L175:
 2820              	.LVL441:
 2821              	.LBE319:
 2822              	.LBE318:
 524:ctrl_pend.c   **** }
 2823              		.loc 1 524 0
 2824 010a 031B     		subs	r3, r0, r4
 2825              	.LVL442:
 2826              	.LBB320:
 2827              	.LBB321:
 245:ctrl_pend.c   ****     if (v < (q31_t)0xFFFF8000) return (q15_t)0x8000;
 2828              		.loc 1 245 0
 2829 010c B3F5004F 		cmp	r3, #32768
 2830 0110 04DA     		bge	.L185
 246:ctrl_pend.c   ****     return (q15_t)v;
 2831              		.loc 1 246 0
 2832 0112 13F5004F 		cmn	r3, #32768
 2833 0116 04DB     		blt	.L186
 247:ctrl_pend.c   **** }
 2834              		.loc 1 247 0
 2835 0118 18B2     		sxth	r0, r3
 2836 011a 03E0     		b	.L176
 2837              	.L185:
 245:ctrl_pend.c   ****     if (v < (q31_t)0xFFFF8000) return (q15_t)0x8000;
 2838              		.loc 1 245 0
 2839 011c 47F6FF70 		movw	r0, #32767
 2840 0120 00E0     		b	.L176
 2841              	.L186:
 246:ctrl_pend.c   ****     return (q15_t)v;
 2842              		.loc 1 246 0
 2843 0122 0748     		ldr	r0, .L188+4
 2844              	.L176:
 2845              	.LVL443:
 2846              	.LBE321:
 2847              	.LBE320:
 2848              	.LBB322:
 2849              	.LBB323:
 224:ctrl_pend.c   **** }
 2850              		.loc 1 224 0
 2851 0124 FFF7FEFF 		bl	__aeabi_i2f
 2852              	.LVL444:
 2853 0128 4FF06051 		mov	r1, #939524096
 2854 012c FFF7FEFF 		bl	__aeabi_fmul
 2855              	.LVL445:
 2856              	.LBE323:
 2857              	.LBE322:
 524:ctrl_pend.c   **** }
 2858              		.loc 1 524 0
 2859 0130 0146     		mov	r1, r0
 2860 0132 3046     		mov	r0, r6
 2861 0134 FFF7FEFF 		bl	__aeabi_fmul
 2862              	.LVL446:
 525:ctrl_pend.c   **** 
 2863              		.loc 1 525 0
 2864 0138 04B0     		add	sp, sp, #16
ARM GAS  C:\Users\user\AppData\Local\Temp\cc6TIdBD.s 			page 67


 2865              		.cfi_def_cfa_offset 16
 2866              		@ sp needed
 2867 013a 70BD     		pop	{r4, r5, r6, pc}
 2868              	.LVL447:
 2869              	.L189:
 2870              		.align	2
 2871              	.L188:
 2872 013c 000080BF 		.word	-1082130432
 2873 0140 0080FFFF 		.word	-32768
 2874              		.cfi_endproc
 2875              	.LFE146:
 2876              		.size	ss_u_cmd_q15, .-ss_u_cmd_q15
 2877              		.section	.text.ss_yhat_q7,"ax",%progbits
 2878              		.align	2
 2879              		.thumb
 2880              		.thumb_func
 2881              		.type	ss_yhat_q7, %function
 2882              	ss_yhat_q7:
 2883              	.LFB150:
 573:ctrl_pend.c   **** }
 574:ctrl_pend.c   **** 
 575:ctrl_pend.c   **** /* ============================================================
 576:ctrl_pend.c   ****    SS helpers — Q7
 577:ctrl_pend.c   ****    arm_dot_prod_q7: resultado q31_t en 18.14 → >>7 para Q7
 578:ctrl_pend.c   ****    arm_scale_q7(..., shift=0): (src × scaleFract) >> 7 → Q7
 579:ctrl_pend.c   ****    arm_add_q7: suma saturada Q7
 580:ctrl_pend.c   ****    ============================================================ */
 581:ctrl_pend.c   **** 
 582:ctrl_pend.c   **** static float ss_yhat_q7(CtrlLoop *lp, const float x[2], float u)
 583:ctrl_pend.c   **** {
 2884              		.loc 1 583 0
 2885              		.cfi_startproc
 2886              		@ args = 0, pretend = 0, frame = 8
 2887              		@ frame_needed = 0, uses_anonymous_args = 0
 2888              	.LVL448:
 2889 0000 2DE9F041 		push	{r4, r5, r6, r7, r8, lr}
 2890              		.cfi_def_cfa_offset 24
 2891              		.cfi_offset 4, -24
 2892              		.cfi_offset 5, -20
 2893              		.cfi_offset 6, -16
 2894              		.cfi_offset 7, -12
 2895              		.cfi_offset 8, -8
 2896              		.cfi_offset 14, -4
 2897 0004 82B0     		sub	sp, sp, #8
 2898              		.cfi_def_cfa_offset 32
 2899 0006 0646     		mov	r6, r0
 2900 0008 0C46     		mov	r4, r1
 2901 000a 1746     		mov	r7, r2
 584:ctrl_pend.c   ****     float qs = lp->q_scale;
 2902              		.loc 1 584 0
 2903 000c D0F8A450 		ldr	r5, [r0, #164]	@ float
 2904              	.LVL449:
 585:ctrl_pend.c   ****     q7_t xq[2];
 586:ctrl_pend.c   ****     q31_t dot7;
 587:ctrl_pend.c   **** 
 588:ctrl_pend.c   ****     xq[0] = flt_to_q7n(x[0] / qs);
 2905              		.loc 1 588 0
ARM GAS  C:\Users\user\AppData\Local\Temp\cc6TIdBD.s 			page 68


 2906 0010 2946     		mov	r1, r5
 2907              	.LVL450:
 2908 0012 2068     		ldr	r0, [r4]	@ float
 2909              	.LVL451:
 2910 0014 FFF7FEFF 		bl	__aeabi_fdiv
 2911              	.LVL452:
 2912 0018 8046     		mov	r8, r0
 2913              	.LVL453:
 2914              	.LBB324:
 2915              	.LBB325:
 229:ctrl_pend.c   ****     if (v < -1.0f)  return  (q7_t)0x80;
 2916              		.loc 1 229 0
 2917 001a 4FF07E51 		mov	r1, #1065353216
 2918 001e FFF7FEFF 		bl	__aeabi_fcmpge
 2919              	.LVL454:
 2920 0022 68B9     		cbnz	r0, .L197
 230:ctrl_pend.c   ****     return (q7_t)(v * 128.0f);
 2921              		.loc 1 230 0
 2922 0024 4649     		ldr	r1, .L210
 2923 0026 4046     		mov	r0, r8
 2924 0028 FFF7FEFF 		bl	__aeabi_fcmplt
 2925              	.LVL455:
 2926 002c 50B9     		cbnz	r0, .L198
 231:ctrl_pend.c   **** }
 2927              		.loc 1 231 0
 2928 002e 4FF08641 		mov	r1, #1124073472
 2929 0032 4046     		mov	r0, r8
 2930 0034 FFF7FEFF 		bl	__aeabi_fmul
 2931              	.LVL456:
 2932 0038 FFF7FEFF 		bl	__aeabi_f2iz
 2933              	.LVL457:
 2934 003c 40B2     		sxtb	r0, r0
 2935 003e 03E0     		b	.L191
 2936              	.L197:
 229:ctrl_pend.c   ****     if (v < -1.0f)  return  (q7_t)0x80;
 2937              		.loc 1 229 0
 2938 0040 7F20     		movs	r0, #127
 2939 0042 01E0     		b	.L191
 2940              	.L198:
 230:ctrl_pend.c   ****     return (q7_t)(v * 128.0f);
 2941              		.loc 1 230 0
 2942 0044 6FF07F00 		mvn	r0, #127
 2943              	.L191:
 2944              	.LVL458:
 2945              	.LBE325:
 2946              	.LBE324:
 2947              		.loc 1 588 0
 2948 0048 8DF80400 		strb	r0, [sp, #4]
 589:ctrl_pend.c   ****     xq[1] = flt_to_q7n(x[1] / qs);
 2949              		.loc 1 589 0
 2950 004c 2946     		mov	r1, r5
 2951 004e 6068     		ldr	r0, [r4, #4]	@ float
 2952 0050 FFF7FEFF 		bl	__aeabi_fdiv
 2953              	.LVL459:
 2954 0054 0446     		mov	r4, r0
 2955              	.LVL460:
 2956              	.LBB326:
ARM GAS  C:\Users\user\AppData\Local\Temp\cc6TIdBD.s 			page 69


 2957              	.LBB327:
 229:ctrl_pend.c   ****     if (v < -1.0f)  return  (q7_t)0x80;
 2958              		.loc 1 229 0
 2959 0056 4FF07E51 		mov	r1, #1065353216
 2960 005a FFF7FEFF 		bl	__aeabi_fcmpge
 2961              	.LVL461:
 2962 005e 68B9     		cbnz	r0, .L199
 230:ctrl_pend.c   ****     return (q7_t)(v * 128.0f);
 2963              		.loc 1 230 0
 2964 0060 3749     		ldr	r1, .L210
 2965 0062 2046     		mov	r0, r4
 2966 0064 FFF7FEFF 		bl	__aeabi_fcmplt
 2967              	.LVL462:
 2968 0068 50B9     		cbnz	r0, .L200
 231:ctrl_pend.c   **** }
 2969              		.loc 1 231 0
 2970 006a 4FF08641 		mov	r1, #1124073472
 2971 006e 2046     		mov	r0, r4
 2972 0070 FFF7FEFF 		bl	__aeabi_fmul
 2973              	.LVL463:
 2974 0074 FFF7FEFF 		bl	__aeabi_f2iz
 2975              	.LVL464:
 2976 0078 40B2     		sxtb	r0, r0
 2977 007a 03E0     		b	.L192
 2978              	.L199:
 229:ctrl_pend.c   ****     if (v < -1.0f)  return  (q7_t)0x80;
 2979              		.loc 1 229 0
 2980 007c 7F20     		movs	r0, #127
 2981 007e 01E0     		b	.L192
 2982              	.L200:
 230:ctrl_pend.c   ****     return (q7_t)(v * 128.0f);
 2983              		.loc 1 230 0
 2984 0080 6FF07F00 		mvn	r0, #127
 2985              	.L192:
 2986              	.LVL465:
 2987              	.LBE327:
 2988              	.LBE326:
 2989              		.loc 1 589 0
 2990 0084 8DF80500 		strb	r0, [sp, #5]
 590:ctrl_pend.c   ****     q7_t uq = flt_to_q7n(u / qs);
 2991              		.loc 1 590 0
 2992 0088 2946     		mov	r1, r5
 2993 008a 3846     		mov	r0, r7
 2994 008c FFF7FEFF 		bl	__aeabi_fdiv
 2995              	.LVL466:
 2996 0090 0446     		mov	r4, r0
 2997              	.LVL467:
 2998              	.LBB328:
 2999              	.LBB329:
 229:ctrl_pend.c   ****     if (v < -1.0f)  return  (q7_t)0x80;
 3000              		.loc 1 229 0
 3001 0092 4FF07E51 		mov	r1, #1065353216
 3002 0096 FFF7FEFF 		bl	__aeabi_fcmpge
 3003              	.LVL468:
 3004 009a 68B9     		cbnz	r0, .L201
 230:ctrl_pend.c   ****     return (q7_t)(v * 128.0f);
 3005              		.loc 1 230 0
ARM GAS  C:\Users\user\AppData\Local\Temp\cc6TIdBD.s 			page 70


 3006 009c 2849     		ldr	r1, .L210
 3007 009e 2046     		mov	r0, r4
 3008 00a0 FFF7FEFF 		bl	__aeabi_fcmplt
 3009              	.LVL469:
 3010 00a4 50B9     		cbnz	r0, .L202
 231:ctrl_pend.c   **** }
 3011              		.loc 1 231 0
 3012 00a6 4FF08641 		mov	r1, #1124073472
 3013 00aa 2046     		mov	r0, r4
 3014 00ac FFF7FEFF 		bl	__aeabi_fmul
 3015              	.LVL470:
 3016 00b0 FFF7FEFF 		bl	__aeabi_f2iz
 3017              	.LVL471:
 3018 00b4 44B2     		sxtb	r4, r0
 3019              	.LVL472:
 3020 00b6 03E0     		b	.L193
 3021              	.LVL473:
 3022              	.L201:
 229:ctrl_pend.c   ****     if (v < -1.0f)  return  (q7_t)0x80;
 3023              		.loc 1 229 0
 3024 00b8 7F24     		movs	r4, #127
 3025              	.LVL474:
 3026 00ba 01E0     		b	.L193
 3027              	.LVL475:
 3028              	.L202:
 230:ctrl_pend.c   ****     return (q7_t)(v * 128.0f);
 3029              		.loc 1 230 0
 3030 00bc 6FF07F04 		mvn	r4, #127
 3031              	.LVL476:
 3032              	.L193:
 3033              	.LBE329:
 3034              	.LBE328:
 591:ctrl_pend.c   **** 
 592:ctrl_pend.c   ****     /* C·x: dot product 18.14 → >>7 → Q7 */
 593:ctrl_pend.c   ****     arm_dot_prod_q7(lp->qC7, xq, 2u, &dot7);
 3035              		.loc 1 593 0
 3036 00c0 6B46     		mov	r3, sp
 3037 00c2 0222     		movs	r2, #2
 3038 00c4 01A9     		add	r1, sp, #4
 3039 00c6 06F58170 		add	r0, r6, #258
 3040 00ca FFF7FEFF 		bl	arm_dot_prod_q7
 3041              	.LVL477:
 594:ctrl_pend.c   ****     q7_t Cx = qsat7((q15_t)(dot7 >> 7));
 3042              		.loc 1 594 0
 3043 00ce 0098     		ldr	r0, [sp]
 3044 00d0 C011     		asrs	r0, r0, #7
 3045 00d2 03B2     		sxth	r3, r0
 3046              	.LVL478:
 3047              	.LBB330:
 3048              	.LBB331:
 250:ctrl_pend.c   ****     if (v < (q15_t)0xFF80) return (q7_t)0x80;
 3049              		.loc 1 250 0
 3050 00d4 7F2B     		cmp	r3, #127
 3051 00d6 04DC     		bgt	.L203
 251:ctrl_pend.c   ****     return (q7_t)v;
 3052              		.loc 1 251 0
 3053 00d8 13F1800F 		cmn	r3, #128
ARM GAS  C:\Users\user\AppData\Local\Temp\cc6TIdBD.s 			page 71


 3054 00dc 03DB     		blt	.L204
 252:ctrl_pend.c   **** }
 3055              		.loc 1 252 0
 3056 00de 40B2     		sxtb	r0, r0
 3057 00e0 03E0     		b	.L194
 3058              	.L203:
 250:ctrl_pend.c   ****     if (v < (q15_t)0xFF80) return (q7_t)0x80;
 3059              		.loc 1 250 0
 3060 00e2 7F20     		movs	r0, #127
 3061 00e4 01E0     		b	.L194
 3062              	.L204:
 251:ctrl_pend.c   ****     return (q7_t)v;
 3063              		.loc 1 251 0
 3064 00e6 6FF07F00 		mvn	r0, #127
 3065              	.L194:
 3066              	.LVL479:
 3067              	.LBE331:
 3068              	.LBE330:
 595:ctrl_pend.c   **** 
 596:ctrl_pend.c   ****     /* D·u: (D_q7 × u_q) >> 7 → Q7 */
 597:ctrl_pend.c   ****     q7_t Du = qsat7((q15_t)((q15_t)lp->qD7 * uq >> 7));
 3069              		.loc 1 597 0
 3070 00ea 96F90831 		ldrsb	r3, [r6, #264]
 3071 00ee 04FB03F3 		mul	r3, r4, r3
 3072 00f2 DB11     		asrs	r3, r3, #7
 3073 00f4 1AB2     		sxth	r2, r3
 3074              	.LVL480:
 3075              	.LBB332:
 3076              	.LBB333:
 250:ctrl_pend.c   ****     if (v < (q15_t)0xFF80) return (q7_t)0x80;
 3077              		.loc 1 250 0
 3078 00f6 7F2A     		cmp	r2, #127
 3079 00f8 04DC     		bgt	.L205
 251:ctrl_pend.c   ****     return (q7_t)v;
 3080              		.loc 1 251 0
 3081 00fa 12F1800F 		cmn	r2, #128
 3082 00fe 03DB     		blt	.L206
 252:ctrl_pend.c   **** }
 3083              		.loc 1 252 0
 3084 0100 5BB2     		sxtb	r3, r3
 3085 0102 03E0     		b	.L195
 3086              	.L205:
 250:ctrl_pend.c   ****     if (v < (q15_t)0xFF80) return (q7_t)0x80;
 3087              		.loc 1 250 0
 3088 0104 7F23     		movs	r3, #127
 3089 0106 01E0     		b	.L195
 3090              	.L206:
 251:ctrl_pend.c   ****     return (q7_t)v;
 3091              		.loc 1 251 0
 3092 0108 6FF07F03 		mvn	r3, #127
 3093              	.L195:
 3094              	.LVL481:
 3095              	.LBE333:
 3096              	.LBE332:
 598:ctrl_pend.c   **** 
 599:ctrl_pend.c   ****     return q7_to_flt(qsat7((q15_t)Cx + Du)) * qs;
 3097              		.loc 1 599 0
ARM GAS  C:\Users\user\AppData\Local\Temp\cc6TIdBD.s 			page 72


 3098 010c C218     		adds	r2, r0, r3
 3099              	.LVL482:
 3100              	.LBB334:
 3101              	.LBB335:
 250:ctrl_pend.c   ****     if (v < (q15_t)0xFF80) return (q7_t)0x80;
 3102              		.loc 1 250 0
 3103 010e 7F2A     		cmp	r2, #127
 3104 0110 04DC     		bgt	.L207
 251:ctrl_pend.c   ****     return (q7_t)v;
 3105              		.loc 1 251 0
 3106 0112 12F1800F 		cmn	r2, #128
 3107 0116 03DB     		blt	.L208
 252:ctrl_pend.c   **** }
 3108              		.loc 1 252 0
 3109 0118 50B2     		sxtb	r0, r2
 3110 011a 03E0     		b	.L196
 3111              	.L207:
 250:ctrl_pend.c   ****     if (v < (q15_t)0xFF80) return (q7_t)0x80;
 3112              		.loc 1 250 0
 3113 011c 7F20     		movs	r0, #127
 3114 011e 01E0     		b	.L196
 3115              	.L208:
 251:ctrl_pend.c   ****     return (q7_t)v;
 3116              		.loc 1 251 0
 3117 0120 6FF07F00 		mvn	r0, #127
 3118              	.L196:
 3119              	.LVL483:
 3120              	.LBE335:
 3121              	.LBE334:
 3122              	.LBB336:
 3123              	.LBB337:
 235:ctrl_pend.c   **** }
 3124              		.loc 1 235 0
 3125 0124 FFF7FEFF 		bl	__aeabi_i2f
 3126              	.LVL484:
 3127 0128 4FF07051 		mov	r1, #1006632960
 3128 012c FFF7FEFF 		bl	__aeabi_fmul
 3129              	.LVL485:
 3130              	.LBE337:
 3131              	.LBE336:
 3132              		.loc 1 599 0
 3133 0130 0146     		mov	r1, r0
 3134 0132 2846     		mov	r0, r5
 3135 0134 FFF7FEFF 		bl	__aeabi_fmul
 3136              	.LVL486:
 600:ctrl_pend.c   **** }
 3137              		.loc 1 600 0
 3138 0138 02B0     		add	sp, sp, #8
 3139              		.cfi_def_cfa_offset 24
 3140              		@ sp needed
 3141 013a BDE8F081 		pop	{r4, r5, r6, r7, r8, pc}
 3142              	.LVL487:
 3143              	.L211:
 3144 013e 00BF     		.align	2
 3145              	.L210:
 3146 0140 000080BF 		.word	-1082130432
 3147              		.cfi_endproc
ARM GAS  C:\Users\user\AppData\Local\Temp\cc6TIdBD.s 			page 73


 3148              	.LFE150:
 3149              		.size	ss_yhat_q7, .-ss_yhat_q7
 3150              		.section	.text.ss_obs_act_correct_q7,"ax",%progbits
 3151              		.align	2
 3152              		.thumb
 3153              		.thumb_func
 3154              		.type	ss_obs_act_correct_q7, %function
 3155              	ss_obs_act_correct_q7:
 3156              	.LFB154:
 601:ctrl_pend.c   **** 
 602:ctrl_pend.c   **** static void ss_predict_q7(CtrlLoop *lp, const float x[2], float u, float z[2])
 603:ctrl_pend.c   **** {
 604:ctrl_pend.c   ****     float qs = lp->q_scale;
 605:ctrl_pend.c   ****     q7_t xq[2], Buq[2];
 606:ctrl_pend.c   ****     q31_t dot7;
 607:ctrl_pend.c   **** 
 608:ctrl_pend.c   ****     xq[0] = flt_to_q7n(x[0] / qs);
 609:ctrl_pend.c   ****     xq[1] = flt_to_q7n(x[1] / qs);
 610:ctrl_pend.c   ****     q7_t uq = flt_to_q7n(u / qs);
 611:ctrl_pend.c   **** 
 612:ctrl_pend.c   ****     /* B·u: arm_scale_q7 escala el vector B por escalar u */
 613:ctrl_pend.c   ****     arm_scale_q7(lp->qB7, uq, 0, Buq, 2u);
 614:ctrl_pend.c   **** 
 615:ctrl_pend.c   ****     arm_dot_prod_q7(&lp->qA7[0], xq, 2u, &dot7);
 616:ctrl_pend.c   ****     q7_t Ax0 = qsat7((q15_t)(dot7 >> 7));
 617:ctrl_pend.c   ****     z[0] = q7_to_flt(qsat7((q15_t)Ax0 + Buq[0])) * qs;
 618:ctrl_pend.c   **** 
 619:ctrl_pend.c   ****     arm_dot_prod_q7(&lp->qA7[2], xq, 2u, &dot7);
 620:ctrl_pend.c   ****     q7_t Ax1 = qsat7((q15_t)(dot7 >> 7));
 621:ctrl_pend.c   ****     z[1] = q7_to_flt(qsat7((q15_t)Ax1 + Buq[1])) * qs;
 622:ctrl_pend.c   **** }
 623:ctrl_pend.c   **** 
 624:ctrl_pend.c   **** static float ss_u_cmd_q7(CtrlLoop *lp)
 625:ctrl_pend.c   **** {
 626:ctrl_pend.c   ****     float qs = lp->q_scale;
 627:ctrl_pend.c   ****     q7_t xhat_q[2];
 628:ctrl_pend.c   ****     q31_t dot7;
 629:ctrl_pend.c   **** 
 630:ctrl_pend.c   ****     xhat_q[0] = flt_to_q7n(lp->xhat[0] / qs);
 631:ctrl_pend.c   ****     xhat_q[1] = flt_to_q7n(lp->xhat[1] / qs);
 632:ctrl_pend.c   **** 
 633:ctrl_pend.c   ****     arm_dot_prod_q7(lp->qK7, xhat_q, 2u, &dot7);
 634:ctrl_pend.c   ****     q7_t kx = qsat7((q15_t)(dot7 >> 7));
 635:ctrl_pend.c   **** 
 636:ctrl_pend.c   ****     float extra_f = mode_has_i(lp->mode) ? (lp->Kx * lp->vint)
 637:ctrl_pend.c   ****                                          : (lp->Kx * lp->ref);
 638:ctrl_pend.c   ****     q7_t extra_q = flt_to_q7n(extra_f / qs);
 639:ctrl_pend.c   **** 
 640:ctrl_pend.c   ****     return q7_to_flt(qsat7((q15_t)extra_q - kx)) * qs;
 641:ctrl_pend.c   **** }
 642:ctrl_pend.c   **** 
 643:ctrl_pend.c   **** static void ss_obs_pred_q7(CtrlLoop *lp, float y, float u_prev, float u_k)
 644:ctrl_pend.c   **** {
 645:ctrl_pend.c   ****     float qs = lp->q_scale;
 646:ctrl_pend.c   **** 
 647:ctrl_pend.c   ****     float innov = y - ss_yhat_q7(lp, lp->xhat, u_prev);
 648:ctrl_pend.c   ****     q7_t innov_q = flt_to_q7n(innov / qs);
ARM GAS  C:\Users\user\AppData\Local\Temp\cc6TIdBD.s 			page 74


 649:ctrl_pend.c   **** 
 650:ctrl_pend.c   ****     float z[2];
 651:ctrl_pend.c   ****     ss_predict_q7(lp, lp->xhat, u_k, z);
 652:ctrl_pend.c   **** 
 653:ctrl_pend.c   ****     q7_t Linv[2];
 654:ctrl_pend.c   ****     arm_scale_q7(lp->qL7, innov_q, 0, Linv, 2u);
 655:ctrl_pend.c   **** 
 656:ctrl_pend.c   ****     q7_t zq[2];
 657:ctrl_pend.c   ****     zq[0] = flt_to_q7n(z[0] / qs);
 658:ctrl_pend.c   ****     zq[1] = flt_to_q7n(z[1] / qs);
 659:ctrl_pend.c   ****     q7_t xhat_q[2];
 660:ctrl_pend.c   ****     arm_add_q7(zq, Linv, xhat_q, 2u);
 661:ctrl_pend.c   **** 
 662:ctrl_pend.c   ****     lp->xhat[0] = q7_to_flt(xhat_q[0]) * qs;
 663:ctrl_pend.c   ****     lp->xhat[1] = q7_to_flt(xhat_q[1]) * qs;
 664:ctrl_pend.c   **** }
 665:ctrl_pend.c   **** 
 666:ctrl_pend.c   **** static void ss_obs_act_correct_q7(CtrlLoop *lp, float y, float u_prev)
 667:ctrl_pend.c   **** {
 3157              		.loc 1 667 0
 3158              		.cfi_startproc
 3159              		@ args = 0, pretend = 0, frame = 16
 3160              		@ frame_needed = 0, uses_anonymous_args = 0
 3161              	.LVL488:
 3162 0000 70B5     		push	{r4, r5, r6, lr}
 3163              		.cfi_def_cfa_offset 16
 3164              		.cfi_offset 4, -16
 3165              		.cfi_offset 5, -12
 3166              		.cfi_offset 6, -8
 3167              		.cfi_offset 14, -4
 3168 0002 86B0     		sub	sp, sp, #24
 3169              		.cfi_def_cfa_offset 40
 3170 0004 0446     		mov	r4, r0
 3171 0006 0E46     		mov	r6, r1
 668:ctrl_pend.c   ****     float qs = lp->q_scale;
 3172              		.loc 1 668 0
 3173 0008 D0F8A450 		ldr	r5, [r0, #164]	@ float
 3174              	.LVL489:
 669:ctrl_pend.c   **** 
 670:ctrl_pend.c   ****     float innov = y - ss_yhat_q7(lp, lp->zhat, u_prev);
 3175              		.loc 1 670 0
 3176 000c 00F18801 		add	r1, r0, #136
 3177              	.LVL490:
 3178 0010 FFF7FEFF 		bl	ss_yhat_q7
 3179              	.LVL491:
 3180 0014 0146     		mov	r1, r0
 3181 0016 3046     		mov	r0, r6
 3182 0018 FFF7FEFF 		bl	__aeabi_fsub
 3183              	.LVL492:
 671:ctrl_pend.c   ****     q7_t innov_q = flt_to_q7n(innov / qs);
 3184              		.loc 1 671 0
 3185 001c 2946     		mov	r1, r5
 3186 001e FFF7FEFF 		bl	__aeabi_fdiv
 3187              	.LVL493:
 3188 0022 0646     		mov	r6, r0
 3189              	.LVL494:
 3190              	.LBB338:
ARM GAS  C:\Users\user\AppData\Local\Temp\cc6TIdBD.s 			page 75


 3191              	.LBB339:
 229:ctrl_pend.c   ****     if (v < -1.0f)  return  (q7_t)0x80;
 3192              		.loc 1 229 0
 3193 0024 4FF07E51 		mov	r1, #1065353216
 3194 0028 FFF7FEFF 		bl	__aeabi_fcmpge
 3195              	.LVL495:
 3196 002c 68B9     		cbnz	r0, .L216
 230:ctrl_pend.c   ****     return (q7_t)(v * 128.0f);
 3197              		.loc 1 230 0
 3198 002e 3E49     		ldr	r1, .L223
 3199 0030 3046     		mov	r0, r6
 3200 0032 FFF7FEFF 		bl	__aeabi_fcmplt
 3201              	.LVL496:
 3202 0036 50B9     		cbnz	r0, .L217
 231:ctrl_pend.c   **** }
 3203              		.loc 1 231 0
 3204 0038 4FF08641 		mov	r1, #1124073472
 3205 003c 3046     		mov	r0, r6
 3206 003e FFF7FEFF 		bl	__aeabi_fmul
 3207              	.LVL497:
 3208 0042 FFF7FEFF 		bl	__aeabi_f2iz
 3209              	.LVL498:
 3210 0046 41B2     		sxtb	r1, r0
 3211 0048 03E0     		b	.L213
 3212              	.L216:
 229:ctrl_pend.c   ****     if (v < -1.0f)  return  (q7_t)0x80;
 3213              		.loc 1 229 0
 3214 004a 7F21     		movs	r1, #127
 3215 004c 01E0     		b	.L213
 3216              	.L217:
 230:ctrl_pend.c   ****     return (q7_t)(v * 128.0f);
 3217              		.loc 1 230 0
 3218 004e 6FF07F01 		mvn	r1, #127
 3219              	.L213:
 3220              	.LVL499:
 3221              	.LBE339:
 3222              	.LBE338:
 672:ctrl_pend.c   **** 
 673:ctrl_pend.c   ****     q7_t Linv[2];
 674:ctrl_pend.c   ****     arm_scale_q7(lp->qL7, innov_q, 0, Linv, 2u);
 3223              		.loc 1 674 0
 3224 0052 0223     		movs	r3, #2
 3225 0054 0093     		str	r3, [sp]
 3226 0056 05AB     		add	r3, sp, #20
 3227 0058 0022     		movs	r2, #0
 3228 005a 04F58370 		add	r0, r4, #262
 3229 005e FFF7FEFF 		bl	arm_scale_q7
 3230              	.LVL500:
 675:ctrl_pend.c   **** 
 676:ctrl_pend.c   ****     q7_t zhat_q[2];
 677:ctrl_pend.c   ****     zhat_q[0] = flt_to_q7n(lp->zhat[0] / qs);
 3231              		.loc 1 677 0
 3232 0062 2946     		mov	r1, r5
 3233 0064 D4F88800 		ldr	r0, [r4, #136]	@ float
 3234 0068 FFF7FEFF 		bl	__aeabi_fdiv
 3235              	.LVL501:
 3236 006c 0646     		mov	r6, r0
ARM GAS  C:\Users\user\AppData\Local\Temp\cc6TIdBD.s 			page 76


 3237              	.LVL502:
 3238              	.LBB340:
 3239              	.LBB341:
 229:ctrl_pend.c   ****     if (v < -1.0f)  return  (q7_t)0x80;
 3240              		.loc 1 229 0
 3241 006e 4FF07E51 		mov	r1, #1065353216
 3242 0072 FFF7FEFF 		bl	__aeabi_fcmpge
 3243              	.LVL503:
 3244 0076 68B9     		cbnz	r0, .L218
 230:ctrl_pend.c   ****     return (q7_t)(v * 128.0f);
 3245              		.loc 1 230 0
 3246 0078 2B49     		ldr	r1, .L223
 3247 007a 3046     		mov	r0, r6
 3248 007c FFF7FEFF 		bl	__aeabi_fcmplt
 3249              	.LVL504:
 3250 0080 50B9     		cbnz	r0, .L219
 231:ctrl_pend.c   **** }
 3251              		.loc 1 231 0
 3252 0082 4FF08641 		mov	r1, #1124073472
 3253 0086 3046     		mov	r0, r6
 3254 0088 FFF7FEFF 		bl	__aeabi_fmul
 3255              	.LVL505:
 3256 008c FFF7FEFF 		bl	__aeabi_f2iz
 3257              	.LVL506:
 3258 0090 40B2     		sxtb	r0, r0
 3259 0092 03E0     		b	.L214
 3260              	.L218:
 229:ctrl_pend.c   ****     if (v < -1.0f)  return  (q7_t)0x80;
 3261              		.loc 1 229 0
 3262 0094 7F20     		movs	r0, #127
 3263 0096 01E0     		b	.L214
 3264              	.L219:
 230:ctrl_pend.c   ****     return (q7_t)(v * 128.0f);
 3265              		.loc 1 230 0
 3266 0098 6FF07F00 		mvn	r0, #127
 3267              	.L214:
 3268              	.LVL507:
 3269              	.LBE341:
 3270              	.LBE340:
 3271              		.loc 1 677 0
 3272 009c 8DF81000 		strb	r0, [sp, #16]
 678:ctrl_pend.c   ****     zhat_q[1] = flt_to_q7n(lp->zhat[1] / qs);
 3273              		.loc 1 678 0
 3274 00a0 2946     		mov	r1, r5
 3275 00a2 D4F88C00 		ldr	r0, [r4, #140]	@ float
 3276 00a6 FFF7FEFF 		bl	__aeabi_fdiv
 3277              	.LVL508:
 3278 00aa 0646     		mov	r6, r0
 3279              	.LVL509:
 3280              	.LBB342:
 3281              	.LBB343:
 229:ctrl_pend.c   ****     if (v < -1.0f)  return  (q7_t)0x80;
 3282              		.loc 1 229 0
 3283 00ac 4FF07E51 		mov	r1, #1065353216
 3284 00b0 FFF7FEFF 		bl	__aeabi_fcmpge
 3285              	.LVL510:
 3286 00b4 68B9     		cbnz	r0, .L220
ARM GAS  C:\Users\user\AppData\Local\Temp\cc6TIdBD.s 			page 77


 230:ctrl_pend.c   ****     return (q7_t)(v * 128.0f);
 3287              		.loc 1 230 0
 3288 00b6 1C49     		ldr	r1, .L223
 3289 00b8 3046     		mov	r0, r6
 3290 00ba FFF7FEFF 		bl	__aeabi_fcmplt
 3291              	.LVL511:
 3292 00be 50B9     		cbnz	r0, .L221
 231:ctrl_pend.c   **** }
 3293              		.loc 1 231 0
 3294 00c0 4FF08641 		mov	r1, #1124073472
 3295 00c4 3046     		mov	r0, r6
 3296 00c6 FFF7FEFF 		bl	__aeabi_fmul
 3297              	.LVL512:
 3298 00ca FFF7FEFF 		bl	__aeabi_f2iz
 3299              	.LVL513:
 3300 00ce 40B2     		sxtb	r0, r0
 3301 00d0 03E0     		b	.L215
 3302              	.L220:
 229:ctrl_pend.c   ****     if (v < -1.0f)  return  (q7_t)0x80;
 3303              		.loc 1 229 0
 3304 00d2 7F20     		movs	r0, #127
 3305 00d4 01E0     		b	.L215
 3306              	.L221:
 230:ctrl_pend.c   ****     return (q7_t)(v * 128.0f);
 3307              		.loc 1 230 0
 3308 00d6 6FF07F00 		mvn	r0, #127
 3309              	.L215:
 3310              	.LVL514:
 3311              	.LBE343:
 3312              	.LBE342:
 3313              		.loc 1 678 0
 3314 00da 8DF81100 		strb	r0, [sp, #17]
 679:ctrl_pend.c   ****     q7_t xhat_q[2];
 680:ctrl_pend.c   ****     arm_add_q7(zhat_q, Linv, xhat_q, 2u);
 3315              		.loc 1 680 0
 3316 00de 0223     		movs	r3, #2
 3317 00e0 03AA     		add	r2, sp, #12
 3318 00e2 05A9     		add	r1, sp, #20
 3319 00e4 04A8     		add	r0, sp, #16
 3320 00e6 FFF7FEFF 		bl	arm_add_q7
 3321              	.LVL515:
 3322              	.LBB344:
 3323              	.LBB345:
 235:ctrl_pend.c   **** }
 3324              		.loc 1 235 0
 3325 00ea 9DF90C00 		ldrsb	r0, [sp, #12]
 3326 00ee FFF7FEFF 		bl	__aeabi_i2f
 3327              	.LVL516:
 3328 00f2 4FF07051 		mov	r1, #1006632960
 3329 00f6 FFF7FEFF 		bl	__aeabi_fmul
 3330              	.LVL517:
 3331              	.LBE345:
 3332              	.LBE344:
 681:ctrl_pend.c   **** 
 682:ctrl_pend.c   ****     lp->xhat[0] = q7_to_flt(xhat_q[0]) * qs;
 3333              		.loc 1 682 0
 3334 00fa 0146     		mov	r1, r0
ARM GAS  C:\Users\user\AppData\Local\Temp\cc6TIdBD.s 			page 78


 3335 00fc 2846     		mov	r0, r5
 3336 00fe FFF7FEFF 		bl	__aeabi_fmul
 3337              	.LVL518:
 3338 0102 C4F88000 		str	r0, [r4, #128]	@ float
 3339              	.LVL519:
 3340              	.LBB346:
 3341              	.LBB347:
 235:ctrl_pend.c   **** }
 3342              		.loc 1 235 0
 3343 0106 9DF90D00 		ldrsb	r0, [sp, #13]
 3344 010a FFF7FEFF 		bl	__aeabi_i2f
 3345              	.LVL520:
 3346 010e 4FF07051 		mov	r1, #1006632960
 3347 0112 FFF7FEFF 		bl	__aeabi_fmul
 3348              	.LVL521:
 3349              	.LBE347:
 3350              	.LBE346:
 683:ctrl_pend.c   ****     lp->xhat[1] = q7_to_flt(xhat_q[1]) * qs;
 3351              		.loc 1 683 0
 3352 0116 0146     		mov	r1, r0
 3353 0118 2846     		mov	r0, r5
 3354 011a FFF7FEFF 		bl	__aeabi_fmul
 3355              	.LVL522:
 3356 011e C4F88400 		str	r0, [r4, #132]	@ float
 684:ctrl_pend.c   **** }
 3357              		.loc 1 684 0
 3358 0122 06B0     		add	sp, sp, #24
 3359              		.cfi_def_cfa_offset 16
 3360              		@ sp needed
 3361 0124 70BD     		pop	{r4, r5, r6, pc}
 3362              	.LVL523:
 3363              	.L224:
 3364 0126 00BF     		.align	2
 3365              	.L223:
 3366 0128 000080BF 		.word	-1082130432
 3367              		.cfi_endproc
 3368              	.LFE154:
 3369              		.size	ss_obs_act_correct_q7, .-ss_obs_act_correct_q7
 3370              		.section	.text.ss_predict_q7,"ax",%progbits
 3371              		.align	2
 3372              		.thumb
 3373              		.thumb_func
 3374              		.type	ss_predict_q7, %function
 3375              	ss_predict_q7:
 3376              	.LFB151:
 603:ctrl_pend.c   ****     float qs = lp->q_scale;
 3377              		.loc 1 603 0
 3378              		.cfi_startproc
 3379              		@ args = 0, pretend = 0, frame = 16
 3380              		@ frame_needed = 0, uses_anonymous_args = 0
 3381              	.LVL524:
 3382 0000 2DE9F043 		push	{r4, r5, r6, r7, r8, r9, lr}
 3383              		.cfi_def_cfa_offset 28
 3384              		.cfi_offset 4, -28
 3385              		.cfi_offset 5, -24
 3386              		.cfi_offset 6, -20
 3387              		.cfi_offset 7, -16
ARM GAS  C:\Users\user\AppData\Local\Temp\cc6TIdBD.s 			page 79


 3388              		.cfi_offset 8, -12
 3389              		.cfi_offset 9, -8
 3390              		.cfi_offset 14, -4
 3391 0004 87B0     		sub	sp, sp, #28
 3392              		.cfi_def_cfa_offset 56
 3393 0006 0646     		mov	r6, r0
 3394 0008 0F46     		mov	r7, r1
 3395 000a 9046     		mov	r8, r2
 3396 000c 1D46     		mov	r5, r3
 604:ctrl_pend.c   ****     q7_t xq[2], Buq[2];
 3397              		.loc 1 604 0
 3398 000e D0F8A440 		ldr	r4, [r0, #164]	@ float
 3399              	.LVL525:
 608:ctrl_pend.c   ****     xq[1] = flt_to_q7n(x[1] / qs);
 3400              		.loc 1 608 0
 3401 0012 2146     		mov	r1, r4
 3402              	.LVL526:
 3403 0014 3868     		ldr	r0, [r7]	@ float
 3404              	.LVL527:
 3405 0016 FFF7FEFF 		bl	__aeabi_fdiv
 3406              	.LVL528:
 3407 001a 8146     		mov	r9, r0
 3408              	.LVL529:
 3409              	.LBB348:
 3410              	.LBB349:
 229:ctrl_pend.c   ****     if (v < -1.0f)  return  (q7_t)0x80;
 3411              		.loc 1 229 0
 3412 001c 4FF07E51 		mov	r1, #1065353216
 3413 0020 FFF7FEFF 		bl	__aeabi_fcmpge
 3414              	.LVL530:
 3415 0024 68B9     		cbnz	r0, .L233
 230:ctrl_pend.c   ****     return (q7_t)(v * 128.0f);
 3416              		.loc 1 230 0
 3417 0026 5A49     		ldr	r1, .L248
 3418 0028 4846     		mov	r0, r9
 3419 002a FFF7FEFF 		bl	__aeabi_fcmplt
 3420              	.LVL531:
 3421 002e 50B9     		cbnz	r0, .L234
 231:ctrl_pend.c   **** }
 3422              		.loc 1 231 0
 3423 0030 4FF08641 		mov	r1, #1124073472
 3424 0034 4846     		mov	r0, r9
 3425 0036 FFF7FEFF 		bl	__aeabi_fmul
 3426              	.LVL532:
 3427 003a FFF7FEFF 		bl	__aeabi_f2iz
 3428              	.LVL533:
 3429 003e 40B2     		sxtb	r0, r0
 3430 0040 03E0     		b	.L226
 3431              	.L233:
 229:ctrl_pend.c   ****     if (v < -1.0f)  return  (q7_t)0x80;
 3432              		.loc 1 229 0
 3433 0042 7F20     		movs	r0, #127
 3434 0044 01E0     		b	.L226
 3435              	.L234:
 230:ctrl_pend.c   ****     return (q7_t)(v * 128.0f);
 3436              		.loc 1 230 0
 3437 0046 6FF07F00 		mvn	r0, #127
ARM GAS  C:\Users\user\AppData\Local\Temp\cc6TIdBD.s 			page 80


 3438              	.L226:
 3439              	.LVL534:
 3440              	.LBE349:
 3441              	.LBE348:
 608:ctrl_pend.c   ****     xq[1] = flt_to_q7n(x[1] / qs);
 3442              		.loc 1 608 0
 3443 004a 8DF81400 		strb	r0, [sp, #20]
 609:ctrl_pend.c   ****     q7_t uq = flt_to_q7n(u / qs);
 3444              		.loc 1 609 0
 3445 004e 2146     		mov	r1, r4
 3446 0050 7868     		ldr	r0, [r7, #4]	@ float
 3447 0052 FFF7FEFF 		bl	__aeabi_fdiv
 3448              	.LVL535:
 3449 0056 0746     		mov	r7, r0
 3450              	.LVL536:
 3451              	.LBB350:
 3452              	.LBB351:
 229:ctrl_pend.c   ****     if (v < -1.0f)  return  (q7_t)0x80;
 3453              		.loc 1 229 0
 3454 0058 4FF07E51 		mov	r1, #1065353216
 3455 005c FFF7FEFF 		bl	__aeabi_fcmpge
 3456              	.LVL537:
 3457 0060 68B9     		cbnz	r0, .L235
 230:ctrl_pend.c   ****     return (q7_t)(v * 128.0f);
 3458              		.loc 1 230 0
 3459 0062 4B49     		ldr	r1, .L248
 3460 0064 3846     		mov	r0, r7
 3461 0066 FFF7FEFF 		bl	__aeabi_fcmplt
 3462              	.LVL538:
 3463 006a 50B9     		cbnz	r0, .L236
 231:ctrl_pend.c   **** }
 3464              		.loc 1 231 0
 3465 006c 4FF08641 		mov	r1, #1124073472
 3466 0070 3846     		mov	r0, r7
 3467 0072 FFF7FEFF 		bl	__aeabi_fmul
 3468              	.LVL539:
 3469 0076 FFF7FEFF 		bl	__aeabi_f2iz
 3470              	.LVL540:
 3471 007a 40B2     		sxtb	r0, r0
 3472 007c 03E0     		b	.L227
 3473              	.L235:
 229:ctrl_pend.c   ****     if (v < -1.0f)  return  (q7_t)0x80;
 3474              		.loc 1 229 0
 3475 007e 7F20     		movs	r0, #127
 3476 0080 01E0     		b	.L227
 3477              	.L236:
 230:ctrl_pend.c   ****     return (q7_t)(v * 128.0f);
 3478              		.loc 1 230 0
 3479 0082 6FF07F00 		mvn	r0, #127
 3480              	.L227:
 3481              	.LVL541:
 3482              	.LBE351:
 3483              	.LBE350:
 609:ctrl_pend.c   ****     q7_t uq = flt_to_q7n(u / qs);
 3484              		.loc 1 609 0
 3485 0086 8DF81500 		strb	r0, [sp, #21]
 610:ctrl_pend.c   **** 
ARM GAS  C:\Users\user\AppData\Local\Temp\cc6TIdBD.s 			page 81


 3486              		.loc 1 610 0
 3487 008a 2146     		mov	r1, r4
 3488 008c 4046     		mov	r0, r8
 3489 008e FFF7FEFF 		bl	__aeabi_fdiv
 3490              	.LVL542:
 3491 0092 0746     		mov	r7, r0
 3492              	.LVL543:
 3493              	.LBB352:
 3494              	.LBB353:
 229:ctrl_pend.c   ****     if (v < -1.0f)  return  (q7_t)0x80;
 3495              		.loc 1 229 0
 3496 0094 4FF07E51 		mov	r1, #1065353216
 3497 0098 FFF7FEFF 		bl	__aeabi_fcmpge
 3498              	.LVL544:
 3499 009c 68B9     		cbnz	r0, .L237
 230:ctrl_pend.c   ****     return (q7_t)(v * 128.0f);
 3500              		.loc 1 230 0
 3501 009e 3C49     		ldr	r1, .L248
 3502 00a0 3846     		mov	r0, r7
 3503 00a2 FFF7FEFF 		bl	__aeabi_fcmplt
 3504              	.LVL545:
 3505 00a6 50B9     		cbnz	r0, .L238
 231:ctrl_pend.c   **** }
 3506              		.loc 1 231 0
 3507 00a8 4FF08641 		mov	r1, #1124073472
 3508 00ac 3846     		mov	r0, r7
 3509 00ae FFF7FEFF 		bl	__aeabi_fmul
 3510              	.LVL546:
 3511 00b2 FFF7FEFF 		bl	__aeabi_f2iz
 3512              	.LVL547:
 3513 00b6 41B2     		sxtb	r1, r0
 3514 00b8 03E0     		b	.L228
 3515              	.L237:
 229:ctrl_pend.c   ****     if (v < -1.0f)  return  (q7_t)0x80;
 3516              		.loc 1 229 0
 3517 00ba 7F21     		movs	r1, #127
 3518 00bc 01E0     		b	.L228
 3519              	.L238:
 230:ctrl_pend.c   ****     return (q7_t)(v * 128.0f);
 3520              		.loc 1 230 0
 3521 00be 6FF07F01 		mvn	r1, #127
 3522              	.L228:
 3523              	.LVL548:
 3524              	.LBE353:
 3525              	.LBE352:
 613:ctrl_pend.c   **** 
 3526              		.loc 1 613 0
 3527 00c2 0227     		movs	r7, #2
 3528 00c4 0097     		str	r7, [sp]
 3529 00c6 04AB     		add	r3, sp, #16
 3530 00c8 0022     		movs	r2, #0
 3531 00ca 06F58070 		add	r0, r6, #256
 3532 00ce FFF7FEFF 		bl	arm_scale_q7
 3533              	.LVL549:
 615:ctrl_pend.c   ****     q7_t Ax0 = qsat7((q15_t)(dot7 >> 7));
 3534              		.loc 1 615 0
 3535 00d2 03AB     		add	r3, sp, #12
ARM GAS  C:\Users\user\AppData\Local\Temp\cc6TIdBD.s 			page 82


 3536 00d4 3A46     		mov	r2, r7
 3537 00d6 05A9     		add	r1, sp, #20
 3538 00d8 06F1FC00 		add	r0, r6, #252
 3539 00dc FFF7FEFF 		bl	arm_dot_prod_q7
 3540              	.LVL550:
 616:ctrl_pend.c   ****     z[0] = q7_to_flt(qsat7((q15_t)Ax0 + Buq[0])) * qs;
 3541              		.loc 1 616 0
 3542 00e0 039B     		ldr	r3, [sp, #12]
 3543 00e2 DB11     		asrs	r3, r3, #7
 3544 00e4 1AB2     		sxth	r2, r3
 3545              	.LVL551:
 3546              	.LBB354:
 3547              	.LBB355:
 250:ctrl_pend.c   ****     if (v < (q15_t)0xFF80) return (q7_t)0x80;
 3548              		.loc 1 250 0
 3549 00e6 7F2A     		cmp	r2, #127
 3550 00e8 04DC     		bgt	.L239
 251:ctrl_pend.c   ****     return (q7_t)v;
 3551              		.loc 1 251 0
 3552 00ea 12F1800F 		cmn	r2, #128
 3553 00ee 03DB     		blt	.L240
 252:ctrl_pend.c   **** }
 3554              		.loc 1 252 0
 3555 00f0 5BB2     		sxtb	r3, r3
 3556 00f2 03E0     		b	.L229
 3557              	.L239:
 250:ctrl_pend.c   ****     if (v < (q15_t)0xFF80) return (q7_t)0x80;
 3558              		.loc 1 250 0
 3559 00f4 7F23     		movs	r3, #127
 3560 00f6 01E0     		b	.L229
 3561              	.L240:
 251:ctrl_pend.c   ****     return (q7_t)v;
 3562              		.loc 1 251 0
 3563 00f8 6FF07F03 		mvn	r3, #127
 3564              	.L229:
 3565              	.LVL552:
 3566              	.LBE355:
 3567              	.LBE354:
 617:ctrl_pend.c   **** 
 3568              		.loc 1 617 0
 3569 00fc 9DF91000 		ldrsb	r0, [sp, #16]
 3570 0100 1A18     		adds	r2, r3, r0
 3571              	.LVL553:
 3572              	.LBB356:
 3573              	.LBB357:
 250:ctrl_pend.c   ****     if (v < (q15_t)0xFF80) return (q7_t)0x80;
 3574              		.loc 1 250 0
 3575 0102 7F2A     		cmp	r2, #127
 3576 0104 04DC     		bgt	.L241
 251:ctrl_pend.c   ****     return (q7_t)v;
 3577              		.loc 1 251 0
 3578 0106 12F1800F 		cmn	r2, #128
 3579 010a 03DB     		blt	.L242
 252:ctrl_pend.c   **** }
 3580              		.loc 1 252 0
 3581 010c 50B2     		sxtb	r0, r2
 3582 010e 03E0     		b	.L230
ARM GAS  C:\Users\user\AppData\Local\Temp\cc6TIdBD.s 			page 83


 3583              	.L241:
 250:ctrl_pend.c   ****     if (v < (q15_t)0xFF80) return (q7_t)0x80;
 3584              		.loc 1 250 0
 3585 0110 7F20     		movs	r0, #127
 3586 0112 01E0     		b	.L230
 3587              	.L242:
 251:ctrl_pend.c   ****     return (q7_t)v;
 3588              		.loc 1 251 0
 3589 0114 6FF07F00 		mvn	r0, #127
 3590              	.L230:
 3591              	.LVL554:
 3592              	.LBE357:
 3593              	.LBE356:
 3594              	.LBB358:
 3595              	.LBB359:
 235:ctrl_pend.c   **** }
 3596              		.loc 1 235 0
 3597 0118 FFF7FEFF 		bl	__aeabi_i2f
 3598              	.LVL555:
 3599 011c 4FF07051 		mov	r1, #1006632960
 3600 0120 FFF7FEFF 		bl	__aeabi_fmul
 3601              	.LVL556:
 3602              	.LBE359:
 3603              	.LBE358:
 617:ctrl_pend.c   **** 
 3604              		.loc 1 617 0
 3605 0124 0146     		mov	r1, r0
 3606 0126 2046     		mov	r0, r4
 3607 0128 FFF7FEFF 		bl	__aeabi_fmul
 3608              	.LVL557:
 3609 012c 2860     		str	r0, [r5]	@ float
 619:ctrl_pend.c   ****     q7_t Ax1 = qsat7((q15_t)(dot7 >> 7));
 3610              		.loc 1 619 0
 3611 012e 03AB     		add	r3, sp, #12
 3612 0130 0222     		movs	r2, #2
 3613 0132 05A9     		add	r1, sp, #20
 3614 0134 06F1FE00 		add	r0, r6, #254
 3615 0138 FFF7FEFF 		bl	arm_dot_prod_q7
 3616              	.LVL558:
 620:ctrl_pend.c   ****     z[1] = q7_to_flt(qsat7((q15_t)Ax1 + Buq[1])) * qs;
 3617              		.loc 1 620 0
 3618 013c 039B     		ldr	r3, [sp, #12]
 3619 013e DB11     		asrs	r3, r3, #7
 3620 0140 1AB2     		sxth	r2, r3
 3621              	.LVL559:
 3622              	.LBB360:
 3623              	.LBB361:
 250:ctrl_pend.c   ****     if (v < (q15_t)0xFF80) return (q7_t)0x80;
 3624              		.loc 1 250 0
 3625 0142 7F2A     		cmp	r2, #127
 3626 0144 04DC     		bgt	.L243
 251:ctrl_pend.c   ****     return (q7_t)v;
 3627              		.loc 1 251 0
 3628 0146 12F1800F 		cmn	r2, #128
 3629 014a 03DB     		blt	.L244
 252:ctrl_pend.c   **** }
 3630              		.loc 1 252 0
ARM GAS  C:\Users\user\AppData\Local\Temp\cc6TIdBD.s 			page 84


 3631 014c 5BB2     		sxtb	r3, r3
 3632 014e 03E0     		b	.L231
 3633              	.L243:
 250:ctrl_pend.c   ****     if (v < (q15_t)0xFF80) return (q7_t)0x80;
 3634              		.loc 1 250 0
 3635 0150 7F23     		movs	r3, #127
 3636 0152 01E0     		b	.L231
 3637              	.L244:
 251:ctrl_pend.c   ****     return (q7_t)v;
 3638              		.loc 1 251 0
 3639 0154 6FF07F03 		mvn	r3, #127
 3640              	.L231:
 3641              	.LVL560:
 3642              	.LBE361:
 3643              	.LBE360:
 621:ctrl_pend.c   **** }
 3644              		.loc 1 621 0
 3645 0158 9DF91100 		ldrsb	r0, [sp, #17]
 3646 015c 1A18     		adds	r2, r3, r0
 3647              	.LVL561:
 3648              	.LBB362:
 3649              	.LBB363:
 250:ctrl_pend.c   ****     if (v < (q15_t)0xFF80) return (q7_t)0x80;
 3650              		.loc 1 250 0
 3651 015e 7F2A     		cmp	r2, #127
 3652 0160 04DC     		bgt	.L245
 251:ctrl_pend.c   ****     return (q7_t)v;
 3653              		.loc 1 251 0
 3654 0162 12F1800F 		cmn	r2, #128
 3655 0166 03DB     		blt	.L246
 252:ctrl_pend.c   **** }
 3656              		.loc 1 252 0
 3657 0168 50B2     		sxtb	r0, r2
 3658 016a 03E0     		b	.L232
 3659              	.L245:
 250:ctrl_pend.c   ****     if (v < (q15_t)0xFF80) return (q7_t)0x80;
 3660              		.loc 1 250 0
 3661 016c 7F20     		movs	r0, #127
 3662 016e 01E0     		b	.L232
 3663              	.L246:
 251:ctrl_pend.c   ****     return (q7_t)v;
 3664              		.loc 1 251 0
 3665 0170 6FF07F00 		mvn	r0, #127
 3666              	.L232:
 3667              	.LVL562:
 3668              	.LBE363:
 3669              	.LBE362:
 3670              	.LBB364:
 3671              	.LBB365:
 235:ctrl_pend.c   **** }
 3672              		.loc 1 235 0
 3673 0174 FFF7FEFF 		bl	__aeabi_i2f
 3674              	.LVL563:
 3675 0178 4FF07051 		mov	r1, #1006632960
 3676 017c FFF7FEFF 		bl	__aeabi_fmul
 3677              	.LVL564:
 3678              	.LBE365:
ARM GAS  C:\Users\user\AppData\Local\Temp\cc6TIdBD.s 			page 85


 3679              	.LBE364:
 621:ctrl_pend.c   **** }
 3680              		.loc 1 621 0
 3681 0180 0146     		mov	r1, r0
 3682 0182 2046     		mov	r0, r4
 3683 0184 FFF7FEFF 		bl	__aeabi_fmul
 3684              	.LVL565:
 3685 0188 6860     		str	r0, [r5, #4]	@ float
 622:ctrl_pend.c   **** 
 3686              		.loc 1 622 0
 3687 018a 07B0     		add	sp, sp, #28
 3688              		.cfi_def_cfa_offset 28
 3689              		@ sp needed
 3690 018c BDE8F083 		pop	{r4, r5, r6, r7, r8, r9, pc}
 3691              	.LVL566:
 3692              	.L249:
 3693              		.align	2
 3694              	.L248:
 3695 0190 000080BF 		.word	-1082130432
 3696              		.cfi_endproc
 3697              	.LFE151:
 3698              		.size	ss_predict_q7, .-ss_predict_q7
 3699              		.section	.text.ss_obs_pred_q7,"ax",%progbits
 3700              		.align	2
 3701              		.thumb
 3702              		.thumb_func
 3703              		.type	ss_obs_pred_q7, %function
 3704              	ss_obs_pred_q7:
 3705              	.LFB153:
 644:ctrl_pend.c   ****     float qs = lp->q_scale;
 3706              		.loc 1 644 0
 3707              		.cfi_startproc
 3708              		@ args = 0, pretend = 0, frame = 24
 3709              		@ frame_needed = 0, uses_anonymous_args = 0
 3710              	.LVL567:
 3711 0000 2DE9F041 		push	{r4, r5, r6, r7, r8, lr}
 3712              		.cfi_def_cfa_offset 24
 3713              		.cfi_offset 4, -24
 3714              		.cfi_offset 5, -20
 3715              		.cfi_offset 6, -16
 3716              		.cfi_offset 7, -12
 3717              		.cfi_offset 8, -8
 3718              		.cfi_offset 14, -4
 3719 0004 88B0     		sub	sp, sp, #32
 3720              		.cfi_def_cfa_offset 56
 3721 0006 0446     		mov	r4, r0
 3722 0008 8846     		mov	r8, r1
 3723 000a 1F46     		mov	r7, r3
 645:ctrl_pend.c   **** 
 3724              		.loc 1 645 0
 3725 000c D0F8A450 		ldr	r5, [r0, #164]	@ float
 3726              	.LVL568:
 647:ctrl_pend.c   ****     q7_t innov_q = flt_to_q7n(innov / qs);
 3727              		.loc 1 647 0
 3728 0010 00F18006 		add	r6, r0, #128
 3729 0014 3146     		mov	r1, r6
 3730              	.LVL569:
ARM GAS  C:\Users\user\AppData\Local\Temp\cc6TIdBD.s 			page 86


 3731 0016 FFF7FEFF 		bl	ss_yhat_q7
 3732              	.LVL570:
 3733 001a 0146     		mov	r1, r0
 3734 001c 4046     		mov	r0, r8
 3735 001e FFF7FEFF 		bl	__aeabi_fsub
 3736              	.LVL571:
 648:ctrl_pend.c   **** 
 3737              		.loc 1 648 0
 3738 0022 2946     		mov	r1, r5
 3739 0024 FFF7FEFF 		bl	__aeabi_fdiv
 3740              	.LVL572:
 3741 0028 8046     		mov	r8, r0
 3742              	.LVL573:
 3743              	.LBB366:
 3744              	.LBB367:
 229:ctrl_pend.c   ****     if (v < -1.0f)  return  (q7_t)0x80;
 3745              		.loc 1 229 0
 3746 002a 4FF07E51 		mov	r1, #1065353216
 3747 002e FFF7FEFF 		bl	__aeabi_fcmpge
 3748              	.LVL574:
 3749 0032 70B9     		cbnz	r0, .L254
 230:ctrl_pend.c   ****     return (q7_t)(v * 128.0f);
 3750              		.loc 1 230 0
 3751 0034 4149     		ldr	r1, .L261
 3752 0036 4046     		mov	r0, r8
 3753 0038 FFF7FEFF 		bl	__aeabi_fcmplt
 3754              	.LVL575:
 3755 003c 60B9     		cbnz	r0, .L255
 231:ctrl_pend.c   **** }
 3756              		.loc 1 231 0
 3757 003e 4FF08641 		mov	r1, #1124073472
 3758 0042 4046     		mov	r0, r8
 3759 0044 FFF7FEFF 		bl	__aeabi_fmul
 3760              	.LVL576:
 3761 0048 FFF7FEFF 		bl	__aeabi_f2iz
 3762              	.LVL577:
 3763 004c 4FFA80F8 		sxtb	r8, r0
 3764              	.LVL578:
 3765 0050 04E0     		b	.L251
 3766              	.LVL579:
 3767              	.L254:
 229:ctrl_pend.c   ****     if (v < -1.0f)  return  (q7_t)0x80;
 3768              		.loc 1 229 0
 3769 0052 4FF07F08 		mov	r8, #127
 3770              	.LVL580:
 3771 0056 01E0     		b	.L251
 3772              	.LVL581:
 3773              	.L255:
 230:ctrl_pend.c   ****     return (q7_t)(v * 128.0f);
 3774              		.loc 1 230 0
 3775 0058 6FF07F08 		mvn	r8, #127
 3776              	.LVL582:
 3777              	.L251:
 3778              	.LBE367:
 3779              	.LBE366:
 651:ctrl_pend.c   **** 
 3780              		.loc 1 651 0
ARM GAS  C:\Users\user\AppData\Local\Temp\cc6TIdBD.s 			page 87


 3781 005c 06AB     		add	r3, sp, #24
 3782 005e 3A46     		mov	r2, r7
 3783 0060 3146     		mov	r1, r6
 3784 0062 2046     		mov	r0, r4
 3785 0064 FFF7FEFF 		bl	ss_predict_q7
 3786              	.LVL583:
 654:ctrl_pend.c   **** 
 3787              		.loc 1 654 0
 3788 0068 0223     		movs	r3, #2
 3789 006a 0093     		str	r3, [sp]
 3790 006c 05AB     		add	r3, sp, #20
 3791 006e 0022     		movs	r2, #0
 3792 0070 4146     		mov	r1, r8
 3793 0072 04F58370 		add	r0, r4, #262
 3794 0076 FFF7FEFF 		bl	arm_scale_q7
 3795              	.LVL584:
 657:ctrl_pend.c   ****     zq[1] = flt_to_q7n(z[1] / qs);
 3796              		.loc 1 657 0
 3797 007a 2946     		mov	r1, r5
 3798 007c 0698     		ldr	r0, [sp, #24]	@ float
 3799 007e FFF7FEFF 		bl	__aeabi_fdiv
 3800              	.LVL585:
 3801 0082 0646     		mov	r6, r0
 3802              	.LVL586:
 3803              	.LBB368:
 3804              	.LBB369:
 229:ctrl_pend.c   ****     if (v < -1.0f)  return  (q7_t)0x80;
 3805              		.loc 1 229 0
 3806 0084 4FF07E51 		mov	r1, #1065353216
 3807 0088 FFF7FEFF 		bl	__aeabi_fcmpge
 3808              	.LVL587:
 3809 008c 68B9     		cbnz	r0, .L256
 230:ctrl_pend.c   ****     return (q7_t)(v * 128.0f);
 3810              		.loc 1 230 0
 3811 008e 2B49     		ldr	r1, .L261
 3812 0090 3046     		mov	r0, r6
 3813 0092 FFF7FEFF 		bl	__aeabi_fcmplt
 3814              	.LVL588:
 3815 0096 50B9     		cbnz	r0, .L257
 231:ctrl_pend.c   **** }
 3816              		.loc 1 231 0
 3817 0098 4FF08641 		mov	r1, #1124073472
 3818 009c 3046     		mov	r0, r6
 3819 009e FFF7FEFF 		bl	__aeabi_fmul
 3820              	.LVL589:
 3821 00a2 FFF7FEFF 		bl	__aeabi_f2iz
 3822              	.LVL590:
 3823 00a6 40B2     		sxtb	r0, r0
 3824 00a8 03E0     		b	.L252
 3825              	.L256:
 229:ctrl_pend.c   ****     if (v < -1.0f)  return  (q7_t)0x80;
 3826              		.loc 1 229 0
 3827 00aa 7F20     		movs	r0, #127
 3828 00ac 01E0     		b	.L252
 3829              	.L257:
 230:ctrl_pend.c   ****     return (q7_t)(v * 128.0f);
 3830              		.loc 1 230 0
ARM GAS  C:\Users\user\AppData\Local\Temp\cc6TIdBD.s 			page 88


 3831 00ae 6FF07F00 		mvn	r0, #127
 3832              	.L252:
 3833              	.LVL591:
 3834              	.LBE369:
 3835              	.LBE368:
 657:ctrl_pend.c   ****     zq[1] = flt_to_q7n(z[1] / qs);
 3836              		.loc 1 657 0
 3837 00b2 8DF81000 		strb	r0, [sp, #16]
 658:ctrl_pend.c   ****     q7_t xhat_q[2];
 3838              		.loc 1 658 0
 3839 00b6 2946     		mov	r1, r5
 3840 00b8 0798     		ldr	r0, [sp, #28]	@ float
 3841 00ba FFF7FEFF 		bl	__aeabi_fdiv
 3842              	.LVL592:
 3843 00be 0646     		mov	r6, r0
 3844              	.LVL593:
 3845              	.LBB370:
 3846              	.LBB371:
 229:ctrl_pend.c   ****     if (v < -1.0f)  return  (q7_t)0x80;
 3847              		.loc 1 229 0
 3848 00c0 4FF07E51 		mov	r1, #1065353216
 3849 00c4 FFF7FEFF 		bl	__aeabi_fcmpge
 3850              	.LVL594:
 3851 00c8 68B9     		cbnz	r0, .L258
 230:ctrl_pend.c   ****     return (q7_t)(v * 128.0f);
 3852              		.loc 1 230 0
 3853 00ca 1C49     		ldr	r1, .L261
 3854 00cc 3046     		mov	r0, r6
 3855 00ce FFF7FEFF 		bl	__aeabi_fcmplt
 3856              	.LVL595:
 3857 00d2 50B9     		cbnz	r0, .L259
 231:ctrl_pend.c   **** }
 3858              		.loc 1 231 0
 3859 00d4 4FF08641 		mov	r1, #1124073472
 3860 00d8 3046     		mov	r0, r6
 3861 00da FFF7FEFF 		bl	__aeabi_fmul
 3862              	.LVL596:
 3863 00de FFF7FEFF 		bl	__aeabi_f2iz
 3864              	.LVL597:
 3865 00e2 40B2     		sxtb	r0, r0
 3866 00e4 03E0     		b	.L253
 3867              	.L258:
 229:ctrl_pend.c   ****     if (v < -1.0f)  return  (q7_t)0x80;
 3868              		.loc 1 229 0
 3869 00e6 7F20     		movs	r0, #127
 3870 00e8 01E0     		b	.L253
 3871              	.L259:
 230:ctrl_pend.c   ****     return (q7_t)(v * 128.0f);
 3872              		.loc 1 230 0
 3873 00ea 6FF07F00 		mvn	r0, #127
 3874              	.L253:
 3875              	.LVL598:
 3876              	.LBE371:
 3877              	.LBE370:
 658:ctrl_pend.c   ****     q7_t xhat_q[2];
 3878              		.loc 1 658 0
 3879 00ee 8DF81100 		strb	r0, [sp, #17]
ARM GAS  C:\Users\user\AppData\Local\Temp\cc6TIdBD.s 			page 89


 660:ctrl_pend.c   **** 
 3880              		.loc 1 660 0
 3881 00f2 0223     		movs	r3, #2
 3882 00f4 03AA     		add	r2, sp, #12
 3883 00f6 05A9     		add	r1, sp, #20
 3884 00f8 04A8     		add	r0, sp, #16
 3885 00fa FFF7FEFF 		bl	arm_add_q7
 3886              	.LVL599:
 3887              	.LBB372:
 3888              	.LBB373:
 235:ctrl_pend.c   **** }
 3889              		.loc 1 235 0
 3890 00fe 9DF90C00 		ldrsb	r0, [sp, #12]
 3891 0102 FFF7FEFF 		bl	__aeabi_i2f
 3892              	.LVL600:
 3893 0106 4FF07051 		mov	r1, #1006632960
 3894 010a FFF7FEFF 		bl	__aeabi_fmul
 3895              	.LVL601:
 3896              	.LBE373:
 3897              	.LBE372:
 662:ctrl_pend.c   ****     lp->xhat[1] = q7_to_flt(xhat_q[1]) * qs;
 3898              		.loc 1 662 0
 3899 010e 0146     		mov	r1, r0
 3900 0110 2846     		mov	r0, r5
 3901 0112 FFF7FEFF 		bl	__aeabi_fmul
 3902              	.LVL602:
 3903 0116 C4F88000 		str	r0, [r4, #128]	@ float
 3904              	.LVL603:
 3905              	.LBB374:
 3906              	.LBB375:
 235:ctrl_pend.c   **** }
 3907              		.loc 1 235 0
 3908 011a 9DF90D00 		ldrsb	r0, [sp, #13]
 3909 011e FFF7FEFF 		bl	__aeabi_i2f
 3910              	.LVL604:
 3911 0122 4FF07051 		mov	r1, #1006632960
 3912 0126 FFF7FEFF 		bl	__aeabi_fmul
 3913              	.LVL605:
 3914              	.LBE375:
 3915              	.LBE374:
 663:ctrl_pend.c   **** }
 3916              		.loc 1 663 0
 3917 012a 0146     		mov	r1, r0
 3918 012c 2846     		mov	r0, r5
 3919 012e FFF7FEFF 		bl	__aeabi_fmul
 3920              	.LVL606:
 3921 0132 C4F88400 		str	r0, [r4, #132]	@ float
 664:ctrl_pend.c   **** 
 3922              		.loc 1 664 0
 3923 0136 08B0     		add	sp, sp, #32
 3924              		.cfi_def_cfa_offset 24
 3925              		@ sp needed
 3926 0138 BDE8F081 		pop	{r4, r5, r6, r7, r8, pc}
 3927              	.LVL607:
 3928              	.L262:
 3929              		.align	2
 3930              	.L261:
ARM GAS  C:\Users\user\AppData\Local\Temp\cc6TIdBD.s 			page 90


 3931 013c 000080BF 		.word	-1082130432
 3932              		.cfi_endproc
 3933              	.LFE153:
 3934              		.size	ss_obs_pred_q7, .-ss_obs_pred_q7
 3935              		.section	.text.ss_obs_act_predict_q7,"ax",%progbits
 3936              		.align	2
 3937              		.thumb
 3938              		.thumb_func
 3939              		.type	ss_obs_act_predict_q7, %function
 3940              	ss_obs_act_predict_q7:
 3941              	.LFB155:
 685:ctrl_pend.c   **** 
 686:ctrl_pend.c   **** static void ss_obs_act_predict_q7(CtrlLoop *lp, float u_k)
 687:ctrl_pend.c   **** {
 3942              		.loc 1 687 0
 3943              		.cfi_startproc
 3944              		@ args = 0, pretend = 0, frame = 0
 3945              		@ frame_needed = 0, uses_anonymous_args = 0
 3946              	.LVL608:
 3947 0000 10B5     		push	{r4, lr}
 3948              		.cfi_def_cfa_offset 8
 3949              		.cfi_offset 4, -8
 3950              		.cfi_offset 14, -4
 688:ctrl_pend.c   ****     ss_predict_q7(lp, lp->xhat, u_k, lp->zhat);
 3951              		.loc 1 688 0
 3952 0002 00F18803 		add	r3, r0, #136
 3953 0006 0A46     		mov	r2, r1
 3954 0008 00F18001 		add	r1, r0, #128
 3955              	.LVL609:
 3956 000c FFF7FEFF 		bl	ss_predict_q7
 3957              	.LVL610:
 3958 0010 10BD     		pop	{r4, pc}
 3959              		.cfi_endproc
 3960              	.LFE155:
 3961              		.size	ss_obs_act_predict_q7, .-ss_obs_act_predict_q7
 3962 0012 00BF     		.section	.text.ss_u_cmd_q7,"ax",%progbits
 3963              		.align	2
 3964              		.thumb
 3965              		.thumb_func
 3966              		.type	ss_u_cmd_q7, %function
 3967              	ss_u_cmd_q7:
 3968              	.LFB152:
 625:ctrl_pend.c   ****     float qs = lp->q_scale;
 3969              		.loc 1 625 0
 3970              		.cfi_startproc
 3971              		@ args = 0, pretend = 0, frame = 8
 3972              		@ frame_needed = 0, uses_anonymous_args = 0
 3973              	.LVL611:
 3974 0000 70B5     		push	{r4, r5, r6, lr}
 3975              		.cfi_def_cfa_offset 16
 3976              		.cfi_offset 4, -16
 3977              		.cfi_offset 5, -12
 3978              		.cfi_offset 6, -8
 3979              		.cfi_offset 14, -4
 3980 0002 82B0     		sub	sp, sp, #8
 3981              		.cfi_def_cfa_offset 24
 3982 0004 0446     		mov	r4, r0
ARM GAS  C:\Users\user\AppData\Local\Temp\cc6TIdBD.s 			page 91


 626:ctrl_pend.c   ****     q7_t xhat_q[2];
 3983              		.loc 1 626 0
 3984 0006 D0F8A460 		ldr	r6, [r0, #164]	@ float
 3985              	.LVL612:
 630:ctrl_pend.c   ****     xhat_q[1] = flt_to_q7n(lp->xhat[1] / qs);
 3986              		.loc 1 630 0
 3987 000a 3146     		mov	r1, r6
 3988 000c D0F88000 		ldr	r0, [r0, #128]	@ float
 3989              	.LVL613:
 3990 0010 FFF7FEFF 		bl	__aeabi_fdiv
 3991              	.LVL614:
 3992 0014 0546     		mov	r5, r0
 3993              	.LVL615:
 3994              	.LBB376:
 3995              	.LBB377:
 229:ctrl_pend.c   ****     if (v < -1.0f)  return  (q7_t)0x80;
 3996              		.loc 1 229 0
 3997 0016 4FF07E51 		mov	r1, #1065353216
 3998 001a FFF7FEFF 		bl	__aeabi_fcmpge
 3999              	.LVL616:
 4000 001e 68B9     		cbnz	r0, .L273
 230:ctrl_pend.c   ****     return (q7_t)(v * 128.0f);
 4001              		.loc 1 230 0
 4002 0020 4449     		ldr	r1, .L284
 4003 0022 2846     		mov	r0, r5
 4004 0024 FFF7FEFF 		bl	__aeabi_fcmplt
 4005              	.LVL617:
 4006 0028 50B9     		cbnz	r0, .L274
 231:ctrl_pend.c   **** }
 4007              		.loc 1 231 0
 4008 002a 4FF08641 		mov	r1, #1124073472
 4009 002e 2846     		mov	r0, r5
 4010 0030 FFF7FEFF 		bl	__aeabi_fmul
 4011              	.LVL618:
 4012 0034 FFF7FEFF 		bl	__aeabi_f2iz
 4013              	.LVL619:
 4014 0038 40B2     		sxtb	r0, r0
 4015 003a 03E0     		b	.L266
 4016              	.L273:
 229:ctrl_pend.c   ****     if (v < -1.0f)  return  (q7_t)0x80;
 4017              		.loc 1 229 0
 4018 003c 7F20     		movs	r0, #127
 4019 003e 01E0     		b	.L266
 4020              	.L274:
 230:ctrl_pend.c   ****     return (q7_t)(v * 128.0f);
 4021              		.loc 1 230 0
 4022 0040 6FF07F00 		mvn	r0, #127
 4023              	.L266:
 4024              	.LVL620:
 4025              	.LBE377:
 4026              	.LBE376:
 630:ctrl_pend.c   ****     xhat_q[1] = flt_to_q7n(lp->xhat[1] / qs);
 4027              		.loc 1 630 0
 4028 0044 8DF80400 		strb	r0, [sp, #4]
 631:ctrl_pend.c   **** 
 4029              		.loc 1 631 0
 4030 0048 3146     		mov	r1, r6
ARM GAS  C:\Users\user\AppData\Local\Temp\cc6TIdBD.s 			page 92


 4031 004a D4F88400 		ldr	r0, [r4, #132]	@ float
 4032 004e FFF7FEFF 		bl	__aeabi_fdiv
 4033              	.LVL621:
 4034 0052 0546     		mov	r5, r0
 4035              	.LVL622:
 4036              	.LBB378:
 4037              	.LBB379:
 229:ctrl_pend.c   ****     if (v < -1.0f)  return  (q7_t)0x80;
 4038              		.loc 1 229 0
 4039 0054 4FF07E51 		mov	r1, #1065353216
 4040 0058 FFF7FEFF 		bl	__aeabi_fcmpge
 4041              	.LVL623:
 4042 005c 68B9     		cbnz	r0, .L275
 230:ctrl_pend.c   ****     return (q7_t)(v * 128.0f);
 4043              		.loc 1 230 0
 4044 005e 3549     		ldr	r1, .L284
 4045 0060 2846     		mov	r0, r5
 4046 0062 FFF7FEFF 		bl	__aeabi_fcmplt
 4047              	.LVL624:
 4048 0066 50B9     		cbnz	r0, .L276
 231:ctrl_pend.c   **** }
 4049              		.loc 1 231 0
 4050 0068 4FF08641 		mov	r1, #1124073472
 4051 006c 2846     		mov	r0, r5
 4052 006e FFF7FEFF 		bl	__aeabi_fmul
 4053              	.LVL625:
 4054 0072 FFF7FEFF 		bl	__aeabi_f2iz
 4055              	.LVL626:
 4056 0076 40B2     		sxtb	r0, r0
 4057 0078 03E0     		b	.L267
 4058              	.L275:
 229:ctrl_pend.c   ****     if (v < -1.0f)  return  (q7_t)0x80;
 4059              		.loc 1 229 0
 4060 007a 7F20     		movs	r0, #127
 4061 007c 01E0     		b	.L267
 4062              	.L276:
 230:ctrl_pend.c   ****     return (q7_t)(v * 128.0f);
 4063              		.loc 1 230 0
 4064 007e 6FF07F00 		mvn	r0, #127
 4065              	.L267:
 4066              	.LVL627:
 4067              	.LBE379:
 4068              	.LBE378:
 631:ctrl_pend.c   **** 
 4069              		.loc 1 631 0
 4070 0082 8DF80500 		strb	r0, [sp, #5]
 633:ctrl_pend.c   ****     q7_t kx = qsat7((q15_t)(dot7 >> 7));
 4071              		.loc 1 633 0
 4072 0086 6B46     		mov	r3, sp
 4073 0088 0222     		movs	r2, #2
 4074 008a 01A9     		add	r1, sp, #4
 4075 008c 04F58270 		add	r0, r4, #260
 4076 0090 FFF7FEFF 		bl	arm_dot_prod_q7
 4077              	.LVL628:
 634:ctrl_pend.c   **** 
 4078              		.loc 1 634 0
 4079 0094 009D     		ldr	r5, [sp]
ARM GAS  C:\Users\user\AppData\Local\Temp\cc6TIdBD.s 			page 93


 4080 0096 ED11     		asrs	r5, r5, #7
 4081 0098 2BB2     		sxth	r3, r5
 4082              	.LVL629:
 4083              	.LBB380:
 4084              	.LBB381:
 250:ctrl_pend.c   ****     if (v < (q15_t)0xFF80) return (q7_t)0x80;
 4085              		.loc 1 250 0
 4086 009a 7F2B     		cmp	r3, #127
 4087 009c 04DC     		bgt	.L277
 251:ctrl_pend.c   ****     return (q7_t)v;
 4088              		.loc 1 251 0
 4089 009e 13F1800F 		cmn	r3, #128
 4090 00a2 03DB     		blt	.L278
 252:ctrl_pend.c   **** }
 4091              		.loc 1 252 0
 4092 00a4 6DB2     		sxtb	r5, r5
 4093 00a6 03E0     		b	.L268
 4094              	.L277:
 250:ctrl_pend.c   ****     if (v < (q15_t)0xFF80) return (q7_t)0x80;
 4095              		.loc 1 250 0
 4096 00a8 7F25     		movs	r5, #127
 4097 00aa 01E0     		b	.L268
 4098              	.L278:
 251:ctrl_pend.c   ****     return (q7_t)v;
 4099              		.loc 1 251 0
 4100 00ac 6FF07F05 		mvn	r5, #127
 4101              	.L268:
 4102              	.LVL630:
 4103              	.LBE381:
 4104              	.LBE380:
 636:ctrl_pend.c   ****                                          : (lp->Kx * lp->ref);
 4105              		.loc 1 636 0
 4106 00b0 2078     		ldrb	r0, [r4]	@ zero_extendqisi2
 4107 00b2 FFF7FEFF 		bl	mode_has_i
 4108              	.LVL631:
 637:ctrl_pend.c   ****     q7_t extra_q = flt_to_q7n(extra_f / qs);
 4109              		.loc 1 637 0
 4110 00b6 28B1     		cbz	r0, .L269
 637:ctrl_pend.c   ****     q7_t extra_q = flt_to_q7n(extra_f / qs);
 4111              		.loc 1 637 0 is_stmt 0 discriminator 1
 4112 00b8 D4F89010 		ldr	r1, [r4, #144]	@ float
 4113 00bc E06F     		ldr	r0, [r4, #124]	@ float
 4114 00be FFF7FEFF 		bl	__aeabi_fmul
 4115              	.LVL632:
 4116 00c2 04E0     		b	.L270
 4117              	.L269:
 637:ctrl_pend.c   ****     q7_t extra_q = flt_to_q7n(extra_f / qs);
 4118              		.loc 1 637 0 discriminator 2
 4119 00c4 D4F89410 		ldr	r1, [r4, #148]	@ float
 4120 00c8 E06F     		ldr	r0, [r4, #124]	@ float
 4121 00ca FFF7FEFF 		bl	__aeabi_fmul
 4122              	.LVL633:
 4123              	.L270:
 638:ctrl_pend.c   **** 
 4124              		.loc 1 638 0 is_stmt 1
 4125 00ce 3146     		mov	r1, r6
 4126 00d0 FFF7FEFF 		bl	__aeabi_fdiv
ARM GAS  C:\Users\user\AppData\Local\Temp\cc6TIdBD.s 			page 94


 4127              	.LVL634:
 4128 00d4 0446     		mov	r4, r0
 4129              	.LVL635:
 4130              	.LBB382:
 4131              	.LBB383:
 229:ctrl_pend.c   ****     if (v < -1.0f)  return  (q7_t)0x80;
 4132              		.loc 1 229 0
 4133 00d6 4FF07E51 		mov	r1, #1065353216
 4134 00da FFF7FEFF 		bl	__aeabi_fcmpge
 4135              	.LVL636:
 4136 00de 68B9     		cbnz	r0, .L279
 230:ctrl_pend.c   ****     return (q7_t)(v * 128.0f);
 4137              		.loc 1 230 0
 4138 00e0 1449     		ldr	r1, .L284
 4139 00e2 2046     		mov	r0, r4
 4140 00e4 FFF7FEFF 		bl	__aeabi_fcmplt
 4141              	.LVL637:
 4142 00e8 50B9     		cbnz	r0, .L280
 231:ctrl_pend.c   **** }
 4143              		.loc 1 231 0
 4144 00ea 4FF08641 		mov	r1, #1124073472
 4145 00ee 2046     		mov	r0, r4
 4146 00f0 FFF7FEFF 		bl	__aeabi_fmul
 4147              	.LVL638:
 4148 00f4 FFF7FEFF 		bl	__aeabi_f2iz
 4149              	.LVL639:
 4150 00f8 40B2     		sxtb	r0, r0
 4151 00fa 03E0     		b	.L271
 4152              	.L279:
 229:ctrl_pend.c   ****     if (v < -1.0f)  return  (q7_t)0x80;
 4153              		.loc 1 229 0
 4154 00fc 7F20     		movs	r0, #127
 4155 00fe 01E0     		b	.L271
 4156              	.L280:
 230:ctrl_pend.c   ****     return (q7_t)(v * 128.0f);
 4157              		.loc 1 230 0
 4158 0100 6FF07F00 		mvn	r0, #127
 4159              	.L271:
 4160              	.LVL640:
 4161              	.LBE383:
 4162              	.LBE382:
 640:ctrl_pend.c   **** }
 4163              		.loc 1 640 0
 4164 0104 431B     		subs	r3, r0, r5
 4165              	.LVL641:
 4166              	.LBB384:
 4167              	.LBB385:
 250:ctrl_pend.c   ****     if (v < (q15_t)0xFF80) return (q7_t)0x80;
 4168              		.loc 1 250 0
 4169 0106 7F2B     		cmp	r3, #127
 4170 0108 04DC     		bgt	.L281
 251:ctrl_pend.c   ****     return (q7_t)v;
 4171              		.loc 1 251 0
 4172 010a 13F1800F 		cmn	r3, #128
 4173 010e 03DB     		blt	.L282
 252:ctrl_pend.c   **** }
 4174              		.loc 1 252 0
ARM GAS  C:\Users\user\AppData\Local\Temp\cc6TIdBD.s 			page 95


 4175 0110 58B2     		sxtb	r0, r3
 4176 0112 03E0     		b	.L272
 4177              	.L281:
 250:ctrl_pend.c   ****     if (v < (q15_t)0xFF80) return (q7_t)0x80;
 4178              		.loc 1 250 0
 4179 0114 7F20     		movs	r0, #127
 4180 0116 01E0     		b	.L272
 4181              	.L282:
 251:ctrl_pend.c   ****     return (q7_t)v;
 4182              		.loc 1 251 0
 4183 0118 6FF07F00 		mvn	r0, #127
 4184              	.L272:
 4185              	.LVL642:
 4186              	.LBE385:
 4187              	.LBE384:
 4188              	.LBB386:
 4189              	.LBB387:
 235:ctrl_pend.c   **** }
 4190              		.loc 1 235 0
 4191 011c FFF7FEFF 		bl	__aeabi_i2f
 4192              	.LVL643:
 4193 0120 4FF07051 		mov	r1, #1006632960
 4194 0124 FFF7FEFF 		bl	__aeabi_fmul
 4195              	.LVL644:
 4196              	.LBE387:
 4197              	.LBE386:
 640:ctrl_pend.c   **** }
 4198              		.loc 1 640 0
 4199 0128 0146     		mov	r1, r0
 4200 012a 3046     		mov	r0, r6
 4201 012c FFF7FEFF 		bl	__aeabi_fmul
 4202              	.LVL645:
 641:ctrl_pend.c   **** 
 4203              		.loc 1 641 0
 4204 0130 02B0     		add	sp, sp, #8
 4205              		.cfi_def_cfa_offset 16
 4206              		@ sp needed
 4207 0132 70BD     		pop	{r4, r5, r6, pc}
 4208              	.LVL646:
 4209              	.L285:
 4210              		.align	2
 4211              	.L284:
 4212 0134 000080BF 		.word	-1082130432
 4213              		.cfi_endproc
 4214              	.LFE152:
 4215              		.size	ss_u_cmd_q7, .-ss_u_cmd_q7
 4216              		.section	.text.ss_yhat_f32,"ax",%progbits
 4217              		.align	2
 4218              		.thumb
 4219              		.thumb_func
 4220              		.type	ss_yhat_f32, %function
 4221              	ss_yhat_f32:
 4222              	.LFB132:
 280:ctrl_pend.c   ****     float out = 0.0f;
 4223              		.loc 1 280 0
 4224              		.cfi_startproc
 4225              		@ args = 0, pretend = 0, frame = 8
ARM GAS  C:\Users\user\AppData\Local\Temp\cc6TIdBD.s 			page 96


 4226              		@ frame_needed = 0, uses_anonymous_args = 0
 4227              	.LVL647:
 4228 0000 30B5     		push	{r4, r5, lr}
 4229              		.cfi_def_cfa_offset 12
 4230              		.cfi_offset 4, -12
 4231              		.cfi_offset 5, -8
 4232              		.cfi_offset 14, -4
 4233 0002 83B0     		sub	sp, sp, #12
 4234              		.cfi_def_cfa_offset 24
 4235 0004 0446     		mov	r4, r0
 4236 0006 1546     		mov	r5, r2
 281:ctrl_pend.c   ****     arm_dot_prod_f32((float32_t*)lp->C, (float32_t*)x, 2u, (float32_t*)&out);
 4237              		.loc 1 281 0
 4238 0008 02AB     		add	r3, sp, #8
 4239 000a 0022     		movs	r2, #0
 4240              	.LVL648:
 4241 000c 43F8042D 		str	r2, [r3, #-4]!	@ float
 282:ctrl_pend.c   ****     return out + lp->D * u;
 4242              		.loc 1 282 0
 4243 0010 0222     		movs	r2, #2
 4244 0012 6030     		adds	r0, r0, #96
 4245              	.LVL649:
 4246 0014 FFF7FEFF 		bl	arm_dot_prod_f32
 4247              	.LVL650:
 283:ctrl_pend.c   **** }
 4248              		.loc 1 283 0
 4249 0018 2946     		mov	r1, r5
 4250 001a A06E     		ldr	r0, [r4, #104]	@ float
 4251 001c FFF7FEFF 		bl	__aeabi_fmul
 4252              	.LVL651:
 4253 0020 0199     		ldr	r1, [sp, #4]	@ float
 4254 0022 FFF7FEFF 		bl	__aeabi_fadd
 4255              	.LVL652:
 284:ctrl_pend.c   **** 
 4256              		.loc 1 284 0
 4257 0026 03B0     		add	sp, sp, #12
 4258              		.cfi_def_cfa_offset 12
 4259              		@ sp needed
 4260 0028 30BD     		pop	{r4, r5, pc}
 4261              		.cfi_endproc
 4262              	.LFE132:
 4263              		.size	ss_yhat_f32, .-ss_yhat_f32
 4264 002a 00BF     		.section	.text.ss_obs_act_correct_f32,"ax",%progbits
 4265              		.align	2
 4266              		.thumb
 4267              		.thumb_func
 4268              		.type	ss_obs_act_correct_f32, %function
 4269              	ss_obs_act_correct_f32:
 4270              	.LFB136:
 320:ctrl_pend.c   ****     float innov = y - ss_yhat_f32(lp, lp->zhat, u_prev);
 4271              		.loc 1 320 0
 4272              		.cfi_startproc
 4273              		@ args = 0, pretend = 0, frame = 8
 4274              		@ frame_needed = 0, uses_anonymous_args = 0
 4275              	.LVL653:
 4276 0000 70B5     		push	{r4, r5, r6, lr}
 4277              		.cfi_def_cfa_offset 16
ARM GAS  C:\Users\user\AppData\Local\Temp\cc6TIdBD.s 			page 97


 4278              		.cfi_offset 4, -16
 4279              		.cfi_offset 5, -12
 4280              		.cfi_offset 6, -8
 4281              		.cfi_offset 14, -4
 4282 0002 82B0     		sub	sp, sp, #8
 4283              		.cfi_def_cfa_offset 24
 4284 0004 0446     		mov	r4, r0
 4285 0006 0E46     		mov	r6, r1
 321:ctrl_pend.c   ****     float Linv[2];
 4286              		.loc 1 321 0
 4287 0008 00F18805 		add	r5, r0, #136
 4288 000c 2946     		mov	r1, r5
 4289              	.LVL654:
 4290 000e FFF7FEFF 		bl	ss_yhat_f32
 4291              	.LVL655:
 4292 0012 0146     		mov	r1, r0
 4293 0014 3046     		mov	r0, r6
 4294 0016 FFF7FEFF 		bl	__aeabi_fsub
 4295              	.LVL656:
 323:ctrl_pend.c   ****     arm_add_f32((float32_t*)lp->zhat, (float32_t*)Linv, (float32_t*)lp->xhat, 2u);
 4296              		.loc 1 323 0
 4297 001a 0223     		movs	r3, #2
 4298 001c 6A46     		mov	r2, sp
 4299 001e 0146     		mov	r1, r0
 4300 0020 04F16C00 		add	r0, r4, #108
 4301              	.LVL657:
 4302 0024 FFF7FEFF 		bl	arm_scale_f32
 4303              	.LVL658:
 324:ctrl_pend.c   **** }
 4304              		.loc 1 324 0
 4305 0028 0223     		movs	r3, #2
 4306 002a 04F18002 		add	r2, r4, #128
 4307 002e 6946     		mov	r1, sp
 4308 0030 2846     		mov	r0, r5
 4309 0032 FFF7FEFF 		bl	arm_add_f32
 4310              	.LVL659:
 325:ctrl_pend.c   **** 
 4311              		.loc 1 325 0
 4312 0036 02B0     		add	sp, sp, #8
 4313              		.cfi_def_cfa_offset 16
 4314              		@ sp needed
 4315 0038 70BD     		pop	{r4, r5, r6, pc}
 4316              		.cfi_endproc
 4317              	.LFE136:
 4318              		.size	ss_obs_act_correct_f32, .-ss_obs_act_correct_f32
 4319 003a 00BF     		.section	.text.obs_act_correct,"ax",%progbits
 4320              		.align	2
 4321              		.thumb
 4322              		.thumb_func
 4323              		.type	obs_act_correct, %function
 4324              	obs_act_correct:
 4325              	.LFB157:
 689:ctrl_pend.c   **** }
 690:ctrl_pend.c   **** 
 691:ctrl_pend.c   **** /* ============================================================
 692:ctrl_pend.c   ****    Despacho de observer según g_num_type
 693:ctrl_pend.c   ****    ============================================================ */
ARM GAS  C:\Users\user\AppData\Local\Temp\cc6TIdBD.s 			page 98


 694:ctrl_pend.c   **** static void obs_pred(CtrlLoop *lp, float y, float u_prev, float u_k)
 695:ctrl_pend.c   **** {
 696:ctrl_pend.c   ****     switch (g_num_type) {
 697:ctrl_pend.c   ****         case CTRL_NUM_Q31: ss_obs_pred_q31(lp, y, u_prev, u_k); break;
 698:ctrl_pend.c   ****         case CTRL_NUM_Q15: ss_obs_pred_q15(lp, y, u_prev, u_k); break;
 699:ctrl_pend.c   ****         case CTRL_NUM_Q7:  ss_obs_pred_q7 (lp, y, u_prev, u_k); break;
 700:ctrl_pend.c   ****         default:           ss_obs_pred_f32(lp, y, u_prev, u_k); break;
 701:ctrl_pend.c   ****     }
 702:ctrl_pend.c   **** }
 703:ctrl_pend.c   **** static void obs_act_correct(CtrlLoop *lp, float y, float u_prev)
 704:ctrl_pend.c   **** {
 4326              		.loc 1 704 0
 4327              		.cfi_startproc
 4328              		@ args = 0, pretend = 0, frame = 0
 4329              		@ frame_needed = 0, uses_anonymous_args = 0
 4330              	.LVL660:
 4331 0000 08B5     		push	{r3, lr}
 4332              		.cfi_def_cfa_offset 8
 4333              		.cfi_offset 3, -8
 4334              		.cfi_offset 14, -4
 705:ctrl_pend.c   ****     switch (g_num_type) {
 4335              		.loc 1 705 0
 4336 0002 0A4B     		ldr	r3, .L298
 4337 0004 1B78     		ldrb	r3, [r3]	@ zero_extendqisi2
 4338 0006 042B     		cmp	r3, #4
 4339 0008 06D0     		beq	.L292
 4340 000a 052B     		cmp	r3, #5
 4341 000c 07D0     		beq	.L293
 4342 000e 032B     		cmp	r3, #3
 4343 0010 08D1     		bne	.L296
 706:ctrl_pend.c   ****         case CTRL_NUM_Q31: ss_obs_act_correct_q31(lp, y, u_prev); break;
 4344              		.loc 1 706 0
 4345 0012 FFF7FEFF 		bl	ss_obs_act_correct_q31
 4346              	.LVL661:
 4347 0016 08BD     		pop	{r3, pc}
 4348              	.LVL662:
 4349              	.L292:
 707:ctrl_pend.c   ****         case CTRL_NUM_Q15: ss_obs_act_correct_q15(lp, y, u_prev); break;
 4350              		.loc 1 707 0
 4351 0018 FFF7FEFF 		bl	ss_obs_act_correct_q15
 4352              	.LVL663:
 4353 001c 08BD     		pop	{r3, pc}
 4354              	.LVL664:
 4355              	.L293:
 708:ctrl_pend.c   ****         case CTRL_NUM_Q7:  ss_obs_act_correct_q7 (lp, y, u_prev); break;
 4356              		.loc 1 708 0
 4357 001e FFF7FEFF 		bl	ss_obs_act_correct_q7
 4358              	.LVL665:
 4359 0022 08BD     		pop	{r3, pc}
 4360              	.LVL666:
 4361              	.L296:
 709:ctrl_pend.c   ****         default:           ss_obs_act_correct_f32(lp, y, u_prev); break;
 4362              		.loc 1 709 0
 4363 0024 FFF7FEFF 		bl	ss_obs_act_correct_f32
 4364              	.LVL667:
 4365 0028 08BD     		pop	{r3, pc}
 4366              	.L299:
ARM GAS  C:\Users\user\AppData\Local\Temp\cc6TIdBD.s 			page 99


 4367 002a 00BF     		.align	2
 4368              	.L298:
 4369 002c 00000000 		.word	.LANCHOR0
 4370              		.cfi_endproc
 4371              	.LFE157:
 4372              		.size	obs_act_correct, .-obs_act_correct
 4373              		.section	.text.ss_predict_f32,"ax",%progbits
 4374              		.align	2
 4375              		.thumb
 4376              		.thumb_func
 4377              		.type	ss_predict_f32, %function
 4378              	ss_predict_f32:
 4379              	.LFB133:
 288:ctrl_pend.c   ****     arm_dot_prod_f32((float32_t*)&lp->A[0], (float32_t*)x, 2u, (float32_t*)&z[0]);
 4380              		.loc 1 288 0
 4381              		.cfi_startproc
 4382              		@ args = 0, pretend = 0, frame = 0
 4383              		@ frame_needed = 0, uses_anonymous_args = 0
 4384              	.LVL668:
 4385 0000 F8B5     		push	{r3, r4, r5, r6, r7, lr}
 4386              		.cfi_def_cfa_offset 24
 4387              		.cfi_offset 3, -24
 4388              		.cfi_offset 4, -20
 4389              		.cfi_offset 5, -16
 4390              		.cfi_offset 6, -12
 4391              		.cfi_offset 7, -8
 4392              		.cfi_offset 14, -4
 4393 0002 0546     		mov	r5, r0
 4394 0004 0F46     		mov	r7, r1
 4395 0006 1646     		mov	r6, r2
 4396 0008 1C46     		mov	r4, r3
 289:ctrl_pend.c   ****     z[0] += lp->B[0] * u;
 4397              		.loc 1 289 0
 4398 000a 0222     		movs	r2, #2
 4399              	.LVL669:
 4400 000c 4830     		adds	r0, r0, #72
 4401              	.LVL670:
 4402 000e FFF7FEFF 		bl	arm_dot_prod_f32
 4403              	.LVL671:
 290:ctrl_pend.c   ****     arm_dot_prod_f32((float32_t*)&lp->A[2], (float32_t*)x, 2u, (float32_t*)&z[1]);
 4404              		.loc 1 290 0
 4405 0012 3146     		mov	r1, r6
 4406 0014 A86D     		ldr	r0, [r5, #88]	@ float
 4407 0016 FFF7FEFF 		bl	__aeabi_fmul
 4408              	.LVL672:
 4409 001a 0146     		mov	r1, r0
 4410 001c 2068     		ldr	r0, [r4]	@ float
 4411 001e FFF7FEFF 		bl	__aeabi_fadd
 4412              	.LVL673:
 4413 0022 2346     		mov	r3, r4
 4414 0024 43F8040B 		str	r0, [r3], #4	@ float
 291:ctrl_pend.c   ****     z[1] += lp->B[1] * u;
 4415              		.loc 1 291 0
 4416 0028 0222     		movs	r2, #2
 4417 002a 3946     		mov	r1, r7
 4418 002c 05F15000 		add	r0, r5, #80
 4419 0030 FFF7FEFF 		bl	arm_dot_prod_f32
ARM GAS  C:\Users\user\AppData\Local\Temp\cc6TIdBD.s 			page 100


 4420              	.LVL674:
 292:ctrl_pend.c   **** }
 4421              		.loc 1 292 0
 4422 0034 E96D     		ldr	r1, [r5, #92]	@ float
 4423 0036 3046     		mov	r0, r6
 4424 0038 FFF7FEFF 		bl	__aeabi_fmul
 4425              	.LVL675:
 4426 003c 0146     		mov	r1, r0
 4427 003e 6068     		ldr	r0, [r4, #4]	@ float
 4428 0040 FFF7FEFF 		bl	__aeabi_fadd
 4429              	.LVL676:
 4430 0044 6060     		str	r0, [r4, #4]	@ float
 4431 0046 F8BD     		pop	{r3, r4, r5, r6, r7, pc}
 4432              		.cfi_endproc
 4433              	.LFE133:
 4434              		.size	ss_predict_f32, .-ss_predict_f32
 4435              		.section	.text.ss_obs_pred_f32,"ax",%progbits
 4436              		.align	2
 4437              		.thumb
 4438              		.thumb_func
 4439              		.type	ss_obs_pred_f32, %function
 4440              	ss_obs_pred_f32:
 4441              	.LFB135:
 310:ctrl_pend.c   ****     float innov = y - ss_yhat_f32(lp, lp->xhat, u_prev);
 4442              		.loc 1 310 0
 4443              		.cfi_startproc
 4444              		@ args = 0, pretend = 0, frame = 16
 4445              		@ frame_needed = 0, uses_anonymous_args = 0
 4446              	.LVL677:
 4447 0000 F0B5     		push	{r4, r5, r6, r7, lr}
 4448              		.cfi_def_cfa_offset 20
 4449              		.cfi_offset 4, -20
 4450              		.cfi_offset 5, -16
 4451              		.cfi_offset 6, -12
 4452              		.cfi_offset 7, -8
 4453              		.cfi_offset 14, -4
 4454 0002 85B0     		sub	sp, sp, #20
 4455              		.cfi_def_cfa_offset 40
 4456 0004 0546     		mov	r5, r0
 4457 0006 0E46     		mov	r6, r1
 4458 0008 1F46     		mov	r7, r3
 311:ctrl_pend.c   ****     float z[2], Linv[2];
 4459              		.loc 1 311 0
 4460 000a 00F18004 		add	r4, r0, #128
 4461 000e 2146     		mov	r1, r4
 4462              	.LVL678:
 4463 0010 FFF7FEFF 		bl	ss_yhat_f32
 4464              	.LVL679:
 4465 0014 0146     		mov	r1, r0
 4466 0016 3046     		mov	r0, r6
 4467 0018 FFF7FEFF 		bl	__aeabi_fsub
 4468              	.LVL680:
 4469 001c 0646     		mov	r6, r0
 4470              	.LVL681:
 313:ctrl_pend.c   ****     arm_scale_f32((float32_t*)lp->L, innov, (float32_t*)Linv, 2u);
 4471              		.loc 1 313 0
 4472 001e 02AB     		add	r3, sp, #8
ARM GAS  C:\Users\user\AppData\Local\Temp\cc6TIdBD.s 			page 101


 4473 0020 3A46     		mov	r2, r7
 4474 0022 2146     		mov	r1, r4
 4475 0024 2846     		mov	r0, r5
 4476              	.LVL682:
 4477 0026 FFF7FEFF 		bl	ss_predict_f32
 4478              	.LVL683:
 314:ctrl_pend.c   ****     arm_add_f32((float32_t*)z, (float32_t*)Linv, (float32_t*)lp->xhat, 2u);
 4479              		.loc 1 314 0
 4480 002a 0223     		movs	r3, #2
 4481 002c 6A46     		mov	r2, sp
 4482 002e 3146     		mov	r1, r6
 4483 0030 05F16C00 		add	r0, r5, #108
 4484 0034 FFF7FEFF 		bl	arm_scale_f32
 4485              	.LVL684:
 315:ctrl_pend.c   **** }
 4486              		.loc 1 315 0
 4487 0038 0223     		movs	r3, #2
 4488 003a 2246     		mov	r2, r4
 4489 003c 6946     		mov	r1, sp
 4490 003e 02A8     		add	r0, sp, #8
 4491 0040 FFF7FEFF 		bl	arm_add_f32
 4492              	.LVL685:
 316:ctrl_pend.c   **** 
 4493              		.loc 1 316 0
 4494 0044 05B0     		add	sp, sp, #20
 4495              		.cfi_def_cfa_offset 20
 4496              		@ sp needed
 4497 0046 F0BD     		pop	{r4, r5, r6, r7, pc}
 4498              		.cfi_endproc
 4499              	.LFE135:
 4500              		.size	ss_obs_pred_f32, .-ss_obs_pred_f32
 4501              		.section	.text.obs_pred,"ax",%progbits
 4502              		.align	2
 4503              		.thumb
 4504              		.thumb_func
 4505              		.type	obs_pred, %function
 4506              	obs_pred:
 4507              	.LFB156:
 695:ctrl_pend.c   ****     switch (g_num_type) {
 4508              		.loc 1 695 0
 4509              		.cfi_startproc
 4510              		@ args = 0, pretend = 0, frame = 0
 4511              		@ frame_needed = 0, uses_anonymous_args = 0
 4512              	.LVL686:
 4513 0000 10B5     		push	{r4, lr}
 4514              		.cfi_def_cfa_offset 8
 4515              		.cfi_offset 4, -8
 4516              		.cfi_offset 14, -4
 696:ctrl_pend.c   ****         case CTRL_NUM_Q31: ss_obs_pred_q31(lp, y, u_prev, u_k); break;
 4517              		.loc 1 696 0
 4518 0002 0A4C     		ldr	r4, .L312
 4519 0004 2478     		ldrb	r4, [r4]	@ zero_extendqisi2
 4520 0006 042C     		cmp	r4, #4
 4521 0008 06D0     		beq	.L306
 4522 000a 052C     		cmp	r4, #5
 4523 000c 07D0     		beq	.L307
 4524 000e 032C     		cmp	r4, #3
ARM GAS  C:\Users\user\AppData\Local\Temp\cc6TIdBD.s 			page 102


 4525 0010 08D1     		bne	.L310
 697:ctrl_pend.c   ****         case CTRL_NUM_Q15: ss_obs_pred_q15(lp, y, u_prev, u_k); break;
 4526              		.loc 1 697 0
 4527 0012 FFF7FEFF 		bl	ss_obs_pred_q31
 4528              	.LVL687:
 4529 0016 10BD     		pop	{r4, pc}
 4530              	.LVL688:
 4531              	.L306:
 698:ctrl_pend.c   ****         case CTRL_NUM_Q7:  ss_obs_pred_q7 (lp, y, u_prev, u_k); break;
 4532              		.loc 1 698 0
 4533 0018 FFF7FEFF 		bl	ss_obs_pred_q15
 4534              	.LVL689:
 4535 001c 10BD     		pop	{r4, pc}
 4536              	.LVL690:
 4537              	.L307:
 699:ctrl_pend.c   ****         default:           ss_obs_pred_f32(lp, y, u_prev, u_k); break;
 4538              		.loc 1 699 0
 4539 001e FFF7FEFF 		bl	ss_obs_pred_q7
 4540              	.LVL691:
 4541 0022 10BD     		pop	{r4, pc}
 4542              	.LVL692:
 4543              	.L310:
 700:ctrl_pend.c   ****     }
 4544              		.loc 1 700 0
 4545 0024 FFF7FEFF 		bl	ss_obs_pred_f32
 4546              	.LVL693:
 4547 0028 10BD     		pop	{r4, pc}
 4548              	.L313:
 4549 002a 00BF     		.align	2
 4550              	.L312:
 4551 002c 00000000 		.word	.LANCHOR0
 4552              		.cfi_endproc
 4553              	.LFE156:
 4554              		.size	obs_pred, .-obs_pred
 4555              		.section	.text.ss_obs_act_predict_f32,"ax",%progbits
 4556              		.align	2
 4557              		.thumb
 4558              		.thumb_func
 4559              		.type	ss_obs_act_predict_f32, %function
 4560              	ss_obs_act_predict_f32:
 4561              	.LFB137:
 329:ctrl_pend.c   ****     ss_predict_f32(lp, lp->xhat, u_k, lp->zhat);
 4562              		.loc 1 329 0
 4563              		.cfi_startproc
 4564              		@ args = 0, pretend = 0, frame = 0
 4565              		@ frame_needed = 0, uses_anonymous_args = 0
 4566              	.LVL694:
 4567 0000 10B5     		push	{r4, lr}
 4568              		.cfi_def_cfa_offset 8
 4569              		.cfi_offset 4, -8
 4570              		.cfi_offset 14, -4
 330:ctrl_pend.c   **** }
 4571              		.loc 1 330 0
 4572 0002 00F18803 		add	r3, r0, #136
 4573 0006 0A46     		mov	r2, r1
 4574 0008 00F18001 		add	r1, r0, #128
 4575              	.LVL695:
ARM GAS  C:\Users\user\AppData\Local\Temp\cc6TIdBD.s 			page 103


 4576 000c FFF7FEFF 		bl	ss_predict_f32
 4577              	.LVL696:
 4578 0010 10BD     		pop	{r4, pc}
 4579              		.cfi_endproc
 4580              	.LFE137:
 4581              		.size	ss_obs_act_predict_f32, .-ss_obs_act_predict_f32
 4582 0012 00BF     		.section	.text.obs_act_predict,"ax",%progbits
 4583              		.align	2
 4584              		.thumb
 4585              		.thumb_func
 4586              		.type	obs_act_predict, %function
 4587              	obs_act_predict:
 4588              	.LFB158:
 710:ctrl_pend.c   ****     }
 711:ctrl_pend.c   **** }
 712:ctrl_pend.c   **** static void obs_act_predict(CtrlLoop *lp, float u_k)
 713:ctrl_pend.c   **** {
 4589              		.loc 1 713 0
 4590              		.cfi_startproc
 4591              		@ args = 0, pretend = 0, frame = 0
 4592              		@ frame_needed = 0, uses_anonymous_args = 0
 4593              	.LVL697:
 4594 0000 08B5     		push	{r3, lr}
 4595              		.cfi_def_cfa_offset 8
 4596              		.cfi_offset 3, -8
 4597              		.cfi_offset 14, -4
 714:ctrl_pend.c   ****     switch (g_num_type) {
 4598              		.loc 1 714 0
 4599 0002 0A4B     		ldr	r3, .L324
 4600 0004 1B78     		ldrb	r3, [r3]	@ zero_extendqisi2
 4601 0006 042B     		cmp	r3, #4
 4602 0008 06D0     		beq	.L318
 4603 000a 052B     		cmp	r3, #5
 4604 000c 07D0     		beq	.L319
 4605 000e 032B     		cmp	r3, #3
 4606 0010 08D1     		bne	.L322
 715:ctrl_pend.c   ****         case CTRL_NUM_Q31: ss_obs_act_predict_q31(lp, u_k); break;
 4607              		.loc 1 715 0
 4608 0012 FFF7FEFF 		bl	ss_obs_act_predict_q31
 4609              	.LVL698:
 4610 0016 08BD     		pop	{r3, pc}
 4611              	.LVL699:
 4612              	.L318:
 716:ctrl_pend.c   ****         case CTRL_NUM_Q15: ss_obs_act_predict_q15(lp, u_k); break;
 4613              		.loc 1 716 0
 4614 0018 FFF7FEFF 		bl	ss_obs_act_predict_q15
 4615              	.LVL700:
 4616 001c 08BD     		pop	{r3, pc}
 4617              	.LVL701:
 4618              	.L319:
 717:ctrl_pend.c   ****         case CTRL_NUM_Q7:  ss_obs_act_predict_q7 (lp, u_k); break;
 4619              		.loc 1 717 0
 4620 001e FFF7FEFF 		bl	ss_obs_act_predict_q7
 4621              	.LVL702:
 4622 0022 08BD     		pop	{r3, pc}
 4623              	.LVL703:
 4624              	.L322:
ARM GAS  C:\Users\user\AppData\Local\Temp\cc6TIdBD.s 			page 104


 718:ctrl_pend.c   ****         default:           ss_obs_act_predict_f32(lp, u_k); break;
 4625              		.loc 1 718 0
 4626 0024 FFF7FEFF 		bl	ss_obs_act_predict_f32
 4627              	.LVL704:
 4628 0028 08BD     		pop	{r3, pc}
 4629              	.L325:
 4630 002a 00BF     		.align	2
 4631              	.L324:
 4632 002c 00000000 		.word	.LANCHOR0
 4633              		.cfi_endproc
 4634              	.LFE158:
 4635              		.size	obs_act_predict, .-obs_act_predict
 4636              		.section	.text.ss_u_cmd_f32,"ax",%progbits
 4637              		.align	2
 4638              		.thumb
 4639              		.thumb_func
 4640              		.type	ss_u_cmd_f32, %function
 4641              	ss_u_cmd_f32:
 4642              	.LFB134:
 297:ctrl_pend.c   ****     float kx = 0.0f;
 4643              		.loc 1 297 0
 4644              		.cfi_startproc
 4645              		@ args = 0, pretend = 0, frame = 8
 4646              		@ frame_needed = 0, uses_anonymous_args = 0
 4647              	.LVL705:
 4648 0000 10B5     		push	{r4, lr}
 4649              		.cfi_def_cfa_offset 8
 4650              		.cfi_offset 4, -8
 4651              		.cfi_offset 14, -4
 4652 0002 82B0     		sub	sp, sp, #8
 4653              		.cfi_def_cfa_offset 16
 4654 0004 0446     		mov	r4, r0
 298:ctrl_pend.c   ****     arm_dot_prod_f32((float32_t*)lp->K, (float32_t*)lp->xhat, 2u, (float32_t*)&kx);
 4655              		.loc 1 298 0
 4656 0006 02AB     		add	r3, sp, #8
 4657 0008 0022     		movs	r2, #0
 4658 000a 43F8042D 		str	r2, [r3, #-4]!	@ float
 299:ctrl_pend.c   ****     float extra = mode_has_i(lp->mode) ? (lp->Kx * lp->vint)
 4659              		.loc 1 299 0
 4660 000e 0222     		movs	r2, #2
 4661 0010 00F18001 		add	r1, r0, #128
 4662 0014 7430     		adds	r0, r0, #116
 4663              	.LVL706:
 4664 0016 FFF7FEFF 		bl	arm_dot_prod_f32
 4665              	.LVL707:
 300:ctrl_pend.c   ****                                        : (lp->Kx * lp->ref);
 4666              		.loc 1 300 0
 4667 001a 2078     		ldrb	r0, [r4]	@ zero_extendqisi2
 4668 001c FFF7FEFF 		bl	mode_has_i
 4669              	.LVL708:
 301:ctrl_pend.c   ****     return extra - kx;
 4670              		.loc 1 301 0
 4671 0020 28B1     		cbz	r0, .L327
 301:ctrl_pend.c   ****     return extra - kx;
 4672              		.loc 1 301 0 is_stmt 0 discriminator 1
 4673 0022 D4F89010 		ldr	r1, [r4, #144]	@ float
 4674 0026 E06F     		ldr	r0, [r4, #124]	@ float
ARM GAS  C:\Users\user\AppData\Local\Temp\cc6TIdBD.s 			page 105


 4675 0028 FFF7FEFF 		bl	__aeabi_fmul
 4676              	.LVL709:
 4677 002c 04E0     		b	.L328
 4678              	.L327:
 301:ctrl_pend.c   ****     return extra - kx;
 4679              		.loc 1 301 0 discriminator 2
 4680 002e D4F89410 		ldr	r1, [r4, #148]	@ float
 4681 0032 E06F     		ldr	r0, [r4, #124]	@ float
 4682 0034 FFF7FEFF 		bl	__aeabi_fmul
 4683              	.LVL710:
 4684              	.L328:
 302:ctrl_pend.c   **** }
 4685              		.loc 1 302 0 is_stmt 1
 4686 0038 0199     		ldr	r1, [sp, #4]	@ float
 4687 003a FFF7FEFF 		bl	__aeabi_fsub
 4688              	.LVL711:
 303:ctrl_pend.c   **** 
 4689              		.loc 1 303 0
 4690 003e 02B0     		add	sp, sp, #8
 4691              		.cfi_def_cfa_offset 8
 4692              		@ sp needed
 4693 0040 10BD     		pop	{r4, pc}
 4694              		.cfi_endproc
 4695              	.LFE134:
 4696              		.size	ss_u_cmd_f32, .-ss_u_cmd_f32
 4697 0042 00BF     		.section	.text.u_cmd,"ax",%progbits
 4698              		.align	2
 4699              		.thumb
 4700              		.thumb_func
 4701              		.type	u_cmd, %function
 4702              	u_cmd:
 4703              	.LFB159:
 719:ctrl_pend.c   ****     }
 720:ctrl_pend.c   **** }
 721:ctrl_pend.c   **** static float u_cmd(CtrlLoop *lp)
 722:ctrl_pend.c   **** {
 4704              		.loc 1 722 0
 4705              		.cfi_startproc
 4706              		@ args = 0, pretend = 0, frame = 0
 4707              		@ frame_needed = 0, uses_anonymous_args = 0
 4708              	.LVL712:
 4709 0000 08B5     		push	{r3, lr}
 4710              		.cfi_def_cfa_offset 8
 4711              		.cfi_offset 3, -8
 4712              		.cfi_offset 14, -4
 723:ctrl_pend.c   ****     switch (g_num_type) {
 4713              		.loc 1 723 0
 4714 0002 0A4B     		ldr	r3, .L338
 4715 0004 1B78     		ldrb	r3, [r3]	@ zero_extendqisi2
 4716 0006 042B     		cmp	r3, #4
 4717 0008 06D0     		beq	.L332
 4718 000a 052B     		cmp	r3, #5
 4719 000c 07D0     		beq	.L333
 4720 000e 032B     		cmp	r3, #3
 4721 0010 08D1     		bne	.L336
 724:ctrl_pend.c   ****         case CTRL_NUM_Q31: return ss_u_cmd_q31(lp);
 4722              		.loc 1 724 0
ARM GAS  C:\Users\user\AppData\Local\Temp\cc6TIdBD.s 			page 106


 4723 0012 FFF7FEFF 		bl	ss_u_cmd_q31
 4724              	.LVL713:
 4725 0016 08BD     		pop	{r3, pc}
 4726              	.LVL714:
 4727              	.L332:
 725:ctrl_pend.c   ****         case CTRL_NUM_Q15: return ss_u_cmd_q15(lp);
 4728              		.loc 1 725 0
 4729 0018 FFF7FEFF 		bl	ss_u_cmd_q15
 4730              	.LVL715:
 4731 001c 08BD     		pop	{r3, pc}
 4732              	.LVL716:
 4733              	.L333:
 726:ctrl_pend.c   ****         case CTRL_NUM_Q7:  return ss_u_cmd_q7 (lp);
 4734              		.loc 1 726 0
 4735 001e FFF7FEFF 		bl	ss_u_cmd_q7
 4736              	.LVL717:
 4737 0022 08BD     		pop	{r3, pc}
 4738              	.LVL718:
 4739              	.L336:
 727:ctrl_pend.c   ****         default:           return ss_u_cmd_f32(lp);
 4740              		.loc 1 727 0
 4741 0024 FFF7FEFF 		bl	ss_u_cmd_f32
 4742              	.LVL719:
 728:ctrl_pend.c   ****     }
 729:ctrl_pend.c   **** }
 4743              		.loc 1 729 0
 4744 0028 08BD     		pop	{r3, pc}
 4745              	.L339:
 4746 002a 00BF     		.align	2
 4747              	.L338:
 4748 002c 00000000 		.word	.LANCHOR0
 4749              		.cfi_endproc
 4750              	.LFE159:
 4751              		.size	u_cmd, .-u_cmd
 4752              		.global	__aeabi_fcmpeq
 4753              		.section	.text.run_step,"ax",%progbits
 4754              		.align	2
 4755              		.thumb
 4756              		.thumb_func
 4757              		.type	run_step, %function
 4758              	run_step:
 4759              	.LFB160:
 730:ctrl_pend.c   **** 
 731:ctrl_pend.c   **** /* ============================================================
 732:ctrl_pend.c   ****    Paso de control completo (una planta)
 733:ctrl_pend.c   ****    Devuelve salida cruda (sin saturar).
 734:ctrl_pend.c   **** 
 735:ctrl_pend.c   ****    Patrón idéntico a Elia control_app.c:
 736:ctrl_pend.c   ****    - u_out guarda el saturado para que el observer use lo real
 737:ctrl_pend.c   ****    - vint += e (sin Ts) — igual que Elia g_vint
 738:ctrl_pend.c   ****    - Anti-windup: vint += (u_sat - u) / Kx (Elia no lo tiene)
 739:ctrl_pend.c   ****    ============================================================ */
 740:ctrl_pend.c   **** static float run_step(CtrlLoop *lp, float y)
 741:ctrl_pend.c   **** {
 4760              		.loc 1 741 0
 4761              		.cfi_startproc
 4762              		@ args = 0, pretend = 0, frame = 0
ARM GAS  C:\Users\user\AppData\Local\Temp\cc6TIdBD.s 			page 107


 4763              		@ frame_needed = 0, uses_anonymous_args = 0
 4764              	.LVL720:
 4765 0000 2DE9F84F 		push	{r3, r4, r5, r6, r7, r8, r9, r10, fp, lr}
 4766              		.cfi_def_cfa_offset 40
 4767              		.cfi_offset 3, -40
 4768              		.cfi_offset 4, -36
 4769              		.cfi_offset 5, -32
 4770              		.cfi_offset 6, -28
 4771              		.cfi_offset 7, -24
 4772              		.cfi_offset 8, -20
 4773              		.cfi_offset 9, -16
 4774              		.cfi_offset 10, -12
 4775              		.cfi_offset 11, -8
 4776              		.cfi_offset 14, -4
 4777 0004 0446     		mov	r4, r0
 4778 0006 0E46     		mov	r6, r1
 4779              	.LVL721:
 742:ctrl_pend.c   ****     float u      = 0.0f;
 743:ctrl_pend.c   ****     float u_prev = lp->u_out;   /* saturado del tick anterior */
 4780              		.loc 1 743 0
 4781 0008 D0F89C70 		ldr	r7, [r0, #156]	@ float
 4782              	.LVL722:
 744:ctrl_pend.c   ****     float u_sat;
 745:ctrl_pend.c   **** 
 746:ctrl_pend.c   ****     switch (lp->mode)
 4783              		.loc 1 746 0
 4784 000c 0078     		ldrb	r0, [r0]	@ zero_extendqisi2
 4785              	.LVL723:
 4786 000e 0528     		cmp	r0, #5
 4787 0010 00F2DD80 		bhi	.L360
 4788 0014 DFE810F0 		tbh	[pc, r0, lsl #1]
 4789              	.L343:
 4790 0018 0600     		.2byte	(.L342-.L343)/2
 4791 001a 1A00     		.2byte	(.L344-.L343)/2
 4792 001c 7900     		.2byte	(.L345-.L343)/2
 4793 001e 1A00     		.2byte	(.L344-.L343)/2
 4794 0020 7900     		.2byte	(.L345-.L343)/2
 4795 0022 D800     		.2byte	(.L346-.L343)/2
 4796              		.p2align 1
 4797              	.L342:
 747:ctrl_pend.c   ****     {
 748:ctrl_pend.c   ****         case CTRL_MODE_TF:
 749:ctrl_pend.c   ****             /* TF usa siempre F32 (DF2T escalar).
 750:ctrl_pend.c   ****                Feedforward 2DOF: u = C(z)*(ref-y) + Nbar*ref
 751:ctrl_pend.c   ****                Con Nbar=0 (default) se reduce al lazo 1DOF estándar. */
 752:ctrl_pend.c   ****             u = tf_step(lp, lp->ref - y) + lp->Nbar * lp->ref;
 4798              		.loc 1 752 0
 4799 0024 D4F89400 		ldr	r0, [r4, #148]	@ float
 4800 0028 FFF7FEFF 		bl	__aeabi_fsub
 4801              	.LVL724:
 4802 002c 0146     		mov	r1, r0
 4803 002e 2046     		mov	r0, r4
 4804 0030 FFF7FEFF 		bl	tf_step
 4805              	.LVL725:
 4806 0034 0546     		mov	r5, r0
 4807 0036 D4F89410 		ldr	r1, [r4, #148]	@ float
 4808 003a D4F89800 		ldr	r0, [r4, #152]	@ float
ARM GAS  C:\Users\user\AppData\Local\Temp\cc6TIdBD.s 			page 108


 4809 003e FFF7FEFF 		bl	__aeabi_fmul
 4810              	.LVL726:
 4811 0042 0146     		mov	r1, r0
 4812 0044 2846     		mov	r0, r5
 4813 0046 FFF7FEFF 		bl	__aeabi_fadd
 4814              	.LVL727:
 753:ctrl_pend.c   ****             break;
 4815              		.loc 1 753 0
 4816 004a C1E0     		b	.L341
 4817              	.LVL728:
 4818              	.L344:
 754:ctrl_pend.c   **** 
 755:ctrl_pend.c   ****         case CTRL_MODE_SS_PRED_NOI:
 756:ctrl_pend.c   ****         case CTRL_MODE_SS_PRED_I:
 757:ctrl_pend.c   ****             /* Integrador: vint += e  (sin Ts — igual que Elia control_app.c).
 758:ctrl_pend.c   ****                Ki en MATLAB se diseña con esta convención: u_i = Ki × sum(e[k]). */
 759:ctrl_pend.c   ****             if (mode_has_i(lp->mode)) lp->vint += (lp->ref - y);
 4819              		.loc 1 759 0
 4820 004c FFF7FEFF 		bl	mode_has_i
 4821              	.LVL729:
 4822 0050 58B1     		cbz	r0, .L347
 4823              		.loc 1 759 0 is_stmt 0 discriminator 1
 4824 0052 3146     		mov	r1, r6
 4825 0054 D4F89400 		ldr	r0, [r4, #148]	@ float
 4826 0058 FFF7FEFF 		bl	__aeabi_fsub
 4827              	.LVL730:
 4828 005c 0146     		mov	r1, r0
 4829 005e D4F89000 		ldr	r0, [r4, #144]	@ float
 4830 0062 FFF7FEFF 		bl	__aeabi_fadd
 4831              	.LVL731:
 4832 0066 C4F89000 		str	r0, [r4, #144]	@ float
 4833              	.L347:
 760:ctrl_pend.c   **** 
 761:ctrl_pend.c   ****             u = u_cmd(lp);
 4834              		.loc 1 761 0 is_stmt 1
 4835 006a 2046     		mov	r0, r4
 4836 006c FFF7FEFF 		bl	u_cmd
 4837              	.LVL732:
 4838 0070 0546     		mov	r5, r0
 4839              	.LVL733:
 4840              	.LBB388:
 762:ctrl_pend.c   ****             {
 763:ctrl_pend.c   ****                 float lo = g_sat_min, hi = g_sat_max;
 4841              		.loc 1 763 0
 4842 0072 594B     		ldr	r3, .L370
 4843 0074 D3F80080 		ldr	r8, [r3]	@ float
 4844              	.LVL734:
 4845 0078 D3F80490 		ldr	r9, [r3, #4]	@ float
 4846              	.LVL735:
 764:ctrl_pend.c   ****                 /* Lazo inner = el que comanda el motor: aplicamos también el
 765:ctrl_pend.c   ****                    límite físico para que el anti-windup active aunque el
 766:ctrl_pend.c   ****                    sat_min/max de MATLAB esté en otras unidades. */
 767:ctrl_pend.c   ****                 if (lp == &g_lp[PLANT_INNER]) inner_phys_limits(&lo, &hi);
 4847              		.loc 1 767 0
 4848 007c 574B     		ldr	r3, .L370+4
 4849 007e 9C42     		cmp	r4, r3
 4850 0080 19D1     		bne	.L348
ARM GAS  C:\Users\user\AppData\Local\Temp\cc6TIdBD.s 			page 109


 4851              	.LVL736:
 4852              	.LBB389:
 4853              	.LBB390:
  52:ctrl_pend.c   ****         pmax =  MOTOR_V_MAX;  pmin = -MOTOR_V_MAX;
 4854              		.loc 1 52 0
 4855 0082 574B     		ldr	r3, .L370+8
 4856 0084 1B78     		ldrb	r3, [r3]	@ zero_extendqisi2
 4857 0086 13F0020F 		tst	r3, #2
 4858 008a 04D0     		beq	.L361
  53:ctrl_pend.c   ****     } else {
 4859              		.loc 1 53 0
 4860 008c DFF854B1 		ldr	fp, .L370+12
 4861 0090 DFF854A1 		ldr	r10, .L370+16
 4862 0094 03E0     		b	.L349
 4863              	.L361:
  55:ctrl_pend.c   ****     }
 4864              		.loc 1 55 0
 4865 0096 DFF854B1 		ldr	fp, .L370+20
 4866 009a DFF854A1 		ldr	r10, .L370+24
 4867              	.L349:
 4868              	.LVL737:
  57:ctrl_pend.c   ****     if (*lo < pmin) *lo = pmin;
 4869              		.loc 1 57 0
 4870 009e 5946     		mov	r1, fp
 4871 00a0 4846     		mov	r0, r9
 4872              	.LVL738:
 4873 00a2 FFF7FEFF 		bl	__aeabi_fcmpgt
 4874              	.LVL739:
 4875 00a6 00B1     		cbz	r0, .L350
 4876 00a8 D946     		mov	r9, fp
 4877              	.LVL740:
 4878              	.L350:
  58:ctrl_pend.c   **** }
 4879              		.loc 1 58 0
 4880 00aa 4146     		mov	r1, r8
 4881 00ac 5046     		mov	r0, r10
 4882 00ae FFF7FEFF 		bl	__aeabi_fcmpgt
 4883              	.LVL741:
 4884 00b2 00B1     		cbz	r0, .L348
 4885 00b4 D046     		mov	r8, r10
 4886              	.LVL742:
 4887              	.L348:
 4888              	.LBE390:
 4889              	.LBE389:
 768:ctrl_pend.c   ****                 u_sat = satf(u, lo, hi);
 4890              		.loc 1 768 0
 4891 00b6 4A46     		mov	r2, r9
 4892 00b8 4146     		mov	r1, r8
 4893 00ba 2846     		mov	r0, r5
 4894 00bc FFF7FEFF 		bl	satf
 4895              	.LVL743:
 4896 00c0 8046     		mov	r8, r0
 4897              	.LVL744:
 4898              	.LBE388:
 769:ctrl_pend.c   ****             }
 770:ctrl_pend.c   **** 
 771:ctrl_pend.c   ****             /* Anti-windup back-calculation: corrige vint si hay saturación.
ARM GAS  C:\Users\user\AppData\Local\Temp\cc6TIdBD.s 			page 110


 772:ctrl_pend.c   ****                Sin efecto cuando u_sat == u (no satura). */
 773:ctrl_pend.c   ****             if (mode_has_i(lp->mode) && lp->Kx != 0.0f) {
 4899              		.loc 1 773 0
 4900 00c2 2078     		ldrb	r0, [r4]	@ zero_extendqisi2
 4901              	.LVL745:
 4902 00c4 FFF7FEFF 		bl	mode_has_i
 4903              	.LVL746:
 4904 00c8 A0B1     		cbz	r0, .L351
 4905              		.loc 1 773 0 is_stmt 0 discriminator 1
 4906 00ca D4F87C90 		ldr	r9, [r4, #124]	@ float
 4907 00ce 0021     		movs	r1, #0
 4908 00d0 4846     		mov	r0, r9
 4909 00d2 FFF7FEFF 		bl	__aeabi_fcmpeq
 4910              	.LVL747:
 4911 00d6 68B9     		cbnz	r0, .L351
 774:ctrl_pend.c   ****                 lp->vint += (u_sat - u) / lp->Kx;
 4912              		.loc 1 774 0 is_stmt 1
 4913 00d8 2946     		mov	r1, r5
 4914 00da 4046     		mov	r0, r8
 4915 00dc FFF7FEFF 		bl	__aeabi_fsub
 4916              	.LVL748:
 4917 00e0 4946     		mov	r1, r9
 4918 00e2 FFF7FEFF 		bl	__aeabi_fdiv
 4919              	.LVL749:
 4920 00e6 0146     		mov	r1, r0
 4921 00e8 D4F89000 		ldr	r0, [r4, #144]	@ float
 4922 00ec FFF7FEFF 		bl	__aeabi_fadd
 4923              	.LVL750:
 4924 00f0 C4F89000 		str	r0, [r4, #144]	@ float
 4925              	.L351:
 775:ctrl_pend.c   ****             }
 776:ctrl_pend.c   **** 
 777:ctrl_pend.c   ****             /* Observer usa u_sat — coincide con lo que ve la planta */
 778:ctrl_pend.c   ****             obs_pred(lp, y, u_prev, u_sat);
 4926              		.loc 1 778 0
 4927 00f4 4346     		mov	r3, r8
 4928 00f6 3A46     		mov	r2, r7
 4929 00f8 3146     		mov	r1, r6
 4930 00fa 2046     		mov	r0, r4
 4931 00fc FFF7FEFF 		bl	obs_pred
 4932              	.LVL751:
 779:ctrl_pend.c   ****             lp->u_out = u_sat;
 4933              		.loc 1 779 0
 4934 0100 C4F89C80 		str	r8, [r4, #156]	@ float
 780:ctrl_pend.c   ****             return u;
 4935              		.loc 1 780 0
 4936 0104 2846     		mov	r0, r5
 4937 0106 BDE8F88F 		pop	{r3, r4, r5, r6, r7, r8, r9, r10, fp, pc}
 4938              	.LVL752:
 4939              	.L345:
 781:ctrl_pend.c   **** 
 782:ctrl_pend.c   ****         case CTRL_MODE_SS_ACT_NOI:
 783:ctrl_pend.c   ****         case CTRL_MODE_SS_ACT_I:
 784:ctrl_pend.c   ****             /* Observer actual: primero corrección, luego ley de control */
 785:ctrl_pend.c   ****             obs_act_correct(lp, y, u_prev);
 4940              		.loc 1 785 0
 4941 010a 3A46     		mov	r2, r7
ARM GAS  C:\Users\user\AppData\Local\Temp\cc6TIdBD.s 			page 111


 4942 010c 2046     		mov	r0, r4
 4943 010e FFF7FEFF 		bl	obs_act_correct
 4944              	.LVL753:
 786:ctrl_pend.c   **** 
 787:ctrl_pend.c   ****             if (mode_has_i(lp->mode)) lp->vint += (lp->ref - y);
 4945              		.loc 1 787 0
 4946 0112 2078     		ldrb	r0, [r4]	@ zero_extendqisi2
 4947 0114 FFF7FEFF 		bl	mode_has_i
 4948              	.LVL754:
 4949 0118 58B1     		cbz	r0, .L354
 4950              		.loc 1 787 0 is_stmt 0 discriminator 1
 4951 011a 3146     		mov	r1, r6
 4952 011c D4F89400 		ldr	r0, [r4, #148]	@ float
 4953 0120 FFF7FEFF 		bl	__aeabi_fsub
 4954              	.LVL755:
 4955 0124 0146     		mov	r1, r0
 4956 0126 D4F89000 		ldr	r0, [r4, #144]	@ float
 4957 012a FFF7FEFF 		bl	__aeabi_fadd
 4958              	.LVL756:
 4959 012e C4F89000 		str	r0, [r4, #144]	@ float
 4960              	.L354:
 788:ctrl_pend.c   **** 
 789:ctrl_pend.c   ****             u = u_cmd(lp);
 4961              		.loc 1 789 0 is_stmt 1
 4962 0132 2046     		mov	r0, r4
 4963 0134 FFF7FEFF 		bl	u_cmd
 4964              	.LVL757:
 4965 0138 0546     		mov	r5, r0
 4966              	.LVL758:
 4967              	.LBB391:
 790:ctrl_pend.c   ****             {
 791:ctrl_pend.c   ****                 float lo = g_sat_min, hi = g_sat_max;
 4968              		.loc 1 791 0
 4969 013a 274B     		ldr	r3, .L370
 4970 013c 1E68     		ldr	r6, [r3]	@ float
 4971              	.LVL759:
 4972 013e 5F68     		ldr	r7, [r3, #4]	@ float
 4973              	.LVL760:
 792:ctrl_pend.c   ****                 if (lp == &g_lp[PLANT_INNER]) inner_phys_limits(&lo, &hi);
 4974              		.loc 1 792 0
 4975 0140 264B     		ldr	r3, .L370+4
 4976 0142 9C42     		cmp	r4, r3
 4977 0144 19D1     		bne	.L355
 4978              	.LVL761:
 4979              	.LBB392:
 4980              	.LBB393:
  52:ctrl_pend.c   ****         pmax =  MOTOR_V_MAX;  pmin = -MOTOR_V_MAX;
 4981              		.loc 1 52 0
 4982 0146 264B     		ldr	r3, .L370+8
 4983 0148 1B78     		ldrb	r3, [r3]	@ zero_extendqisi2
 4984 014a 13F0020F 		tst	r3, #2
 4985 014e 04D0     		beq	.L364
  53:ctrl_pend.c   ****     } else {
 4986              		.loc 1 53 0
 4987 0150 DFF89090 		ldr	r9, .L370+12
 4988 0154 DFF89080 		ldr	r8, .L370+16
 4989 0158 03E0     		b	.L356
ARM GAS  C:\Users\user\AppData\Local\Temp\cc6TIdBD.s 			page 112


 4990              	.L364:
  55:ctrl_pend.c   ****     }
 4991              		.loc 1 55 0
 4992 015a DFF89090 		ldr	r9, .L370+20
 4993 015e DFF89080 		ldr	r8, .L370+24
 4994              	.L356:
 4995              	.LVL762:
  57:ctrl_pend.c   ****     if (*lo < pmin) *lo = pmin;
 4996              		.loc 1 57 0
 4997 0162 4946     		mov	r1, r9
 4998 0164 3846     		mov	r0, r7
 4999              	.LVL763:
 5000 0166 FFF7FEFF 		bl	__aeabi_fcmpgt
 5001              	.LVL764:
 5002 016a 00B1     		cbz	r0, .L357
 5003 016c 4F46     		mov	r7, r9
 5004              	.LVL765:
 5005              	.L357:
  58:ctrl_pend.c   **** }
 5006              		.loc 1 58 0
 5007 016e 4146     		mov	r1, r8
 5008 0170 3046     		mov	r0, r6
 5009 0172 FFF7FEFF 		bl	__aeabi_fcmplt
 5010              	.LVL766:
 5011 0176 00B1     		cbz	r0, .L355
 5012 0178 4646     		mov	r6, r8
 5013              	.LVL767:
 5014              	.L355:
 5015              	.LBE393:
 5016              	.LBE392:
 793:ctrl_pend.c   ****                 u_sat = satf(u, lo, hi);
 5017              		.loc 1 793 0
 5018 017a 3A46     		mov	r2, r7
 5019 017c 3146     		mov	r1, r6
 5020 017e 2846     		mov	r0, r5
 5021 0180 FFF7FEFF 		bl	satf
 5022              	.LVL768:
 5023 0184 0646     		mov	r6, r0
 5024              	.LVL769:
 5025              	.LBE391:
 794:ctrl_pend.c   ****             }
 795:ctrl_pend.c   **** 
 796:ctrl_pend.c   ****             if (mode_has_i(lp->mode) && lp->Kx != 0.0f) {
 5026              		.loc 1 796 0
 5027 0186 2078     		ldrb	r0, [r4]	@ zero_extendqisi2
 5028              	.LVL770:
 5029 0188 FFF7FEFF 		bl	mode_has_i
 5030              	.LVL771:
 5031 018c 98B1     		cbz	r0, .L358
 5032              		.loc 1 796 0 is_stmt 0 discriminator 1
 5033 018e E76F     		ldr	r7, [r4, #124]	@ float
 5034 0190 0021     		movs	r1, #0
 5035 0192 3846     		mov	r0, r7
 5036 0194 FFF7FEFF 		bl	__aeabi_fcmpeq
 5037              	.LVL772:
 5038 0198 68B9     		cbnz	r0, .L358
 797:ctrl_pend.c   ****                 lp->vint += (u_sat - u) / lp->Kx;
ARM GAS  C:\Users\user\AppData\Local\Temp\cc6TIdBD.s 			page 113


 5039              		.loc 1 797 0 is_stmt 1
 5040 019a 2946     		mov	r1, r5
 5041 019c 3046     		mov	r0, r6
 5042 019e FFF7FEFF 		bl	__aeabi_fsub
 5043              	.LVL773:
 5044 01a2 3946     		mov	r1, r7
 5045 01a4 FFF7FEFF 		bl	__aeabi_fdiv
 5046              	.LVL774:
 5047 01a8 0146     		mov	r1, r0
 5048 01aa D4F89000 		ldr	r0, [r4, #144]	@ float
 5049 01ae FFF7FEFF 		bl	__aeabi_fadd
 5050              	.LVL775:
 5051 01b2 C4F89000 		str	r0, [r4, #144]	@ float
 5052              	.L358:
 798:ctrl_pend.c   ****             }
 799:ctrl_pend.c   **** 
 800:ctrl_pend.c   ****             /* Predicción de zhat usa u_sat real */
 801:ctrl_pend.c   ****             obs_act_predict(lp, u_sat);
 5053              		.loc 1 801 0
 5054 01b6 3146     		mov	r1, r6
 5055 01b8 2046     		mov	r0, r4
 5056 01ba FFF7FEFF 		bl	obs_act_predict
 5057              	.LVL776:
 802:ctrl_pend.c   ****             lp->u_out = u_sat;
 5058              		.loc 1 802 0
 5059 01be C4F89C60 		str	r6, [r4, #156]	@ float
 803:ctrl_pend.c   ****             return u;
 5060              		.loc 1 803 0
 5061 01c2 2846     		mov	r0, r5
 5062 01c4 BDE8F88F 		pop	{r3, r4, r5, r6, r7, r8, r9, r10, fp, pc}
 5063              	.LVL777:
 5064              	.L346:
 804:ctrl_pend.c   **** 
 805:ctrl_pend.c   ****         case CTRL_MODE_OPEN_LOOP:
 806:ctrl_pend.c   ****             u = lp->ref;
 5065              		.loc 1 806 0
 5066 01c8 D4F89400 		ldr	r0, [r4, #148]	@ float
 5067              	.LVL778:
 807:ctrl_pend.c   ****             break;
 5068              		.loc 1 807 0
 5069 01cc 00E0     		b	.L341
 5070              	.LVL779:
 5071              	.L360:
 808:ctrl_pend.c   **** 
 809:ctrl_pend.c   ****         default:    /* CTRL_MODE_OFF */
 810:ctrl_pend.c   ****             u = 0.0f;
 5072              		.loc 1 810 0
 5073 01ce 0020     		movs	r0, #0
 5074              	.LVL780:
 5075              	.L341:
 811:ctrl_pend.c   ****             break;
 812:ctrl_pend.c   ****     }
 813:ctrl_pend.c   **** 
 814:ctrl_pend.c   ****     lp->u_out = u;
 5076              		.loc 1 814 0
 5077 01d0 C4F89C00 		str	r0, [r4, #156]	@ float
 815:ctrl_pend.c   ****     return u;
ARM GAS  C:\Users\user\AppData\Local\Temp\cc6TIdBD.s 			page 114


 816:ctrl_pend.c   **** }
 5078              		.loc 1 816 0
 5079 01d4 BDE8F88F 		pop	{r3, r4, r5, r6, r7, r8, r9, r10, fp, pc}
 5080              	.LVL781:
 5081              	.L371:
 5082              		.align	2
 5083              	.L370:
 5084 01d8 00000000 		.word	.LANCHOR1
 5085 01dc 04000000 		.word	.LANCHOR0+4
 5086 01e0 00000000 		.word	g_ref_in_volts
 5087 01e4 00004041 		.word	1094713344
 5088 01e8 000040C1 		.word	-1052770304
 5089 01ec 00009E44 		.word	1151205376
 5090 01f0 00009EC4 		.word	-996278272
 5091              		.cfi_endproc
 5092              	.LFE160:
 5093              		.size	run_step, .-run_step
 5094              		.section	.text.ctrl_init,"ax",%progbits
 5095              		.align	2
 5096              		.global	ctrl_init
 5097              		.thumb
 5098              		.thumb_func
 5099              		.type	ctrl_init, %function
 5100              	ctrl_init:
 5101              	.LFB161:
 817:ctrl_pend.c   **** 
 818:ctrl_pend.c   **** /* ============================================================
 819:ctrl_pend.c   ****    ctrl_init()
 820:ctrl_pend.c   ****    ============================================================ */
 821:ctrl_pend.c   **** void ctrl_init(void)
 822:ctrl_pend.c   **** {
 5102              		.loc 1 822 0
 5103              		.cfi_startproc
 5104              		@ args = 0, pretend = 0, frame = 0
 5105              		@ frame_needed = 0, uses_anonymous_args = 0
 5106 0000 08B5     		push	{r3, lr}
 5107              		.cfi_def_cfa_offset 8
 5108              		.cfi_offset 3, -8
 5109              		.cfi_offset 14, -4
 823:ctrl_pend.c   ****     uint8 p;
 824:ctrl_pend.c   ****     memset(g_lp, 0, sizeof(g_lp));
 5110              		.loc 1 824 0
 5111 0002 4FF40672 		mov	r2, #536
 5112 0006 0021     		movs	r1, #0
 5113 0008 1448     		ldr	r0, .L376
 5114 000a FFF7FEFF 		bl	memset
 5115              	.LVL782:
 825:ctrl_pend.c   ****     for (p = 0u; p < PLANT_COUNT; p++) {
 5116              		.loc 1 825 0
 5117 000e 0023     		movs	r3, #0
 5118 0010 12E0     		b	.L373
 5119              	.LVL783:
 5120              	.L374:
 826:ctrl_pend.c   ****         g_lp[p].mode    = CTRL_MODE_OFF;
 5121              		.loc 1 826 0 discriminator 3
 5122 0012 4FF48672 		mov	r2, #268
 5123 0016 1249     		ldr	r1, .L376+4
ARM GAS  C:\Users\user\AppData\Local\Temp\cc6TIdBD.s 			page 115


 5124 0018 02FB0312 		mla	r2, r2, r3, r1
 5125 001c 0621     		movs	r1, #6
 5126 001e 1171     		strb	r1, [r2, #4]
 827:ctrl_pend.c   ****         g_lp[p].N       = 1u;
 5127              		.loc 1 827 0 discriminator 3
 5128 0020 0121     		movs	r1, #1
 5129 0022 A2F8A410 		strh	r1, [r2, #164]	@ movhi
 828:ctrl_pend.c   ****         g_lp[p].q_scale = 1.0f;
 5130              		.loc 1 828 0 discriminator 3
 5131 0026 4FF07E51 		mov	r1, #1065353216
 5132 002a C2F8A810 		str	r1, [r2, #168]	@ float
 829:ctrl_pend.c   ****         g_lp[p].Nbar    = 0.0f;
 5133              		.loc 1 829 0 discriminator 3
 5134 002e 0021     		movs	r1, #0
 5135 0030 C2F89C10 		str	r1, [r2, #156]	@ float
 825:ctrl_pend.c   ****         g_lp[p].mode    = CTRL_MODE_OFF;
 5136              		.loc 1 825 0 discriminator 3
 5137 0034 0133     		adds	r3, r3, #1
 5138              	.LVL784:
 5139 0036 DBB2     		uxtb	r3, r3
 5140              	.LVL785:
 5141              	.L373:
 825:ctrl_pend.c   ****         g_lp[p].mode    = CTRL_MODE_OFF;
 5142              		.loc 1 825 0 is_stmt 0 discriminator 1
 5143 0038 012B     		cmp	r3, #1
 5144 003a EAD9     		bls	.L374
 830:ctrl_pend.c   ****     }
 831:ctrl_pend.c   ****     g_running           = 0u;
 5145              		.loc 1 831 0 is_stmt 1
 5146 003c 084B     		ldr	r3, .L376+4
 5147              	.LVL786:
 5148 003e 0022     		movs	r2, #0
 5149 0040 83F81C22 		strb	r2, [r3, #540]
 832:ctrl_pend.c   ****     g_num_type          = CTRL_NUM_F32;
 5150              		.loc 1 832 0
 5151 0044 1A70     		strb	r2, [r3]
 833:ctrl_pend.c   ****     ctrl_telem_ready    = 0u;
 5152              		.loc 1 833 0
 5153 0046 83F81D22 		strb	r2, [r3, #541]
 834:ctrl_pend.c   ****     ctrl_period_pending = 0u;
 5154              		.loc 1 834 0
 5155 004a 83F81E22 		strb	r2, [r3, #542]
 835:ctrl_pend.c   ****     g_y1_filt           = 0.0f;
 5156              		.loc 1 835 0
 5157 004e 0022     		movs	r2, #0
 5158 0050 C3F82022 		str	r2, [r3, #544]	@ float
 836:ctrl_pend.c   ****     g_y2_filt           = 0.0f;
 5159              		.loc 1 836 0
 5160 0054 C3F82422 		str	r2, [r3, #548]	@ float
 5161 0058 08BD     		pop	{r3, pc}
 5162              	.L377:
 5163 005a 00BF     		.align	2
 5164              	.L376:
 5165 005c 04000000 		.word	.LANCHOR0+4
 5166 0060 00000000 		.word	.LANCHOR0
 5167              		.cfi_endproc
 5168              	.LFE161:
ARM GAS  C:\Users\user\AppData\Local\Temp\cc6TIdBD.s 			page 116


 5169              		.size	ctrl_init, .-ctrl_init
 5170              		.section	.text.ctrl_set_mode,"ax",%progbits
 5171              		.align	2
 5172              		.global	ctrl_set_mode
 5173              		.thumb
 5174              		.thumb_func
 5175              		.type	ctrl_set_mode, %function
 5176              	ctrl_set_mode:
 5177              	.LFB162:
 837:ctrl_pend.c   **** }
 838:ctrl_pend.c   **** 
 839:ctrl_pend.c   **** /* ============================================================
 840:ctrl_pend.c   ****    ctrl_set_mode()
 841:ctrl_pend.c   ****    ============================================================ */
 842:ctrl_pend.c   **** void ctrl_set_mode(uint8 plant_id, uint8 mode)
 843:ctrl_pend.c   **** {
 5178              		.loc 1 843 0
 5179              		.cfi_startproc
 5180              		@ args = 0, pretend = 0, frame = 0
 5181              		@ frame_needed = 0, uses_anonymous_args = 0
 5182              		@ link register save eliminated.
 5183              	.LVL787:
 844:ctrl_pend.c   ****     if (plant_id >= PLANT_COUNT) return;
 5184              		.loc 1 844 0
 5185 0000 0128     		cmp	r0, #1
 5186 0002 08D8     		bhi	.L378
 845:ctrl_pend.c   ****     if (mode > CTRL_MODE_OFF) mode = CTRL_MODE_OFF;
 5187              		.loc 1 845 0
 5188 0004 0629     		cmp	r1, #6
 5189 0006 00D9     		bls	.L380
 5190 0008 0621     		movs	r1, #6
 5191              	.LVL788:
 5192              	.L380:
 846:ctrl_pend.c   ****     g_lp[plant_id].mode = mode;
 5193              		.loc 1 846 0
 5194 000a 4FF48672 		mov	r2, #268
 5195 000e 024B     		ldr	r3, .L382
 5196 0010 02FB0030 		mla	r0, r2, r0, r3
 5197              	.LVL789:
 5198 0014 0171     		strb	r1, [r0, #4]
 5199              	.L378:
 5200 0016 7047     		bx	lr
 5201              	.L383:
 5202              		.align	2
 5203              	.L382:
 5204 0018 00000000 		.word	.LANCHOR0
 5205              		.cfi_endproc
 5206              	.LFE162:
 5207              		.size	ctrl_set_mode, .-ctrl_set_mode
 5208              		.global	__aeabi_f2uiz
 5209              		.global	__aeabi_fcmple
 5210              		.section	.text.ctrl_apply_coeffs,"ax",%progbits
 5211              		.align	2
 5212              		.global	ctrl_apply_coeffs
 5213              		.thumb
 5214              		.thumb_func
 5215              		.type	ctrl_apply_coeffs, %function
ARM GAS  C:\Users\user\AppData\Local\Temp\cc6TIdBD.s 			page 117


 5216              	ctrl_apply_coeffs:
 5217              	.LFB163:
 847:ctrl_pend.c   **** }
 848:ctrl_pend.c   **** 
 849:ctrl_pend.c   **** /* ============================================================
 850:ctrl_pend.c   ****    ctrl_apply_coeffs()
 851:ctrl_pend.c   ****    Parsea 25 floats al struct de control.
 852:ctrl_pend.c   ****    c[16] = q_scale para paths Q (0 → default 1.0).
 853:ctrl_pend.c   ****    El modo DEBE estar seteado antes de llamar.
 854:ctrl_pend.c   ****    ============================================================ */
 855:ctrl_pend.c   **** void ctrl_apply_coeffs(uint8 plant_id, const float* c, uint16 n)
 856:ctrl_pend.c   **** {
 5218              		.loc 1 856 0
 5219              		.cfi_startproc
 5220              		@ args = 0, pretend = 0, frame = 8
 5221              		@ frame_needed = 0, uses_anonymous_args = 0
 5222              	.LVL790:
 857:ctrl_pend.c   ****     if (plant_id >= PLANT_COUNT) return;
 5223              		.loc 1 857 0
 5224 0000 0128     		cmp	r0, #1
 5225 0002 00F26B82 		bhi	.L433
 858:ctrl_pend.c   ****     if (!c || n < 16u) return;
 5226              		.loc 1 858 0
 5227 0006 0029     		cmp	r1, #0
 5228 0008 00F06882 		beq	.L433
 5229              		.loc 1 858 0 is_stmt 0 discriminator 1
 5230 000c 0F2A     		cmp	r2, #15
 5231 000e 40F26582 		bls	.L433
 856:ctrl_pend.c   ****     if (plant_id >= PLANT_COUNT) return;
 5232              		.loc 1 856 0 is_stmt 1
 5233 0012 2DE9F04F 		push	{r4, r5, r6, r7, r8, r9, r10, fp, lr}
 5234              		.cfi_def_cfa_offset 36
 5235              		.cfi_offset 4, -36
 5236              		.cfi_offset 5, -32
 5237              		.cfi_offset 6, -28
 5238              		.cfi_offset 7, -24
 5239              		.cfi_offset 8, -20
 5240              		.cfi_offset 9, -16
 5241              		.cfi_offset 10, -12
 5242              		.cfi_offset 11, -8
 5243              		.cfi_offset 14, -4
 5244 0016 83B0     		sub	sp, sp, #12
 5245              		.cfi_def_cfa_offset 48
 5246 0018 1646     		mov	r6, r2
 5247 001a 0F46     		mov	r7, r1
 5248 001c 0446     		mov	r4, r0
 859:ctrl_pend.c   **** 
 860:ctrl_pend.c   ****     CtrlLoop *lp = &g_lp[plant_id];
 5249              		.loc 1 860 0
 5250 001e 0546     		mov	r5, r0
 5251              	.LVL791:
 5252              	.LBB394:
 861:ctrl_pend.c   **** 
 862:ctrl_pend.c   ****     /* --- N y Fs (siempre) --- */
 863:ctrl_pend.c   ****     {
 864:ctrl_pend.c   ****         uint32 Nv = (uint32)(c[14] + 0.5f);
 5253              		.loc 1 864 0
ARM GAS  C:\Users\user\AppData\Local\Temp\cc6TIdBD.s 			page 118


 5254 0020 4FF07C51 		mov	r1, #1056964608
 5255              	.LVL792:
 5256 0024 B86B     		ldr	r0, [r7, #56]	@ float
 5257              	.LVL793:
 5258 0026 FFF7FEFF 		bl	__aeabi_fadd
 5259              	.LVL794:
 5260 002a FFF7FEFF 		bl	__aeabi_f2uiz
 5261              	.LVL795:
 865:ctrl_pend.c   ****         if (Nv < 1u) Nv = 1u;
 5262              		.loc 1 865 0
 5263 002e 0246     		mov	r2, r0
 5264 0030 00B9     		cbnz	r0, .L386
 5265 0032 0122     		movs	r2, #1
 5266              	.L386:
 5267              	.LVL796:
 866:ctrl_pend.c   ****         lp->N = (uint16)(Nv & 0xFFFFu);
 5268              		.loc 1 866 0
 5269 0034 4FF48673 		mov	r3, #268
 5270 0038 B749     		ldr	r1, .L434
 5271 003a 03FB0413 		mla	r3, r3, r4, r1
 5272 003e A3F8A420 		strh	r2, [r3, #164]	@ movhi
 867:ctrl_pend.c   **** 
 868:ctrl_pend.c   ****         float fs = c[15];
 5273              		.loc 1 868 0
 5274 0042 D7F83C80 		ldr	r8, [r7, #60]	@ float
 5275              	.LVL797:
 869:ctrl_pend.c   ****         if (fs > 0.5f && fs <= 10000.0f) {
 5276              		.loc 1 869 0
 5277 0046 4FF07C51 		mov	r1, #1056964608
 5278 004a 4046     		mov	r0, r8
 5279 004c FFF7FEFF 		bl	__aeabi_fcmpgt
 5280              	.LVL798:
 5281 0050 D8B1     		cbz	r0, .L387
 5282              		.loc 1 869 0 is_stmt 0 discriminator 1
 5283 0052 B249     		ldr	r1, .L434+4
 5284 0054 4046     		mov	r0, r8
 5285 0056 FFF7FEFF 		bl	__aeabi_fcmple
 5286              	.LVL799:
 5287 005a B0B1     		cbz	r0, .L387
 5288              	.LBB395:
 870:ctrl_pend.c   ****             g_Ts = 1.0f / fs;
 5289              		.loc 1 870 0 is_stmt 1
 5290 005c 4146     		mov	r1, r8
 5291 005e 4FF07E50 		mov	r0, #1065353216
 5292 0062 FFF7FEFF 		bl	__aeabi_fdiv
 5293              	.LVL800:
 5294 0066 AE4B     		ldr	r3, .L434+8
 5295 0068 9860     		str	r0, [r3, #8]	@ float
 871:ctrl_pend.c   ****             uint32 period = (uint32)((float)TIMER_CLOCK_HZ / fs);
 5296              		.loc 1 871 0
 5297 006a 4146     		mov	r1, r8
 5298 006c AD48     		ldr	r0, .L434+12
 5299 006e FFF7FEFF 		bl	__aeabi_fdiv
 5300              	.LVL801:
 5301 0072 FFF7FEFF 		bl	__aeabi_f2uiz
 5302              	.LVL802:
 872:ctrl_pend.c   ****             if (period < 2u) period = 2u;
ARM GAS  C:\Users\user\AppData\Local\Temp\cc6TIdBD.s 			page 119


 5303              		.loc 1 872 0
 5304 0076 0128     		cmp	r0, #1
 5305 0078 00D8     		bhi	.L390
 5306 007a 0220     		movs	r0, #2
 5307              	.LVL803:
 5308              	.L390:
 873:ctrl_pend.c   ****             ctrl_period_ticks   = period - 1u;
 5309              		.loc 1 873 0
 5310 007c 0138     		subs	r0, r0, #1
 5311              	.LVL804:
 5312 007e A84B     		ldr	r3, .L434+8
 5313 0080 D860     		str	r0, [r3, #12]
 874:ctrl_pend.c   ****             ctrl_period_pending = 1u;
 5314              		.loc 1 874 0
 5315 0082 0122     		movs	r2, #1
 5316 0084 A44B     		ldr	r3, .L434
 5317 0086 83F81E22 		strb	r2, [r3, #542]
 5318              	.LVL805:
 5319              	.L387:
 5320              	.LBE395:
 5321              	.LBE394:
 875:ctrl_pend.c   ****         }
 876:ctrl_pend.c   ****     }
 877:ctrl_pend.c   **** 
 878:ctrl_pend.c   ****     /* --- q_scale (c[16], nuevo en v6.3) --- */
 879:ctrl_pend.c   ****     if (n > 16u && c[16] > 0.0f)
 5322              		.loc 1 879 0
 5323 008a 102E     		cmp	r6, #16
 5324 008c 0ED9     		bls	.L391
 5325              		.loc 1 879 0 is_stmt 0 discriminator 1
 5326 008e D7F84080 		ldr	r8, [r7, #64]	@ float
 5327              	.LVL806:
 5328 0092 0021     		movs	r1, #0
 5329 0094 4046     		mov	r0, r8
 5330 0096 FFF7FEFF 		bl	__aeabi_fcmpgt
 5331              	.LVL807:
 5332 009a 38B1     		cbz	r0, .L391
 880:ctrl_pend.c   ****         lp->q_scale = c[16];
 5333              		.loc 1 880 0 is_stmt 1
 5334 009c 4FF48673 		mov	r3, #268
 5335 00a0 9D4A     		ldr	r2, .L434
 5336 00a2 03FB0423 		mla	r3, r3, r4, r2
 5337 00a6 C3F8A880 		str	r8, [r3, #168]	@ float
 5338 00aa 08E0     		b	.L393
 5339              	.L391:
 881:ctrl_pend.c   ****     else
 882:ctrl_pend.c   ****         lp->q_scale = 1.0f;
 5340              		.loc 1 882 0
 5341 00ac 4FF48673 		mov	r3, #268
 5342 00b0 994A     		ldr	r2, .L434
 5343 00b2 03FB0423 		mla	r3, r3, r4, r2
 5344 00b6 4FF07E52 		mov	r2, #1065353216
 5345 00ba C3F8A820 		str	r2, [r3, #168]	@ float
 5346              	.L393:
 883:ctrl_pend.c   **** 
 884:ctrl_pend.c   ****     /* --- Nbar feedforward (c[17]): u_total = C(z)*(ref-y) + Nbar*ref (TF mode) --- */
 885:ctrl_pend.c   ****     lp->Nbar = (n > 17u) ? c[17] : 0.0f;
ARM GAS  C:\Users\user\AppData\Local\Temp\cc6TIdBD.s 			page 120


 5347              		.loc 1 885 0
 5348 00be 112E     		cmp	r6, #17
 5349 00c0 01D9     		bls	.L412
 5350              		.loc 1 885 0 is_stmt 0 discriminator 1
 5351 00c2 7A6C     		ldr	r2, [r7, #68]	@ float
 5352 00c4 00E0     		b	.L394
 5353              	.L412:
 5354              		.loc 1 885 0
 5355 00c6 0022     		movs	r2, #0
 5356              	.L394:
 5357              		.loc 1 885 0 discriminator 4
 5358 00c8 4FF48673 		mov	r3, #268
 5359 00cc 9249     		ldr	r1, .L434
 5360 00ce 03FB0413 		mla	r3, r3, r4, r1
 5361 00d2 C3F89C20 		str	r2, [r3, #156]	@ float
 886:ctrl_pend.c   **** 
 887:ctrl_pend.c   ****     /* --- Coeficientes TF --- */
 888:ctrl_pend.c   ****     if (lp->mode == CTRL_MODE_TF)
 5362              		.loc 1 888 0 is_stmt 1 discriminator 4
 5363 00d6 1879     		ldrb	r0, [r3, #4]	@ zero_extendqisi2
 5364 00d8 A8B1     		cbz	r0, .L413
 5365 00da 68E0     		b	.L431
 5366              	.LVL808:
 5367              	.L397:
 5368              	.LBB396:
 889:ctrl_pend.c   ****     {
 890:ctrl_pend.c   ****         uint8 i;
 891:ctrl_pend.c   ****         for (i = 0u; i < 6u; i++) {
 892:ctrl_pend.c   ****             lp->tf_b[i] = c[i];
 5369              		.loc 1 892 0 discriminator 3
 5370 00dc 57F82160 		ldr	r6, [r7, r1, lsl #2]	@ float
 5371 00e0 8D4A     		ldr	r2, .L434
 5372 00e2 05EB4513 		add	r3, r5, r5, lsl #5
 5373 00e6 05EB4303 		add	r3, r5, r3, lsl #1
 5374 00ea 0B44     		add	r3, r3, r1
 5375 00ec 02EB8300 		add	r0, r2, r3, lsl #2
 5376 00f0 8660     		str	r6, [r0, #8]	@ float
 893:ctrl_pend.c   ****             lp->tf_a[i] = c[i + 6u];
 5377              		.loc 1 893 0 discriminator 3
 5378 00f2 881D     		adds	r0, r1, #6
 5379 00f4 57F82000 		ldr	r0, [r7, r0, lsl #2]	@ float
 5380 00f8 0633     		adds	r3, r3, #6
 5381 00fa 02EB8303 		add	r3, r2, r3, lsl #2
 5382 00fe 9860     		str	r0, [r3, #8]	@ float
 891:ctrl_pend.c   ****             lp->tf_b[i] = c[i];
 5383              		.loc 1 891 0 discriminator 3
 5384 0100 0131     		adds	r1, r1, #1
 5385              	.LVL809:
 5386 0102 C9B2     		uxtb	r1, r1
 5387              	.LVL810:
 5388 0104 00E0     		b	.L395
 5389              	.LVL811:
 5390              	.L413:
 5391              	.LBE396:
 5392 0106 0021     		movs	r1, #0
 5393              	.L395:
 5394              	.LVL812:
ARM GAS  C:\Users\user\AppData\Local\Temp\cc6TIdBD.s 			page 121


 5395              	.LBB399:
 891:ctrl_pend.c   ****             lp->tf_b[i] = c[i];
 5396              		.loc 1 891 0 is_stmt 0 discriminator 1
 5397 0108 0529     		cmp	r1, #5
 5398 010a E7D9     		bls	.L397
 894:ctrl_pend.c   ****         }
 895:ctrl_pend.c   ****         float a0 = lp->tf_a[0];
 5399              		.loc 1 895 0 is_stmt 1
 5400 010c 4FF48673 		mov	r3, #268
 5401 0110 814A     		ldr	r2, .L434
 5402 0112 03FB0423 		mla	r3, r3, r4, r2
 5403 0116 D3F82080 		ldr	r8, [r3, #32]	@ float
 5404              	.LVL813:
 896:ctrl_pend.c   ****         if (a0 != 0.0f && a0 != 1.0f) {
 5405              		.loc 1 896 0
 5406 011a 0021     		movs	r1, #0
 5407              	.LVL814:
 5408 011c 4046     		mov	r0, r8
 5409 011e FFF7FEFF 		bl	__aeabi_fcmpeq
 5410              	.LVL815:
 5411 0122 0028     		cmp	r0, #0
 5412 0124 35D1     		bne	.L398
 5413              		.loc 1 896 0 is_stmt 0 discriminator 1
 5414 0126 4FF07E51 		mov	r1, #1065353216
 5415 012a 4046     		mov	r0, r8
 5416 012c FFF7FEFF 		bl	__aeabi_fcmpeq
 5417              	.LVL816:
 5418 0130 80B1     		cbz	r0, .L414
 5419 0132 2EE0     		b	.L398
 5420              	.LVL817:
 5421              	.L401:
 5422              	.LBB397:
 897:ctrl_pend.c   ****             uint8 j;
 898:ctrl_pend.c   ****             for (j = 0u; j < 6u; j++) lp->tf_b[j] /= a0;
 5423              		.loc 1 898 0 is_stmt 1 discriminator 3
 5424 0134 05EB4513 		add	r3, r5, r5, lsl #5
 5425 0138 05EB4303 		add	r3, r5, r3, lsl #1
 5426 013c 3B44     		add	r3, r3, r7
 5427 013e 764E     		ldr	r6, .L434
 5428 0140 06EB8306 		add	r6, r6, r3, lsl #2
 5429 0144 4146     		mov	r1, r8
 5430 0146 B068     		ldr	r0, [r6, #8]	@ float
 5431 0148 FFF7FEFF 		bl	__aeabi_fdiv
 5432              	.LVL818:
 5433 014c B060     		str	r0, [r6, #8]	@ float
 5434 014e 0137     		adds	r7, r7, #1
 5435              	.LVL819:
 5436 0150 FFB2     		uxtb	r7, r7
 5437              	.LVL820:
 5438 0152 00E0     		b	.L400
 5439              	.LVL821:
 5440              	.L414:
 5441              	.LBE397:
 5442 0154 0027     		movs	r7, #0
 5443              	.LVL822:
 5444              	.L400:
 5445              	.LBB398:
ARM GAS  C:\Users\user\AppData\Local\Temp\cc6TIdBD.s 			page 122


 5446              		.loc 1 898 0 is_stmt 0 discriminator 1
 5447 0156 052F     		cmp	r7, #5
 5448 0158 ECD9     		bls	.L401
 5449 015a 0127     		movs	r7, #1
 5450              	.LVL823:
 5451 015c 0FE0     		b	.L402
 5452              	.LVL824:
 5453              	.L403:
 899:ctrl_pend.c   ****             for (j = 1u; j < 6u; j++) lp->tf_a[j] /= a0;
 5454              		.loc 1 899 0 is_stmt 1 discriminator 3
 5455 015e 05EB4513 		add	r3, r5, r5, lsl #5
 5456 0162 05EB4303 		add	r3, r5, r3, lsl #1
 5457 0166 3B44     		add	r3, r3, r7
 5458 0168 0633     		adds	r3, r3, #6
 5459 016a 6B4E     		ldr	r6, .L434
 5460 016c 06EB8306 		add	r6, r6, r3, lsl #2
 5461 0170 4146     		mov	r1, r8
 5462 0172 B068     		ldr	r0, [r6, #8]	@ float
 5463 0174 FFF7FEFF 		bl	__aeabi_fdiv
 5464              	.LVL825:
 5465 0178 B060     		str	r0, [r6, #8]	@ float
 5466 017a 0137     		adds	r7, r7, #1
 5467              	.LVL826:
 5468 017c FFB2     		uxtb	r7, r7
 5469              	.LVL827:
 5470              	.L402:
 5471              		.loc 1 899 0 is_stmt 0 discriminator 1
 5472 017e 052F     		cmp	r7, #5
 5473 0180 EDD9     		bls	.L403
 900:ctrl_pend.c   ****             lp->tf_a[0] = 1.0f;
 5474              		.loc 1 900 0 is_stmt 1
 5475 0182 4FF48673 		mov	r3, #268
 5476 0186 644A     		ldr	r2, .L434
 5477 0188 03FB0423 		mla	r3, r3, r4, r2
 5478 018c 4FF07E52 		mov	r2, #1065353216
 5479 0190 1A62     		str	r2, [r3, #32]	@ float
 5480              	.LVL828:
 5481              	.L398:
 5482              	.LBE398:
 901:ctrl_pend.c   ****         }
 902:ctrl_pend.c   ****         memset(lp->tf_w, 0, sizeof(lp->tf_w));
 5483              		.loc 1 902 0
 5484 0192 4FF48670 		mov	r0, #268
 5485 0196 00FB04F4 		mul	r4, r0, r4
 5486              	.LVL829:
 5487 019a 3034     		adds	r4, r4, #48
 5488 019c 624B     		ldr	r3, .L434+16
 5489 019e 1C44     		add	r4, r4, r3
 5490 01a0 0023     		movs	r3, #0
 5491 01a2 6360     		str	r3, [r4, #4]	@ unaligned
 5492 01a4 A360     		str	r3, [r4, #8]	@ unaligned
 5493 01a6 E360     		str	r3, [r4, #12]	@ unaligned
 5494 01a8 2361     		str	r3, [r4, #16]	@ unaligned
 5495 01aa 6361     		str	r3, [r4, #20]	@ unaligned
 5496              	.LBE399:
 5497 01ac 93E1     		b	.L384
 5498              	.LVL830:
ARM GAS  C:\Users\user\AppData\Local\Temp\cc6TIdBD.s 			page 123


 5499              	.L431:
 903:ctrl_pend.c   ****     }
 904:ctrl_pend.c   ****     /* --- Coeficientes SS --- */
 905:ctrl_pend.c   ****     else if (mode_ss(lp->mode))
 5500              		.loc 1 905 0
 5501 01ae FFF7FEFF 		bl	mode_ss
 5502              	.LVL831:
 5503 01b2 0028     		cmp	r0, #0
 5504 01b4 00F08F81 		beq	.L384
 906:ctrl_pend.c   ****     {
 907:ctrl_pend.c   ****         lp->A[0] = c[0];  lp->A[1] = c[1];
 5505              		.loc 1 907 0
 5506 01b8 3B68     		ldr	r3, [r7]	@ float
 5507 01ba 574E     		ldr	r6, .L434
 5508 01bc 4FF48675 		mov	r5, #268
 5509 01c0 05FB04F5 		mul	r5, r5, r4
 5510 01c4 06EB050A 		add	r10, r6, r5
 5511 01c8 CAF84C30 		str	r3, [r10, #76]	@ float
 5512 01cc 7B68     		ldr	r3, [r7, #4]	@ float
 5513 01ce CAF85030 		str	r3, [r10, #80]	@ float
 908:ctrl_pend.c   ****         lp->A[2] = c[2];  lp->A[3] = c[3];
 5514              		.loc 1 908 0
 5515 01d2 BB68     		ldr	r3, [r7, #8]	@ float
 5516 01d4 CAF85430 		str	r3, [r10, #84]	@ float
 5517 01d8 FB68     		ldr	r3, [r7, #12]	@ float
 5518 01da CAF85830 		str	r3, [r10, #88]	@ float
 909:ctrl_pend.c   ****         lp->B[0] = c[4];  lp->B[1] = c[5];
 5519              		.loc 1 909 0
 5520 01de 3B69     		ldr	r3, [r7, #16]	@ float
 5521 01e0 CAF85C30 		str	r3, [r10, #92]	@ float
 5522 01e4 7B69     		ldr	r3, [r7, #20]	@ float
 5523 01e6 CAF86030 		str	r3, [r10, #96]	@ float
 910:ctrl_pend.c   ****         lp->C[0] = c[6];  lp->C[1] = c[7];
 5524              		.loc 1 910 0
 5525 01ea BB69     		ldr	r3, [r7, #24]	@ float
 5526 01ec CAF86430 		str	r3, [r10, #100]	@ float
 5527 01f0 FB69     		ldr	r3, [r7, #28]	@ float
 5528 01f2 CAF86830 		str	r3, [r10, #104]	@ float
 911:ctrl_pend.c   ****         lp->D    = c[8];
 5529              		.loc 1 911 0
 5530 01f6 3B6A     		ldr	r3, [r7, #32]	@ float
 5531 01f8 CAF86C30 		str	r3, [r10, #108]	@ float
 912:ctrl_pend.c   ****         lp->L[0] = c[9];  lp->L[1] = c[10];
 5532              		.loc 1 912 0
 5533 01fc 7B6A     		ldr	r3, [r7, #36]	@ float
 5534 01fe CAF87030 		str	r3, [r10, #112]	@ float
 5535 0202 BB6A     		ldr	r3, [r7, #40]	@ float
 5536 0204 CAF87430 		str	r3, [r10, #116]	@ float
 913:ctrl_pend.c   ****         lp->K[0] = c[11]; lp->K[1] = c[12];
 5537              		.loc 1 913 0
 5538 0208 FB6A     		ldr	r3, [r7, #44]	@ float
 5539 020a CAF87830 		str	r3, [r10, #120]	@ float
 5540 020e 3B6B     		ldr	r3, [r7, #48]	@ float
 5541 0210 CAF87C30 		str	r3, [r10, #124]	@ float
 914:ctrl_pend.c   ****         lp->Kx   = c[13];
 5542              		.loc 1 914 0
 5543 0214 7B6B     		ldr	r3, [r7, #52]	@ float
ARM GAS  C:\Users\user\AppData\Local\Temp\cc6TIdBD.s 			page 124


 5544 0216 CAF88030 		str	r3, [r10, #128]	@ float
 915:ctrl_pend.c   ****         memset(lp->xhat, 0, sizeof(lp->xhat));
 5545              		.loc 1 915 0
 5546 021a 0436     		adds	r6, r6, #4
 5547 021c 05F18002 		add	r2, r5, #128
 5548 0220 B118     		adds	r1, r6, r2
 5549 0222 0023     		movs	r3, #0
 5550 0224 B350     		str	r3, [r6, r2]	@ unaligned
 5551 0226 4B60     		str	r3, [r1, #4]	@ unaligned
 916:ctrl_pend.c   ****         memset(lp->zhat, 0, sizeof(lp->zhat));
 5552              		.loc 1 916 0
 5553 0228 05F18802 		add	r2, r5, #136
 5554 022c B118     		adds	r1, r6, r2
 5555 022e B350     		str	r3, [r6, r2]	@ unaligned
 5556 0230 4B60     		str	r3, [r1, #4]	@ unaligned
 917:ctrl_pend.c   ****         lp->vint = 0.0f;
 5557              		.loc 1 917 0
 5558 0232 0023     		movs	r3, #0
 5559 0234 CAF89430 		str	r3, [r10, #148]	@ float
 918:ctrl_pend.c   **** 
 919:ctrl_pend.c   ****         /* --- Pre-convertir a Q31/Q15/Q7 para los paths Q ---
 920:ctrl_pend.c   ****            arm_float_to_q31 espera valores en [-1,1); satura si no.
 921:ctrl_pend.c   ****            Los coeficientes se almacenan SIN dividir por q_scale:
 922:ctrl_pend.c   ****            la normalización aplica solo a las señales en cada paso.
 923:ctrl_pend.c   ****            Condición para resultados exactos: |coef| < 1.        */
 924:ctrl_pend.c   ****         arm_float_to_q31((float32_t*)lp->A, lp->qA31, 4u);
 5560              		.loc 1 924 0
 5561 0238 05F14809 		add	r9, r5, #72
 5562 023c B144     		add	r9, r9, r6
 5563 023e 05F1A801 		add	r1, r5, #168
 5564 0242 0422     		movs	r2, #4
 5565 0244 3144     		add	r1, r1, r6
 5566 0246 4846     		mov	r0, r9
 5567 0248 FFF7FEFF 		bl	arm_float_to_q31
 5568              	.LVL832:
 925:ctrl_pend.c   ****         arm_float_to_q31((float32_t*)lp->B, lp->qB31, 2u);
 5569              		.loc 1 925 0
 5570 024c 05F15808 		add	r8, r5, #88
 5571 0250 B044     		add	r8, r8, r6
 5572 0252 05F1B801 		add	r1, r5, #184
 5573 0256 0222     		movs	r2, #2
 5574 0258 3144     		add	r1, r1, r6
 5575 025a 4046     		mov	r0, r8
 5576 025c FFF7FEFF 		bl	arm_float_to_q31
 5577              	.LVL833:
 926:ctrl_pend.c   ****         arm_float_to_q31((float32_t*)lp->C, lp->qC31, 2u);
 5578              		.loc 1 926 0
 5579 0260 05F16007 		add	r7, r5, #96
 5580              	.LVL834:
 5581 0264 3744     		add	r7, r7, r6
 5582 0266 05F1C001 		add	r1, r5, #192
 5583 026a 0222     		movs	r2, #2
 5584 026c 3144     		add	r1, r1, r6
 5585 026e 3846     		mov	r0, r7
 5586 0270 FFF7FEFF 		bl	arm_float_to_q31
 5587              	.LVL835:
 927:ctrl_pend.c   ****         arm_float_to_q31((float32_t*)lp->K, lp->qK31, 2u);
ARM GAS  C:\Users\user\AppData\Local\Temp\cc6TIdBD.s 			page 125


 5588              		.loc 1 927 0
 5589 0274 05F17003 		add	r3, r5, #112
 5590 0278 3344     		add	r3, r3, r6
 5591 027a 0433     		adds	r3, r3, #4
 5592 027c 0093     		str	r3, [sp]
 5593 027e 05F1C801 		add	r1, r5, #200
 5594 0282 0222     		movs	r2, #2
 5595 0284 3144     		add	r1, r1, r6
 5596 0286 1846     		mov	r0, r3
 5597 0288 FFF7FEFF 		bl	arm_float_to_q31
 5598              	.LVL836:
 928:ctrl_pend.c   ****         arm_float_to_q31((float32_t*)lp->L, lp->qL31, 2u);
 5599              		.loc 1 928 0
 5600 028c 05F16803 		add	r3, r5, #104
 5601 0290 3344     		add	r3, r3, r6
 5602 0292 0433     		adds	r3, r3, #4
 5603 0294 0193     		str	r3, [sp, #4]
 5604 0296 05F1D001 		add	r1, r5, #208
 5605 029a 0222     		movs	r2, #2
 5606 029c 3144     		add	r1, r1, r6
 5607 029e 1846     		mov	r0, r3
 5608 02a0 FFF7FEFF 		bl	arm_float_to_q31
 5609              	.LVL837:
 929:ctrl_pend.c   ****         lp->qD31  = flt_to_q31n(lp->D);
 5610              		.loc 1 929 0
 5611 02a4 DAF86C50 		ldr	r5, [r10, #108]	@ float
 5612              	.LVL838:
 5613              	.LBB400:
 5614              	.LBB401:
 207:ctrl_pend.c   ****     if (v < -1.0f)  return  (q31_t)0x80000000;
 5615              		.loc 1 207 0
 5616 02a8 4FF07E51 		mov	r1, #1065353216
 5617 02ac 2846     		mov	r0, r5
 5618 02ae FFF7FEFF 		bl	__aeabi_fcmpge
 5619              	.LVL839:
 5620 02b2 60B9     		cbnz	r0, .L415
 208:ctrl_pend.c   ****     return (q31_t)(v * 2147483648.0f);
 5621              		.loc 1 208 0
 5622 02b4 1D49     		ldr	r1, .L434+20
 5623 02b6 2846     		mov	r0, r5
 5624 02b8 FFF7FEFF 		bl	__aeabi_fcmplt
 5625              	.LVL840:
 5626 02bc 50B9     		cbnz	r0, .L416
 209:ctrl_pend.c   **** }
 5627              		.loc 1 209 0
 5628 02be 4FF09E41 		mov	r1, #1325400064
 5629 02c2 2846     		mov	r0, r5
 5630 02c4 FFF7FEFF 		bl	__aeabi_fmul
 5631              	.LVL841:
 5632 02c8 FFF7FEFF 		bl	__aeabi_f2iz
 5633              	.LVL842:
 5634 02cc 04E0     		b	.L404
 5635              	.L415:
 207:ctrl_pend.c   ****     if (v < -1.0f)  return  (q31_t)0x80000000;
 5636              		.loc 1 207 0
 5637 02ce 6FF00040 		mvn	r0, #-2147483648
 5638 02d2 01E0     		b	.L404
ARM GAS  C:\Users\user\AppData\Local\Temp\cc6TIdBD.s 			page 126


 5639              	.L416:
 208:ctrl_pend.c   ****     return (q31_t)(v * 2147483648.0f);
 5640              		.loc 1 208 0
 5641 02d4 4FF00040 		mov	r0, #-2147483648
 5642              	.L404:
 5643              	.LVL843:
 5644              	.LBE401:
 5645              	.LBE400:
 5646              		.loc 1 929 0
 5647 02d8 4FF48673 		mov	r3, #268
 5648 02dc 0E4A     		ldr	r2, .L434
 5649 02de 03FB0423 		mla	r3, r3, r4, r2
 5650 02e2 C3F8DC00 		str	r0, [r3, #220]
 930:ctrl_pend.c   ****         lp->qKx31 = flt_to_q31n(lp->Kx);
 5651              		.loc 1 930 0
 5652 02e6 D3F88050 		ldr	r5, [r3, #128]	@ float
 5653              	.LVL844:
 5654              	.LBB402:
 5655              	.LBB403:
 207:ctrl_pend.c   ****     if (v < -1.0f)  return  (q31_t)0x80000000;
 5656              		.loc 1 207 0
 5657 02ea 4FF07E51 		mov	r1, #1065353216
 5658 02ee 2846     		mov	r0, r5
 5659 02f0 FFF7FEFF 		bl	__aeabi_fcmpge
 5660              	.LVL845:
 5661 02f4 60B9     		cbnz	r0, .L417
 208:ctrl_pend.c   ****     return (q31_t)(v * 2147483648.0f);
 5662              		.loc 1 208 0
 5663 02f6 0D49     		ldr	r1, .L434+20
 5664 02f8 2846     		mov	r0, r5
 5665 02fa FFF7FEFF 		bl	__aeabi_fcmplt
 5666              	.LVL846:
 5667 02fe B8B9     		cbnz	r0, .L418
 209:ctrl_pend.c   **** }
 5668              		.loc 1 209 0
 5669 0300 4FF09E41 		mov	r1, #1325400064
 5670 0304 2846     		mov	r0, r5
 5671 0306 FFF7FEFF 		bl	__aeabi_fmul
 5672              	.LVL847:
 5673 030a FFF7FEFF 		bl	__aeabi_f2iz
 5674              	.LVL848:
 5675 030e 11E0     		b	.L405
 5676              	.L417:
 207:ctrl_pend.c   ****     if (v < -1.0f)  return  (q31_t)0x80000000;
 5677              		.loc 1 207 0
 5678 0310 6FF00040 		mvn	r0, #-2147483648
 5679 0314 0EE0     		b	.L405
 5680              	.L435:
 5681 0316 00BF     		.align	2
 5682              	.L434:
 5683 0318 00000000 		.word	.LANCHOR0
 5684 031c 00401C46 		.word	1176256512
 5685 0320 00000000 		.word	.LANCHOR1
 5686 0324 001BB74B 		.word	1270291200
 5687 0328 04000000 		.word	.LANCHOR0+4
 5688 032c 000080BF 		.word	-1082130432
 5689              	.L418:
ARM GAS  C:\Users\user\AppData\Local\Temp\cc6TIdBD.s 			page 127


 208:ctrl_pend.c   ****     return (q31_t)(v * 2147483648.0f);
 5690              		.loc 1 208 0
 5691 0330 4FF00040 		mov	r0, #-2147483648
 5692              	.L405:
 5693              	.LVL849:
 5694              	.LBE403:
 5695              	.LBE402:
 5696              		.loc 1 930 0
 5697 0334 6A4E     		ldr	r6, .L436
 5698 0336 4FF48675 		mov	r5, #268
 5699 033a 05FB04F5 		mul	r5, r5, r4
 5700 033e 06EB050B 		add	fp, r6, r5
 5701 0342 CBF8E000 		str	r0, [fp, #224]
 931:ctrl_pend.c   **** 
 932:ctrl_pend.c   ****         arm_float_to_q15((float32_t*)lp->A, lp->qA15, 4u);
 5702              		.loc 1 932 0
 5703 0346 0436     		adds	r6, r6, #4
 5704 0348 05F1E001 		add	r1, r5, #224
 5705 034c 0422     		movs	r2, #4
 5706 034e 3144     		add	r1, r1, r6
 5707 0350 4846     		mov	r0, r9
 5708 0352 FFF7FEFF 		bl	arm_float_to_q15
 5709              	.LVL850:
 933:ctrl_pend.c   ****         arm_float_to_q15((float32_t*)lp->B, lp->qB15, 2u);
 5710              		.loc 1 933 0
 5711 0356 05F1E80A 		add	r10, r5, #232
 5712 035a B244     		add	r10, r10, r6
 5713 035c 0222     		movs	r2, #2
 5714 035e 5146     		mov	r1, r10
 5715 0360 4046     		mov	r0, r8
 5716 0362 FFF7FEFF 		bl	arm_float_to_q15
 5717              	.LVL851:
 934:ctrl_pend.c   ****         arm_float_to_q15((float32_t*)lp->C, lp->qC15, 2u);
 5718              		.loc 1 934 0
 5719 0366 0222     		movs	r2, #2
 5720 0368 0AF10401 		add	r1, r10, #4
 5721 036c 3846     		mov	r0, r7
 5722 036e FFF7FEFF 		bl	arm_float_to_q15
 5723              	.LVL852:
 935:ctrl_pend.c   ****         arm_float_to_q15((float32_t*)lp->K, lp->qK15, 2u);
 5724              		.loc 1 935 0
 5725 0372 F035     		adds	r5, r5, #240
 5726 0374 2E44     		add	r6, r6, r5
 5727 0376 0222     		movs	r2, #2
 5728 0378 3146     		mov	r1, r6
 5729 037a 0098     		ldr	r0, [sp]
 5730 037c FFF7FEFF 		bl	arm_float_to_q15
 5731              	.LVL853:
 936:ctrl_pend.c   ****         arm_float_to_q15((float32_t*)lp->L, lp->qL15, 2u);
 5732              		.loc 1 936 0
 5733 0380 0222     		movs	r2, #2
 5734 0382 311D     		adds	r1, r6, #4
 5735 0384 0198     		ldr	r0, [sp, #4]
 5736 0386 FFF7FEFF 		bl	arm_float_to_q15
 5737              	.LVL854:
 937:ctrl_pend.c   ****         lp->qD15  = flt_to_q15n(lp->D);
 5738              		.loc 1 937 0
ARM GAS  C:\Users\user\AppData\Local\Temp\cc6TIdBD.s 			page 128


 5739 038a DBF86C50 		ldr	r5, [fp, #108]	@ float
 5740              	.LVL855:
 5741              	.LBB404:
 5742              	.LBB405:
 218:ctrl_pend.c   ****     if (v < -1.0f)  return  (q15_t)0x8000;
 5743              		.loc 1 218 0
 5744 038e 4FF07E51 		mov	r1, #1065353216
 5745 0392 2846     		mov	r0, r5
 5746 0394 FFF7FEFF 		bl	__aeabi_fcmpge
 5747              	.LVL856:
 5748 0398 68B9     		cbnz	r0, .L419
 219:ctrl_pend.c   ****     return (q15_t)(v * 32768.0f);
 5749              		.loc 1 219 0
 5750 039a 5249     		ldr	r1, .L436+4
 5751 039c 2846     		mov	r0, r5
 5752 039e FFF7FEFF 		bl	__aeabi_fcmplt
 5753              	.LVL857:
 5754 03a2 58B9     		cbnz	r0, .L420
 220:ctrl_pend.c   **** }
 5755              		.loc 1 220 0
 5756 03a4 4FF08E41 		mov	r1, #1191182336
 5757 03a8 2846     		mov	r0, r5
 5758 03aa FFF7FEFF 		bl	__aeabi_fmul
 5759              	.LVL858:
 5760 03ae FFF7FEFF 		bl	__aeabi_f2iz
 5761              	.LVL859:
 5762 03b2 00B2     		sxth	r0, r0
 5763 03b4 03E0     		b	.L406
 5764              	.L419:
 218:ctrl_pend.c   ****     if (v < -1.0f)  return  (q15_t)0x8000;
 5765              		.loc 1 218 0
 5766 03b6 47F6FF70 		movw	r0, #32767
 5767 03ba 00E0     		b	.L406
 5768              	.L420:
 219:ctrl_pend.c   ****     return (q15_t)(v * 32768.0f);
 5769              		.loc 1 219 0
 5770 03bc 4A48     		ldr	r0, .L436+8
 5771              	.L406:
 5772              	.LVL860:
 5773              	.LBE405:
 5774              	.LBE404:
 5775              		.loc 1 937 0
 5776 03be 4FF48673 		mov	r3, #268
 5777 03c2 474A     		ldr	r2, .L436
 5778 03c4 03FB0423 		mla	r3, r3, r4, r2
 5779 03c8 A3F8FC00 		strh	r0, [r3, #252]	@ movhi
 938:ctrl_pend.c   ****         lp->qKx15 = flt_to_q15n(lp->Kx);
 5780              		.loc 1 938 0
 5781 03cc D3F88050 		ldr	r5, [r3, #128]	@ float
 5782              	.LVL861:
 5783              	.LBB406:
 5784              	.LBB407:
 218:ctrl_pend.c   ****     if (v < -1.0f)  return  (q15_t)0x8000;
 5785              		.loc 1 218 0
 5786 03d0 4FF07E51 		mov	r1, #1065353216
 5787 03d4 2846     		mov	r0, r5
 5788 03d6 FFF7FEFF 		bl	__aeabi_fcmpge
ARM GAS  C:\Users\user\AppData\Local\Temp\cc6TIdBD.s 			page 129


 5789              	.LVL862:
 5790 03da 68B9     		cbnz	r0, .L421
 219:ctrl_pend.c   ****     return (q15_t)(v * 32768.0f);
 5791              		.loc 1 219 0
 5792 03dc 4149     		ldr	r1, .L436+4
 5793 03de 2846     		mov	r0, r5
 5794 03e0 FFF7FEFF 		bl	__aeabi_fcmplt
 5795              	.LVL863:
 5796 03e4 58B9     		cbnz	r0, .L422
 220:ctrl_pend.c   **** }
 5797              		.loc 1 220 0
 5798 03e6 4FF08E41 		mov	r1, #1191182336
 5799 03ea 2846     		mov	r0, r5
 5800 03ec FFF7FEFF 		bl	__aeabi_fmul
 5801              	.LVL864:
 5802 03f0 FFF7FEFF 		bl	__aeabi_f2iz
 5803              	.LVL865:
 5804 03f4 00B2     		sxth	r0, r0
 5805 03f6 03E0     		b	.L407
 5806              	.L421:
 218:ctrl_pend.c   ****     if (v < -1.0f)  return  (q15_t)0x8000;
 5807              		.loc 1 218 0
 5808 03f8 47F6FF70 		movw	r0, #32767
 5809 03fc 00E0     		b	.L407
 5810              	.L422:
 219:ctrl_pend.c   ****     return (q15_t)(v * 32768.0f);
 5811              		.loc 1 219 0
 5812 03fe 3A48     		ldr	r0, .L436+8
 5813              	.L407:
 5814              	.LVL866:
 5815              	.LBE407:
 5816              	.LBE406:
 5817              		.loc 1 938 0
 5818 0400 374E     		ldr	r6, .L436
 5819 0402 4FF48675 		mov	r5, #268
 5820 0406 05FB04F5 		mul	r5, r5, r4
 5821 040a 06EB050A 		add	r10, r6, r5
 5822 040e AAF8FE00 		strh	r0, [r10, #254]	@ movhi
 939:ctrl_pend.c   **** 
 940:ctrl_pend.c   ****         arm_float_to_q7((float32_t*)lp->A, lp->qA7, 4u);
 5823              		.loc 1 940 0
 5824 0412 0436     		adds	r6, r6, #4
 5825 0414 05F1F801 		add	r1, r5, #248
 5826 0418 3144     		add	r1, r1, r6
 5827 041a 0422     		movs	r2, #4
 5828 041c 1144     		add	r1, r1, r2
 5829 041e 4846     		mov	r0, r9
 5830 0420 FFF7FEFF 		bl	arm_float_to_q7
 5831              	.LVL867:
 941:ctrl_pend.c   ****         arm_float_to_q7((float32_t*)lp->B, lp->qB7, 2u);
 5832              		.loc 1 941 0
 5833 0424 05F58075 		add	r5, r5, #256
 5834 0428 2E44     		add	r6, r6, r5
 5835 042a 0222     		movs	r2, #2
 5836 042c 3146     		mov	r1, r6
 5837 042e 4046     		mov	r0, r8
 5838 0430 FFF7FEFF 		bl	arm_float_to_q7
ARM GAS  C:\Users\user\AppData\Local\Temp\cc6TIdBD.s 			page 130


 5839              	.LVL868:
 942:ctrl_pend.c   ****         arm_float_to_q7((float32_t*)lp->C, lp->qC7, 2u);
 5840              		.loc 1 942 0
 5841 0434 0222     		movs	r2, #2
 5842 0436 B118     		adds	r1, r6, r2
 5843 0438 3846     		mov	r0, r7
 5844 043a FFF7FEFF 		bl	arm_float_to_q7
 5845              	.LVL869:
 943:ctrl_pend.c   ****         arm_float_to_q7((float32_t*)lp->K, lp->qK7, 2u);
 5846              		.loc 1 943 0
 5847 043e 0222     		movs	r2, #2
 5848 0440 311D     		adds	r1, r6, #4
 5849 0442 0098     		ldr	r0, [sp]
 5850 0444 FFF7FEFF 		bl	arm_float_to_q7
 5851              	.LVL870:
 944:ctrl_pend.c   ****         arm_float_to_q7((float32_t*)lp->L, lp->qL7, 2u);
 5852              		.loc 1 944 0
 5853 0448 0222     		movs	r2, #2
 5854 044a B11D     		adds	r1, r6, #6
 5855 044c 0198     		ldr	r0, [sp, #4]
 5856 044e FFF7FEFF 		bl	arm_float_to_q7
 5857              	.LVL871:
 945:ctrl_pend.c   ****         lp->qD7  = flt_to_q7n(lp->D);
 5858              		.loc 1 945 0
 5859 0452 DAF86C50 		ldr	r5, [r10, #108]	@ float
 5860              	.LVL872:
 5861              	.LBB408:
 5862              	.LBB409:
 229:ctrl_pend.c   ****     if (v < -1.0f)  return  (q7_t)0x80;
 5863              		.loc 1 229 0
 5864 0456 4FF07E51 		mov	r1, #1065353216
 5865 045a 2846     		mov	r0, r5
 5866 045c FFF7FEFF 		bl	__aeabi_fcmpge
 5867              	.LVL873:
 5868 0460 68B9     		cbnz	r0, .L423
 230:ctrl_pend.c   ****     return (q7_t)(v * 128.0f);
 5869              		.loc 1 230 0
 5870 0462 2049     		ldr	r1, .L436+4
 5871 0464 2846     		mov	r0, r5
 5872 0466 FFF7FEFF 		bl	__aeabi_fcmplt
 5873              	.LVL874:
 5874 046a 50B9     		cbnz	r0, .L424
 231:ctrl_pend.c   **** }
 5875              		.loc 1 231 0
 5876 046c 4FF08641 		mov	r1, #1124073472
 5877 0470 2846     		mov	r0, r5
 5878 0472 FFF7FEFF 		bl	__aeabi_fmul
 5879              	.LVL875:
 5880 0476 FFF7FEFF 		bl	__aeabi_f2iz
 5881              	.LVL876:
 5882 047a 40B2     		sxtb	r0, r0
 5883 047c 03E0     		b	.L408
 5884              	.L423:
 229:ctrl_pend.c   ****     if (v < -1.0f)  return  (q7_t)0x80;
 5885              		.loc 1 229 0
 5886 047e 7F20     		movs	r0, #127
 5887 0480 01E0     		b	.L408
ARM GAS  C:\Users\user\AppData\Local\Temp\cc6TIdBD.s 			page 131


 5888              	.L424:
 230:ctrl_pend.c   ****     return (q7_t)(v * 128.0f);
 5889              		.loc 1 230 0
 5890 0482 6FF07F00 		mvn	r0, #127
 5891              	.L408:
 5892              	.LVL877:
 5893              	.LBE409:
 5894              	.LBE408:
 5895              		.loc 1 945 0
 5896 0486 4FF48673 		mov	r3, #268
 5897 048a 154A     		ldr	r2, .L436
 5898 048c 03FB0423 		mla	r3, r3, r4, r2
 5899 0490 83F80C01 		strb	r0, [r3, #268]
 946:ctrl_pend.c   ****         lp->qKx7 = flt_to_q7n(lp->Kx);
 5900              		.loc 1 946 0
 5901 0494 D3F88050 		ldr	r5, [r3, #128]	@ float
 5902              	.LVL878:
 5903              	.LBB410:
 5904              	.LBB411:
 229:ctrl_pend.c   ****     if (v < -1.0f)  return  (q7_t)0x80;
 5905              		.loc 1 229 0
 5906 0498 4FF07E51 		mov	r1, #1065353216
 5907 049c 2846     		mov	r0, r5
 5908 049e FFF7FEFF 		bl	__aeabi_fcmpge
 5909              	.LVL879:
 5910 04a2 68B9     		cbnz	r0, .L425
 230:ctrl_pend.c   ****     return (q7_t)(v * 128.0f);
 5911              		.loc 1 230 0
 5912 04a4 0F49     		ldr	r1, .L436+4
 5913 04a6 2846     		mov	r0, r5
 5914 04a8 FFF7FEFF 		bl	__aeabi_fcmplt
 5915              	.LVL880:
 5916 04ac 50B9     		cbnz	r0, .L426
 231:ctrl_pend.c   **** }
 5917              		.loc 1 231 0
 5918 04ae 4FF08641 		mov	r1, #1124073472
 5919 04b2 2846     		mov	r0, r5
 5920 04b4 FFF7FEFF 		bl	__aeabi_fmul
 5921              	.LVL881:
 5922 04b8 FFF7FEFF 		bl	__aeabi_f2iz
 5923              	.LVL882:
 5924 04bc 40B2     		sxtb	r0, r0
 5925 04be 03E0     		b	.L409
 5926              	.L425:
 229:ctrl_pend.c   ****     if (v < -1.0f)  return  (q7_t)0x80;
 5927              		.loc 1 229 0
 5928 04c0 7F20     		movs	r0, #127
 5929 04c2 01E0     		b	.L409
 5930              	.L426:
 230:ctrl_pend.c   ****     return (q7_t)(v * 128.0f);
 5931              		.loc 1 230 0
 5932 04c4 6FF07F00 		mvn	r0, #127
 5933              	.L409:
 5934              	.LVL883:
 5935              	.LBE411:
 5936              	.LBE410:
 5937              		.loc 1 946 0
ARM GAS  C:\Users\user\AppData\Local\Temp\cc6TIdBD.s 			page 132


 5938 04c8 4FF48672 		mov	r2, #268
 5939 04cc 044B     		ldr	r3, .L436
 5940 04ce 02FB0434 		mla	r4, r2, r4, r3
 5941              	.LVL884:
 5942 04d2 84F80D01 		strb	r0, [r4, #269]
 5943              	.L384:
 947:ctrl_pend.c   ****     }
 948:ctrl_pend.c   ****     /* OL / OFF: solo N y Fs importan, ya parseados */
 949:ctrl_pend.c   **** }
 5944              		.loc 1 949 0
 5945 04d6 03B0     		add	sp, sp, #12
 5946              		.cfi_def_cfa_offset 36
 5947              		@ sp needed
 5948 04d8 BDE8F08F 		pop	{r4, r5, r6, r7, r8, r9, r10, fp, pc}
 5949              	.LVL885:
 5950              	.L433:
 5951              		.cfi_def_cfa_offset 0
 5952              		.cfi_restore 4
 5953              		.cfi_restore 5
 5954              		.cfi_restore 6
 5955              		.cfi_restore 7
 5956              		.cfi_restore 8
 5957              		.cfi_restore 9
 5958              		.cfi_restore 10
 5959              		.cfi_restore 11
 5960              		.cfi_restore 14
 5961 04dc 7047     		bx	lr
 5962              	.L437:
 5963 04de 00BF     		.align	2
 5964              	.L436:
 5965 04e0 00000000 		.word	.LANCHOR0
 5966 04e4 000080BF 		.word	-1082130432
 5967 04e8 0080FFFF 		.word	-32768
 5968              		.cfi_endproc
 5969              	.LFE163:
 5970              		.size	ctrl_apply_coeffs, .-ctrl_apply_coeffs
 5971              		.section	.text.ctrl_set_num_type,"ax",%progbits
 5972              		.align	2
 5973              		.global	ctrl_set_num_type
 5974              		.thumb
 5975              		.thumb_func
 5976              		.type	ctrl_set_num_type, %function
 5977              	ctrl_set_num_type:
 5978              	.LFB164:
 950:ctrl_pend.c   **** 
 951:ctrl_pend.c   **** /* ============================================================
 952:ctrl_pend.c   ****    ctrl_set_num_type()
 953:ctrl_pend.c   ****    ============================================================ */
 954:ctrl_pend.c   **** void ctrl_set_num_type(uint8 num_type)
 955:ctrl_pend.c   **** {
 5979              		.loc 1 955 0
 5980              		.cfi_startproc
 5981              		@ args = 0, pretend = 0, frame = 0
 5982              		@ frame_needed = 0, uses_anonymous_args = 0
 5983              		@ link register save eliminated.
 5984              	.LVL886:
 956:ctrl_pend.c   ****     if (num_type > CTRL_NUM_Q7) num_type = CTRL_NUM_F32;
ARM GAS  C:\Users\user\AppData\Local\Temp\cc6TIdBD.s 			page 133


 5985              		.loc 1 956 0
 5986 0000 0528     		cmp	r0, #5
 5987 0002 00D9     		bls	.L439
 5988 0004 0020     		movs	r0, #0
 5989              	.LVL887:
 5990              	.L439:
 957:ctrl_pend.c   ****     g_num_type = num_type;
 5991              		.loc 1 957 0
 5992 0006 014B     		ldr	r3, .L441
 5993 0008 1870     		strb	r0, [r3]
 5994 000a 7047     		bx	lr
 5995              	.L442:
 5996              		.align	2
 5997              	.L441:
 5998 000c 00000000 		.word	.LANCHOR0
 5999              		.cfi_endproc
 6000              	.LFE164:
 6001              		.size	ctrl_set_num_type, .-ctrl_set_num_type
 6002              		.section	.text.ctrl_get_num_type,"ax",%progbits
 6003              		.align	2
 6004              		.global	ctrl_get_num_type
 6005              		.thumb
 6006              		.thumb_func
 6007              		.type	ctrl_get_num_type, %function
 6008              	ctrl_get_num_type:
 6009              	.LFB165:
 958:ctrl_pend.c   **** }
 959:ctrl_pend.c   **** 
 960:ctrl_pend.c   **** uint8 ctrl_get_num_type(void)
 961:ctrl_pend.c   **** {
 6010              		.loc 1 961 0
 6011              		.cfi_startproc
 6012              		@ args = 0, pretend = 0, frame = 0
 6013              		@ frame_needed = 0, uses_anonymous_args = 0
 6014              		@ link register save eliminated.
 962:ctrl_pend.c   ****     return g_num_type;
 963:ctrl_pend.c   **** }
 6015              		.loc 1 963 0
 6016 0000 014B     		ldr	r3, .L444
 6017 0002 1878     		ldrb	r0, [r3]	@ zero_extendqisi2
 6018 0004 7047     		bx	lr
 6019              	.L445:
 6020 0006 00BF     		.align	2
 6021              	.L444:
 6022 0008 00000000 		.word	.LANCHOR0
 6023              		.cfi_endproc
 6024              	.LFE165:
 6025              		.size	ctrl_get_num_type, .-ctrl_get_num_type
 6026              		.section	.text.ctrl_start,"ax",%progbits
 6027              		.align	2
 6028              		.global	ctrl_start
 6029              		.thumb
 6030              		.thumb_func
 6031              		.type	ctrl_start, %function
 6032              	ctrl_start:
 6033              	.LFB166:
 964:ctrl_pend.c   **** 
ARM GAS  C:\Users\user\AppData\Local\Temp\cc6TIdBD.s 			page 134


 965:ctrl_pend.c   **** /* ============================================================
 966:ctrl_pend.c   ****    ctrl_start()
 967:ctrl_pend.c   ****    ============================================================ */
 968:ctrl_pend.c   **** void ctrl_start(float ref_inner)
 969:ctrl_pend.c   **** {
 6034              		.loc 1 969 0
 6035              		.cfi_startproc
 6036              		@ args = 0, pretend = 0, frame = 0
 6037              		@ frame_needed = 0, uses_anonymous_args = 0
 6038              	.LVL888:
 6039 0000 F8B5     		push	{r3, r4, r5, r6, r7, lr}
 6040              		.cfi_def_cfa_offset 24
 6041              		.cfi_offset 3, -24
 6042              		.cfi_offset 4, -20
 6043              		.cfi_offset 5, -16
 6044              		.cfi_offset 6, -12
 6045              		.cfi_offset 7, -8
 6046              		.cfi_offset 14, -4
 6047              	.LVL889:
 970:ctrl_pend.c   ****     uint8 p;
 971:ctrl_pend.c   ****     for (p = 0u; p < PLANT_COUNT; p++) {
 6048              		.loc 1 971 0
 6049 0002 0021     		movs	r1, #0
 6050 0004 22E0     		b	.L447
 6051              	.LVL890:
 6052              	.L448:
 6053              	.LBB412:
 972:ctrl_pend.c   ****         CtrlLoop *lp = &g_lp[p];
 973:ctrl_pend.c   ****         memset(lp->tf_w, 0, sizeof(lp->tf_w));
 6054              		.loc 1 973 0 discriminator 3
 6055 0006 1C4F     		ldr	r7, .L450
 6056 0008 3C1D     		adds	r4, r7, #4
 6057 000a 4FF48672 		mov	r2, #268
 6058 000e 02FB01F3 		mul	r3, r2, r1
 6059 0012 03F13006 		add	r6, r3, #48
 6060 0016 2644     		add	r6, r6, r4
 6061 0018 0022     		movs	r2, #0
 6062 001a 7260     		str	r2, [r6, #4]	@ unaligned
 6063 001c B260     		str	r2, [r6, #8]	@ unaligned
 6064 001e F260     		str	r2, [r6, #12]	@ unaligned
 6065 0020 3261     		str	r2, [r6, #16]	@ unaligned
 6066 0022 7261     		str	r2, [r6, #20]	@ unaligned
 974:ctrl_pend.c   ****         memset(lp->xhat, 0, sizeof(lp->xhat));
 6067              		.loc 1 974 0 discriminator 3
 6068 0024 03F18005 		add	r5, r3, #128
 6069 0028 6619     		adds	r6, r4, r5
 6070 002a 6251     		str	r2, [r4, r5]	@ unaligned
 6071 002c 7260     		str	r2, [r6, #4]	@ unaligned
 975:ctrl_pend.c   ****         memset(lp->zhat, 0, sizeof(lp->zhat));
 6072              		.loc 1 975 0 discriminator 3
 6073 002e 03F18805 		add	r5, r3, #136
 6074 0032 6619     		adds	r6, r4, r5
 6075 0034 6251     		str	r2, [r4, r5]	@ unaligned
 6076 0036 7260     		str	r2, [r6, #4]	@ unaligned
 976:ctrl_pend.c   ****         lp->vint  = 0.0f;
 6077              		.loc 1 976 0 discriminator 3
 6078 0038 3B44     		add	r3, r3, r7
ARM GAS  C:\Users\user\AppData\Local\Temp\cc6TIdBD.s 			page 135


 6079 003a 0024     		movs	r4, #0
 6080 003c C3F89440 		str	r4, [r3, #148]	@ float
 977:ctrl_pend.c   ****         lp->u_out = 0.0f;
 6081              		.loc 1 977 0 discriminator 3
 6082 0040 C3F8A040 		str	r4, [r3, #160]	@ float
 978:ctrl_pend.c   ****         lp->cnt   = 0u;
 6083              		.loc 1 978 0 discriminator 3
 6084 0044 A3F8A620 		strh	r2, [r3, #166]	@ movhi
 6085              	.LBE412:
 971:ctrl_pend.c   ****         CtrlLoop *lp = &g_lp[p];
 6086              		.loc 1 971 0 discriminator 3
 6087 0048 0131     		adds	r1, r1, #1
 6088              	.LVL891:
 6089 004a C9B2     		uxtb	r1, r1
 6090              	.LVL892:
 6091              	.L447:
 971:ctrl_pend.c   ****         CtrlLoop *lp = &g_lp[p];
 6092              		.loc 1 971 0 is_stmt 0 discriminator 1
 6093 004c 0129     		cmp	r1, #1
 6094 004e DAD9     		bls	.L448
 979:ctrl_pend.c   ****     }
 980:ctrl_pend.c   **** 
 981:ctrl_pend.c   ****     g_lp[PLANT_INNER].ref = ref_inner;
 6095              		.loc 1 981 0 is_stmt 1
 6096 0050 094C     		ldr	r4, .L450
 6097 0052 C4F89800 		str	r0, [r4, #152]	@ float
 982:ctrl_pend.c   ****     g_lp[PLANT_OUTER].ref = 0.0f;     /* péndulo vertical = 0 rad */
 6098              		.loc 1 982 0
 6099 0056 0025     		movs	r5, #0
 6100 0058 C4F8A451 		str	r5, [r4, #420]	@ float
 983:ctrl_pend.c   **** 
 984:ctrl_pend.c   ****     /* Reset del encoder del péndulo: el operador posiciona el péndulo
 985:ctrl_pend.c   ****        en la vertical antes de presionar Start → ese punto pasa a ser θ=0.
 986:ctrl_pend.c   ****        También resincroniza el conteo previo del motor para que el primer
 987:ctrl_pend.c   ****        tick no acumule el movimiento ocurrido durante el Stop. */
 988:ctrl_pend.c   ****     pendulo_reset_encoders();
 6101              		.loc 1 988 0
 6102 005c FFF7FEFF 		bl	pendulo_reset_encoders
 6103              	.LVL893:
 989:ctrl_pend.c   **** 
 990:ctrl_pend.c   ****     g_y1_filt        = 0.0f;          /* arranque limpio de los filtros Åström */
 6104              		.loc 1 990 0
 6105 0060 C4F82052 		str	r5, [r4, #544]	@ float
 991:ctrl_pend.c   ****     g_y2_filt        = 0.0f;
 6106              		.loc 1 991 0
 6107 0064 C4F82452 		str	r5, [r4, #548]	@ float
 992:ctrl_pend.c   ****     ctrl_telem_ready = 0u;
 6108              		.loc 1 992 0
 6109 0068 0023     		movs	r3, #0
 6110 006a 84F81D32 		strb	r3, [r4, #541]
 993:ctrl_pend.c   ****     g_running        = 1u;
 6111              		.loc 1 993 0
 6112 006e 0123     		movs	r3, #1
 6113 0070 84F81C32 		strb	r3, [r4, #540]
 6114 0074 F8BD     		pop	{r3, r4, r5, r6, r7, pc}
 6115              	.L451:
 6116 0076 00BF     		.align	2
ARM GAS  C:\Users\user\AppData\Local\Temp\cc6TIdBD.s 			page 136


 6117              	.L450:
 6118 0078 00000000 		.word	.LANCHOR0
 6119              		.cfi_endproc
 6120              	.LFE166:
 6121              		.size	ctrl_start, .-ctrl_start
 6122              		.section	.text.ctrl_stop,"ax",%progbits
 6123              		.align	2
 6124              		.global	ctrl_stop
 6125              		.thumb
 6126              		.thumb_func
 6127              		.type	ctrl_stop, %function
 6128              	ctrl_stop:
 6129              	.LFB167:
 994:ctrl_pend.c   **** }
 995:ctrl_pend.c   **** 
 996:ctrl_pend.c   **** /* ============================================================
 997:ctrl_pend.c   ****    ctrl_stop()
 998:ctrl_pend.c   ****    ============================================================ */
 999:ctrl_pend.c   **** void ctrl_stop(void)
1000:ctrl_pend.c   **** {
 6130              		.loc 1 1000 0
 6131              		.cfi_startproc
 6132              		@ args = 0, pretend = 0, frame = 0
 6133              		@ frame_needed = 0, uses_anonymous_args = 0
 6134 0000 08B5     		push	{r3, lr}
 6135              		.cfi_def_cfa_offset 8
 6136              		.cfi_offset 3, -8
 6137              		.cfi_offset 14, -4
1001:ctrl_pend.c   ****     g_running = 0u;
 6138              		.loc 1 1001 0
 6139 0002 0022     		movs	r2, #0
 6140 0004 024B     		ldr	r3, .L454
 6141 0006 83F81C22 		strb	r2, [r3, #540]
1002:ctrl_pend.c   ****     Motor_Free();
 6142              		.loc 1 1002 0
 6143 000a FFF7FEFF 		bl	Motor_Free
 6144              	.LVL894:
 6145 000e 08BD     		pop	{r3, pc}
 6146              	.L455:
 6147              		.align	2
 6148              	.L454:
 6149 0010 00000000 		.word	.LANCHOR0
 6150              		.cfi_endproc
 6151              	.LFE167:
 6152              		.size	ctrl_stop, .-ctrl_stop
 6153              		.section	.text.ctrl_update_ref,"ax",%progbits
 6154              		.align	2
 6155              		.global	ctrl_update_ref
 6156              		.thumb
 6157              		.thumb_func
 6158              		.type	ctrl_update_ref, %function
 6159              	ctrl_update_ref:
 6160              	.LFB168:
1003:ctrl_pend.c   **** }
1004:ctrl_pend.c   **** 
1005:ctrl_pend.c   **** /* ============================================================
1006:ctrl_pend.c   ****    ctrl_update_ref()
ARM GAS  C:\Users\user\AppData\Local\Temp\cc6TIdBD.s 			page 137


1007:ctrl_pend.c   ****    ============================================================ */
1008:ctrl_pend.c   **** void ctrl_update_ref(float ref_inner)
1009:ctrl_pend.c   **** {
 6161              		.loc 1 1009 0
 6162              		.cfi_startproc
 6163              		@ args = 0, pretend = 0, frame = 0
 6164              		@ frame_needed = 0, uses_anonymous_args = 0
 6165              		@ link register save eliminated.
 6166              	.LVL895:
1010:ctrl_pend.c   ****     g_lp[PLANT_INNER].ref = ref_inner;
 6167              		.loc 1 1010 0
 6168 0000 014B     		ldr	r3, .L457
 6169 0002 C3F89800 		str	r0, [r3, #152]	@ float
 6170 0006 7047     		bx	lr
 6171              	.L458:
 6172              		.align	2
 6173              	.L457:
 6174 0008 00000000 		.word	.LANCHOR0
 6175              		.cfi_endproc
 6176              	.LFE168:
 6177              		.size	ctrl_update_ref, .-ctrl_update_ref
 6178              		.section	.text.ctrl_set_sat,"ax",%progbits
 6179              		.align	2
 6180              		.global	ctrl_set_sat
 6181              		.thumb
 6182              		.thumb_func
 6183              		.type	ctrl_set_sat, %function
 6184              	ctrl_set_sat:
 6185              	.LFB169:
1011:ctrl_pend.c   **** }
1012:ctrl_pend.c   **** 
1013:ctrl_pend.c   **** /* ============================================================
1014:ctrl_pend.c   ****    ctrl_set_sat()
1015:ctrl_pend.c   ****    ============================================================ */
1016:ctrl_pend.c   **** void ctrl_set_sat(float sat_min, float sat_max)
1017:ctrl_pend.c   **** {
 6186              		.loc 1 1017 0
 6187              		.cfi_startproc
 6188              		@ args = 0, pretend = 0, frame = 0
 6189              		@ frame_needed = 0, uses_anonymous_args = 0
 6190              	.LVL896:
 6191 0000 38B5     		push	{r3, r4, r5, lr}
 6192              		.cfi_def_cfa_offset 16
 6193              		.cfi_offset 3, -16
 6194              		.cfi_offset 4, -12
 6195              		.cfi_offset 5, -8
 6196              		.cfi_offset 14, -4
 6197 0002 0546     		mov	r5, r0
 6198 0004 0C46     		mov	r4, r1
1018:ctrl_pend.c   ****     g_sat_min = (sat_min < PWM_MIN_F) ? PWM_MIN_F : sat_min;
 6199              		.loc 1 1018 0
 6200 0006 0D49     		ldr	r1, .L474
 6201              	.LVL897:
 6202 0008 FFF7FEFF 		bl	__aeabi_fcmplt
 6203              	.LVL898:
 6204 000c 00B1     		cbz	r0, .L460
 6205 000e 0B4D     		ldr	r5, .L474
ARM GAS  C:\Users\user\AppData\Local\Temp\cc6TIdBD.s 			page 138


 6206              	.LVL899:
 6207              	.L460:
 6208              		.loc 1 1018 0 is_stmt 0 discriminator 4
 6209 0010 0B4B     		ldr	r3, .L474+4
 6210 0012 1D60     		str	r5, [r3]	@ float
1019:ctrl_pend.c   ****     g_sat_max = (sat_max > PWM_MAX_F) ? PWM_MAX_F : sat_max;
 6211              		.loc 1 1019 0 is_stmt 1 discriminator 4
 6212 0014 0B49     		ldr	r1, .L474+8
 6213 0016 2046     		mov	r0, r4
 6214 0018 FFF7FEFF 		bl	__aeabi_fcmpgt
 6215              	.LVL900:
 6216 001c 08B1     		cbz	r0, .L472
 6217              		.loc 1 1019 0 is_stmt 0
 6218 001e 0949     		ldr	r1, .L474+8
 6219 0020 00E0     		b	.L462
 6220              	.L472:
 6221 0022 2146     		mov	r1, r4
 6222              	.L462:
 6223              		.loc 1 1019 0 discriminator 4
 6224 0024 064B     		ldr	r3, .L474+4
 6225 0026 5960     		str	r1, [r3, #4]	@ float
1020:ctrl_pend.c   ****     if (g_sat_min > g_sat_max) {
 6226              		.loc 1 1020 0 is_stmt 1 discriminator 4
 6227 0028 2846     		mov	r0, r5
 6228 002a FFF7FEFF 		bl	__aeabi_fcmpgt
 6229              	.LVL901:
 6230 002e 20B1     		cbz	r0, .L459
1021:ctrl_pend.c   ****         g_sat_min = PWM_MIN_F;
 6231              		.loc 1 1021 0
 6232 0030 034B     		ldr	r3, .L474+4
 6233 0032 024A     		ldr	r2, .L474
 6234 0034 1A60     		str	r2, [r3]	@ float
1022:ctrl_pend.c   ****         g_sat_max = PWM_MAX_F;
 6235              		.loc 1 1022 0
 6236 0036 034A     		ldr	r2, .L474+8
 6237 0038 5A60     		str	r2, [r3, #4]	@ float
 6238              	.L459:
 6239 003a 38BD     		pop	{r3, r4, r5, pc}
 6240              	.LVL902:
 6241              	.L475:
 6242              		.align	2
 6243              	.L474:
 6244 003c 00009EC4 		.word	-996278272
 6245 0040 00000000 		.word	.LANCHOR1
 6246 0044 00009E44 		.word	1151205376
 6247              		.cfi_endproc
 6248              	.LFE169:
 6249              		.size	ctrl_set_sat, .-ctrl_set_sat
 6250              		.section	.text.ctrl_step,"ax",%progbits
 6251              		.align	2
 6252              		.global	ctrl_step
 6253              		.thumb
 6254              		.thumb_func
 6255              		.type	ctrl_step, %function
 6256              	ctrl_step:
 6257              	.LFB170:
1023:ctrl_pend.c   ****     }
ARM GAS  C:\Users\user\AppData\Local\Temp\cc6TIdBD.s 			page 139


1024:ctrl_pend.c   **** }
1025:ctrl_pend.c   **** 
1026:ctrl_pend.c   **** /* ============================================================
1027:ctrl_pend.c   ****    ctrl_step()   — llamar una vez por tick de g_flag_control
1028:ctrl_pend.c   ****    ============================================================ */
1029:ctrl_pend.c   **** void ctrl_step(void)
1030:ctrl_pend.c   **** {
 6258              		.loc 1 1030 0
 6259              		.cfi_startproc
 6260              		@ args = 0, pretend = 0, frame = 8
 6261              		@ frame_needed = 0, uses_anonymous_args = 0
 6262 0000 F0B5     		push	{r4, r5, r6, r7, lr}
 6263              		.cfi_def_cfa_offset 20
 6264              		.cfi_offset 4, -20
 6265              		.cfi_offset 5, -16
 6266              		.cfi_offset 6, -12
 6267              		.cfi_offset 7, -8
 6268              		.cfi_offset 14, -4
 6269 0002 83B0     		sub	sp, sp, #12
 6270              		.cfi_def_cfa_offset 32
1031:ctrl_pend.c   ****     int32  theta_cnt;
1032:ctrl_pend.c   ****     int16  delta_om_cnt;
1033:ctrl_pend.c   **** 
1034:ctrl_pend.c   ****     /* Guard: ctrl_stop() (llamado desde isr_2) puede limpiar g_running
1035:ctrl_pend.c   ****        en cualquier momento. Si ya no corremos, soltar motor y salir. */
1036:ctrl_pend.c   ****     if (!g_running) { Motor_Free(); return; }
 6271              		.loc 1 1036 0
 6272 0004 5C4B     		ldr	r3, .L485
 6273 0006 93F81C32 		ldrb	r3, [r3, #540]	@ zero_extendqisi2
 6274 000a 13B9     		cbnz	r3, .L477
 6275              		.loc 1 1036 0 is_stmt 0 discriminator 1
 6276 000c FFF7FEFF 		bl	Motor_Free
 6277              	.LVL903:
 6278 0010 B0E0     		b	.L476
 6279              	.L477:
1037:ctrl_pend.c   **** 
1038:ctrl_pend.c   ****     pendulo_read(&theta_cnt, &delta_om_cnt);
 6280              		.loc 1 1038 0 is_stmt 1
 6281 0012 0DF10201 		add	r1, sp, #2
 6282 0016 01A8     		add	r0, sp, #4
 6283 0018 FFF7FEFF 		bl	pendulo_read
 6284              	.LVL904:
1039:ctrl_pend.c   **** 
1040:ctrl_pend.c   ****     /* Velocidad cruda del motor y filtrado Åström para reducir ruido de derivada */
1041:ctrl_pend.c   ****     float y1_raw = (float)delta_om_cnt * (2.0f * PI_F / MOTOR_CPR_F) / g_Ts;
 6285              		.loc 1 1041 0
 6286 001c BDF90200 		ldrsh	r0, [sp, #2]
 6287 0020 FFF7FEFF 		bl	__aeabi_i2f
 6288              	.LVL905:
 6289 0024 5549     		ldr	r1, .L485+4
 6290 0026 FFF7FEFF 		bl	__aeabi_fmul
 6291              	.LVL906:
 6292 002a 554B     		ldr	r3, .L485+8
 6293 002c 9968     		ldr	r1, [r3, #8]	@ float
 6294 002e FFF7FEFF 		bl	__aeabi_fdiv
 6295              	.LVL907:
 6296 0032 0646     		mov	r6, r0
ARM GAS  C:\Users\user\AppData\Local\Temp\cc6TIdBD.s 			page 140


 6297              	.LVL908:
1042:ctrl_pend.c   ****     g_y1_filt    = ALPHA_ASTROM_MOT * g_y1_filt + (1.0f - ALPHA_ASTROM_MOT) * y1_raw;
 6298              		.loc 1 1042 0
 6299 0034 504C     		ldr	r4, .L485
 6300 0036 5349     		ldr	r1, .L485+12
 6301 0038 D4F82002 		ldr	r0, [r4, #544]	@ float
 6302              	.LVL909:
 6303 003c FFF7FEFF 		bl	__aeabi_fmul
 6304              	.LVL910:
 6305 0040 0546     		mov	r5, r0
 6306 0042 5149     		ldr	r1, .L485+16
 6307 0044 3046     		mov	r0, r6
 6308 0046 FFF7FEFF 		bl	__aeabi_fmul
 6309              	.LVL911:
 6310 004a 0146     		mov	r1, r0
 6311 004c 2846     		mov	r0, r5
 6312 004e FFF7FEFF 		bl	__aeabi_fadd
 6313              	.LVL912:
 6314 0052 0546     		mov	r5, r0
 6315 0054 C4F82002 		str	r0, [r4, #544]	@ float
 6316              	.LVL913:
1043:ctrl_pend.c   ****     float y1     = g_y1_filt;
1044:ctrl_pend.c   **** 
1045:ctrl_pend.c   ****     /* Ángulo crudo del péndulo (QuadDec_2, sensor óptico) y filtrado Åström */
1046:ctrl_pend.c   ****     float y2_raw = (float)theta_cnt * (2.0f * PI_F / PENDULO_CPR_F);
 6317              		.loc 1 1046 0
 6318 0058 0198     		ldr	r0, [sp, #4]
 6319              	.LVL914:
 6320 005a FFF7FEFF 		bl	__aeabi_i2f
 6321              	.LVL915:
 6322 005e 4B49     		ldr	r1, .L485+20
 6323 0060 FFF7FEFF 		bl	__aeabi_fmul
 6324              	.LVL916:
 6325 0064 0746     		mov	r7, r0
 6326              	.LVL917:
1047:ctrl_pend.c   ****     g_y2_filt    = ALPHA_ASTROM_PEND * g_y2_filt + (1.0f - ALPHA_ASTROM_PEND) * y2_raw;
 6327              		.loc 1 1047 0
 6328 0066 4A49     		ldr	r1, .L485+24
 6329 0068 D4F82402 		ldr	r0, [r4, #548]	@ float
 6330              	.LVL918:
 6331 006c FFF7FEFF 		bl	__aeabi_fmul
 6332              	.LVL919:
 6333 0070 0646     		mov	r6, r0
 6334              	.LVL920:
 6335 0072 4849     		ldr	r1, .L485+28
 6336 0074 3846     		mov	r0, r7
 6337 0076 FFF7FEFF 		bl	__aeabi_fmul
 6338              	.LVL921:
 6339 007a 0146     		mov	r1, r0
 6340 007c 3046     		mov	r0, r6
 6341 007e FFF7FEFF 		bl	__aeabi_fadd
 6342              	.LVL922:
 6343 0082 0646     		mov	r6, r0
 6344 0084 C4F82402 		str	r0, [r4, #548]	@ float
 6345              	.LVL923:
1048:ctrl_pend.c   ****     float y2     = g_y2_filt;
1049:ctrl_pend.c   **** 
ARM GAS  C:\Users\user\AppData\Local\Temp\cc6TIdBD.s 			page 141


1050:ctrl_pend.c   ****     CtrlLoop *inner = &g_lp[PLANT_INNER];
1051:ctrl_pend.c   ****     CtrlLoop *outer = &g_lp[PLANT_OUTER];
1052:ctrl_pend.c   **** 
1053:ctrl_pend.c   ****     float u1 = 0.0f;
1054:ctrl_pend.c   ****     float u2 = outer->u_out;
 6346              		.loc 1 1054 0
 6347 0088 D4F8AC01 		ldr	r0, [r4, #428]	@ float
 6348              	.LVL924:
1055:ctrl_pend.c   **** 
1056:ctrl_pend.c   ****     /* --- Loop outer (cada N ticks inner) --- */
1057:ctrl_pend.c   ****     if (outer->mode != CTRL_MODE_OFF)
 6349              		.loc 1 1057 0
 6350 008c 94F81031 		ldrb	r3, [r4, #272]	@ zero_extendqisi2
 6351 0090 062B     		cmp	r3, #6
 6352 0092 16D0     		beq	.L479
1058:ctrl_pend.c   ****     {
1059:ctrl_pend.c   ****         outer->cnt++;
 6353              		.loc 1 1059 0
 6354 0094 B4F8B231 		ldrh	r3, [r4, #434]
 6355 0098 0133     		adds	r3, r3, #1
 6356 009a 9BB2     		uxth	r3, r3
 6357 009c A4F8B231 		strh	r3, [r4, #434]	@ movhi
1060:ctrl_pend.c   ****         if (outer->cnt >= outer->N)
 6358              		.loc 1 1060 0
 6359 00a0 B4F8B021 		ldrh	r2, [r4, #432]
 6360 00a4 9342     		cmp	r3, r2
 6361 00a6 0CD3     		bcc	.L479
1061:ctrl_pend.c   ****         {
1062:ctrl_pend.c   ****             outer->cnt = 0u;
 6362              		.loc 1 1062 0
 6363 00a8 0023     		movs	r3, #0
 6364 00aa A4F8B231 		strh	r3, [r4, #434]	@ movhi
1063:ctrl_pend.c   ****             u2 = run_step(outer, y2);
 6365              		.loc 1 1063 0
 6366 00ae 3146     		mov	r1, r6
 6367 00b0 04F58870 		add	r0, r4, #272
 6368              	.LVL925:
 6369 00b4 FFF7FEFF 		bl	run_step
 6370              	.LVL926:
1064:ctrl_pend.c   ****             if (inner->mode != CTRL_MODE_OFF)
 6371              		.loc 1 1064 0
 6372 00b8 2379     		ldrb	r3, [r4, #4]	@ zero_extendqisi2
 6373 00ba 062B     		cmp	r3, #6
 6374 00bc 01D0     		beq	.L479
1065:ctrl_pend.c   ****                 inner->ref = u2;
 6375              		.loc 1 1065 0
 6376 00be C4F89800 		str	r0, [r4, #152]	@ float
 6377              	.L479:
1066:ctrl_pend.c   ****         }
1067:ctrl_pend.c   ****     }
1068:ctrl_pend.c   **** 
1069:ctrl_pend.c   ****     /* --- Loop inner (cada tick) --- */
1070:ctrl_pend.c   ****     if (inner->mode != CTRL_MODE_OFF)
 6378              		.loc 1 1070 0
 6379 00c2 2D4B     		ldr	r3, .L485
 6380 00c4 1B79     		ldrb	r3, [r3, #4]	@ zero_extendqisi2
 6381 00c6 062B     		cmp	r3, #6
ARM GAS  C:\Users\user\AppData\Local\Temp\cc6TIdBD.s 			page 142


 6382 00c8 1ED0     		beq	.L480
1071:ctrl_pend.c   ****     {
1072:ctrl_pend.c   ****         u1 = run_step(inner, y1);
 6383              		.loc 1 1072 0
 6384 00ca 2946     		mov	r1, r5
 6385 00cc 3248     		ldr	r0, .L485+32
 6386              	.LVL927:
 6387 00ce FFF7FEFF 		bl	run_step
 6388              	.LVL928:
 6389 00d2 0446     		mov	r4, r0
 6390              	.LVL929:
1073:ctrl_pend.c   ****         /* bit1 de g_ref_in_volts: salida del ctrl en Voltios → convertir a PWM */
1074:ctrl_pend.c   ****         if (g_ref_in_volts & 0x02u)
 6391              		.loc 1 1074 0
 6392 00d4 314B     		ldr	r3, .L485+36
 6393 00d6 1B78     		ldrb	r3, [r3]	@ zero_extendqisi2
 6394 00d8 13F0020F 		tst	r3, #2
 6395 00dc 09D0     		beq	.L481
1075:ctrl_pend.c   ****             Motor_Control(PWM_Desde_Voltaje(satf(u1, g_sat_min, g_sat_max)));
 6396              		.loc 1 1075 0
 6397 00de 284B     		ldr	r3, .L485+8
 6398 00e0 5A68     		ldr	r2, [r3, #4]	@ float
 6399 00e2 1968     		ldr	r1, [r3]	@ float
 6400 00e4 FFF7FEFF 		bl	satf
 6401              	.LVL930:
 6402 00e8 FFF7FEFF 		bl	PWM_Desde_Voltaje
 6403              	.LVL931:
 6404 00ec FFF7FEFF 		bl	Motor_Control
 6405              	.LVL932:
 6406 00f0 1EE0     		b	.L482
 6407              	.LVL933:
 6408              	.L481:
1076:ctrl_pend.c   ****         else
1077:ctrl_pend.c   ****             Motor_Control((int16)satf(u1, g_sat_min, g_sat_max));
 6409              		.loc 1 1077 0
 6410 00f2 234B     		ldr	r3, .L485+8
 6411 00f4 5A68     		ldr	r2, [r3, #4]	@ float
 6412 00f6 1968     		ldr	r1, [r3]	@ float
 6413 00f8 FFF7FEFF 		bl	satf
 6414              	.LVL934:
 6415 00fc FFF7FEFF 		bl	__aeabi_f2iz
 6416              	.LVL935:
 6417 0100 00B2     		sxth	r0, r0
 6418 0102 FFF7FEFF 		bl	Motor_Control
 6419              	.LVL936:
 6420 0106 13E0     		b	.L482
 6421              	.LVL937:
 6422              	.L480:
1078:ctrl_pend.c   ****     }
1079:ctrl_pend.c   ****     else if (outer->mode != CTRL_MODE_OFF)
 6423              		.loc 1 1079 0
 6424 0108 1B4B     		ldr	r3, .L485
 6425 010a 93F81031 		ldrb	r3, [r3, #272]	@ zero_extendqisi2
 6426 010e 062B     		cmp	r3, #6
 6427 0110 0BD0     		beq	.L483
1080:ctrl_pend.c   ****     {
1081:ctrl_pend.c   ****         u1 = satf(u2, g_sat_min, g_sat_max);
ARM GAS  C:\Users\user\AppData\Local\Temp\cc6TIdBD.s 			page 143


 6428              		.loc 1 1081 0
 6429 0112 1B4B     		ldr	r3, .L485+8
 6430 0114 5A68     		ldr	r2, [r3, #4]	@ float
 6431 0116 1968     		ldr	r1, [r3]	@ float
 6432 0118 FFF7FEFF 		bl	satf
 6433              	.LVL938:
 6434 011c 0446     		mov	r4, r0
 6435              	.LVL939:
1082:ctrl_pend.c   ****         Motor_Control((int16)u1);
 6436              		.loc 1 1082 0
 6437 011e FFF7FEFF 		bl	__aeabi_f2iz
 6438              	.LVL940:
 6439 0122 00B2     		sxth	r0, r0
 6440 0124 FFF7FEFF 		bl	Motor_Control
 6441              	.LVL941:
 6442 0128 02E0     		b	.L482
 6443              	.LVL942:
 6444              	.L483:
1083:ctrl_pend.c   ****     }
1084:ctrl_pend.c   ****     else
1085:ctrl_pend.c   ****     {
1086:ctrl_pend.c   ****         Motor_Free();
 6445              		.loc 1 1086 0
 6446 012a FFF7FEFF 		bl	Motor_Free
 6447              	.LVL943:
1053:ctrl_pend.c   ****     float u2 = outer->u_out;
 6448              		.loc 1 1053 0
 6449 012e 0024     		movs	r4, #0
 6450              	.LVL944:
 6451              	.L482:
 6452              	.LBB413:
1087:ctrl_pend.c   ****     }
1088:ctrl_pend.c   **** 
1089:ctrl_pend.c   ****     /* --- Snapshot telemetría (sección crítica mínima) --- */
1090:ctrl_pend.c   ****     {
1091:ctrl_pend.c   ****         uint8 intr = CyEnterCriticalSection();
 6453              		.loc 1 1091 0 discriminator 1
 6454 0130 FFF7FEFF 		bl	CyEnterCriticalSection
 6455              	.LVL945:
1092:ctrl_pend.c   ****         ctrl_telem_u1    = u1;
 6456              		.loc 1 1092 0 discriminator 1
 6457 0134 104B     		ldr	r3, .L485
 6458 0136 C3F82842 		str	r4, [r3, #552]	@ float
1093:ctrl_pend.c   ****         ctrl_telem_y1    = y1;
 6459              		.loc 1 1093 0 discriminator 1
 6460 013a C3F82C52 		str	r5, [r3, #556]	@ float
1094:ctrl_pend.c   ****         ctrl_telem_u2    = inner->ref;
 6461              		.loc 1 1094 0 discriminator 1
 6462 013e D3F89820 		ldr	r2, [r3, #152]	@ float
 6463 0142 C3F83022 		str	r2, [r3, #560]	@ float
1095:ctrl_pend.c   ****         ctrl_telem_y2    = y2;
 6464              		.loc 1 1095 0 discriminator 1
 6465 0146 C3F83462 		str	r6, [r3, #564]	@ float
1096:ctrl_pend.c   ****         ctrl_telem_x1i   = inner->xhat[0];
 6466              		.loc 1 1096 0 discriminator 1
 6467 014a D3F88420 		ldr	r2, [r3, #132]	@ float
 6468 014e C3F83822 		str	r2, [r3, #568]	@ float
ARM GAS  C:\Users\user\AppData\Local\Temp\cc6TIdBD.s 			page 144


1097:ctrl_pend.c   ****         ctrl_telem_x2i   = inner->xhat[1];
 6469              		.loc 1 1097 0 discriminator 1
 6470 0152 D3F88820 		ldr	r2, [r3, #136]	@ float
 6471 0156 C3F83C22 		str	r2, [r3, #572]	@ float
1098:ctrl_pend.c   ****         ctrl_telem_x1o   = outer->xhat[0];
 6472              		.loc 1 1098 0 discriminator 1
 6473 015a D3F89021 		ldr	r2, [r3, #400]	@ float
 6474 015e C3F84022 		str	r2, [r3, #576]	@ float
1099:ctrl_pend.c   ****         ctrl_telem_x2o   = outer->xhat[1];
 6475              		.loc 1 1099 0 discriminator 1
 6476 0162 D3F89421 		ldr	r2, [r3, #404]	@ float
 6477 0166 C3F84422 		str	r2, [r3, #580]	@ float
1100:ctrl_pend.c   ****         ctrl_telem_ready = 1u;
 6478              		.loc 1 1100 0 discriminator 1
 6479 016a 0122     		movs	r2, #1
 6480 016c 83F81D22 		strb	r2, [r3, #541]
1101:ctrl_pend.c   ****         CyExitCriticalSection(intr);
 6481              		.loc 1 1101 0 discriminator 1
 6482 0170 FFF7FEFF 		bl	CyExitCriticalSection
 6483              	.LVL946:
 6484              	.L476:
 6485              	.LBE413:
1102:ctrl_pend.c   ****     }
1103:ctrl_pend.c   **** }
 6486              		.loc 1 1103 0
 6487 0174 03B0     		add	sp, sp, #12
 6488              		.cfi_def_cfa_offset 20
 6489              		@ sp needed
 6490 0176 F0BD     		pop	{r4, r5, r6, r7, pc}
 6491              	.L486:
 6492              		.align	2
 6493              	.L485:
 6494 0178 00000000 		.word	.LANCHOR0
 6495 017c FBF7C53B 		.word	1002829819
 6496 0180 00000000 		.word	.LANCHOR1
 6497 0184 62DE543E 		.word	1045749346
 6498 0188 68C84A3F 		.word	1061865576
 6499 018c BEB5243A 		.word	975484350
 6500 0190 ACFB3A3F 		.word	1060830124
 6501 0194 A8088A3E 		.word	1049233576
 6502 0198 04000000 		.word	.LANCHOR0+4
 6503 019c 00000000 		.word	g_ref_in_volts
 6504              		.cfi_endproc
 6505              	.LFE170:
 6506              		.size	ctrl_step, .-ctrl_step
 6507              		.global	ctrl_period_ticks
 6508              		.global	ctrl_period_pending
 6509              		.global	ctrl_telem_ready
 6510              		.global	ctrl_telem_x2o
 6511              		.global	ctrl_telem_x1o
 6512              		.global	ctrl_telem_x2i
 6513              		.global	ctrl_telem_x1i
 6514              		.global	ctrl_telem_y2
 6515              		.global	ctrl_telem_u2
 6516              		.global	ctrl_telem_y1
 6517              		.global	ctrl_telem_u1
 6518              		.data
ARM GAS  C:\Users\user\AppData\Local\Temp\cc6TIdBD.s 			page 145


 6519              		.align	2
 6520              		.set	.LANCHOR1,. + 0
 6521              		.type	g_sat_min, %object
 6522              		.size	g_sat_min, 4
 6523              	g_sat_min:
 6524 0000 00009EC4 		.word	-996278272
 6525              		.type	g_sat_max, %object
 6526              		.size	g_sat_max, 4
 6527              	g_sat_max:
 6528 0004 00009E44 		.word	1151205376
 6529              		.type	g_Ts, %object
 6530              		.size	g_Ts, 4
 6531              	g_Ts:
 6532 0008 0AD7A33B 		.word	1000593162
 6533              		.type	ctrl_period_ticks, %object
 6534              		.size	ctrl_period_ticks, 4
 6535              	ctrl_period_ticks:
 6536 000c BFD40100 		.word	119999
 6537              		.bss
 6538              		.align	2
 6539              		.set	.LANCHOR0,. + 0
 6540              		.type	g_num_type, %object
 6541              		.size	g_num_type, 1
 6542              	g_num_type:
 6543 0000 00       		.space	1
 6544 0001 000000   		.space	3
 6545              		.type	g_lp, %object
 6546              		.size	g_lp, 536
 6547              	g_lp:
 6548 0004 00000000 		.space	536
 6548      00000000 
 6548      00000000 
 6548      00000000 
 6548      00000000 
 6549              		.type	g_running, %object
 6550              		.size	g_running, 1
 6551              	g_running:
 6552 021c 00       		.space	1
 6553              		.type	ctrl_telem_ready, %object
 6554              		.size	ctrl_telem_ready, 1
 6555              	ctrl_telem_ready:
 6556 021d 00       		.space	1
 6557              		.type	ctrl_period_pending, %object
 6558              		.size	ctrl_period_pending, 1
 6559              	ctrl_period_pending:
 6560 021e 00       		.space	1
 6561 021f 00       		.space	1
 6562              		.type	g_y1_filt, %object
 6563              		.size	g_y1_filt, 4
 6564              	g_y1_filt:
 6565 0220 00000000 		.space	4
 6566              		.type	g_y2_filt, %object
 6567              		.size	g_y2_filt, 4
 6568              	g_y2_filt:
 6569 0224 00000000 		.space	4
 6570              		.type	ctrl_telem_u1, %object
 6571              		.size	ctrl_telem_u1, 4
ARM GAS  C:\Users\user\AppData\Local\Temp\cc6TIdBD.s 			page 146


 6572              	ctrl_telem_u1:
 6573 0228 00000000 		.space	4
 6574              		.type	ctrl_telem_y1, %object
 6575              		.size	ctrl_telem_y1, 4
 6576              	ctrl_telem_y1:
 6577 022c 00000000 		.space	4
 6578              		.type	ctrl_telem_u2, %object
 6579              		.size	ctrl_telem_u2, 4
 6580              	ctrl_telem_u2:
 6581 0230 00000000 		.space	4
 6582              		.type	ctrl_telem_y2, %object
 6583              		.size	ctrl_telem_y2, 4
 6584              	ctrl_telem_y2:
 6585 0234 00000000 		.space	4
 6586              		.type	ctrl_telem_x1i, %object
 6587              		.size	ctrl_telem_x1i, 4
 6588              	ctrl_telem_x1i:
 6589 0238 00000000 		.space	4
 6590              		.type	ctrl_telem_x2i, %object
 6591              		.size	ctrl_telem_x2i, 4
 6592              	ctrl_telem_x2i:
 6593 023c 00000000 		.space	4
 6594              		.type	ctrl_telem_x1o, %object
 6595              		.size	ctrl_telem_x1o, 4
 6596              	ctrl_telem_x1o:
 6597 0240 00000000 		.space	4
 6598              		.type	ctrl_telem_x2o, %object
 6599              		.size	ctrl_telem_x2o, 4
 6600              	ctrl_telem_x2o:
 6601 0244 00000000 		.space	4
 6602              		.text
 6603              	.Letext0:
 6604              		.file 2 "d:\\psoc\\psoc creator\\4.4\\psoc creator\\import\\gnu\\arm\\5.4.1\\arm-none-eabi\\includ
 6605              		.file 3 "d:\\psoc\\psoc creator\\4.4\\psoc creator\\import\\gnu\\arm\\5.4.1\\arm-none-eabi\\includ
 6606              		.file 4 "arm_math.h"
 6607              		.file 5 "Generated_Source\\PSoC5/cytypes.h"
 6608              		.file 6 "./core_cm3.h"
 6609              		.file 7 "uartp_pend.h"
 6610              		.file 8 "pendulo.h"
 6611              		.file 9 "motor.h"
 6612              		.file 10 "Generated_Source\\PSoC5/CyLib.h"
 6613              		.section	.debug_info,"",%progbits
 6614              	.Ldebug_info0:
 6615 0000 68310000 		.4byte	0x3168
 6616 0004 0400     		.2byte	0x4
 6617 0006 00000000 		.4byte	.Ldebug_abbrev0
 6618 000a 04       		.byte	0x4
 6619 000b 01       		.uleb128 0x1
 6620 000c 97050000 		.4byte	.LASF178
 6621 0010 0C       		.byte	0xc
 6622 0011 F4010000 		.4byte	.LASF179
 6623 0015 9A000000 		.4byte	.LASF180
 6624 0019 30000000 		.4byte	.Ldebug_ranges0+0x30
 6625 001d 00000000 		.4byte	0
 6626 0021 00000000 		.4byte	.Ldebug_line0
 6627 0025 02       		.uleb128 0x2
 6628 0026 04       		.byte	0x4
ARM GAS  C:\Users\user\AppData\Local\Temp\cc6TIdBD.s 			page 147


 6629 0027 04       		.byte	0x4
 6630 0028 E5040000 		.4byte	.LASF0
 6631 002c 03       		.uleb128 0x3
 6632 002d 23010000 		.4byte	.LASF3
 6633 0031 02       		.byte	0x2
 6634 0032 1B       		.byte	0x1b
 6635 0033 37000000 		.4byte	0x37
 6636 0037 02       		.uleb128 0x2
 6637 0038 01       		.byte	0x1
 6638 0039 06       		.byte	0x6
 6639 003a 73010000 		.4byte	.LASF1
 6640 003e 02       		.uleb128 0x2
 6641 003f 01       		.byte	0x1
 6642 0040 08       		.byte	0x8
 6643 0041 43050000 		.4byte	.LASF2
 6644 0045 03       		.uleb128 0x3
 6645 0046 23070000 		.4byte	.LASF4
 6646 004a 02       		.byte	0x2
 6647 004b 29       		.byte	0x29
 6648 004c 50000000 		.4byte	0x50
 6649 0050 02       		.uleb128 0x2
 6650 0051 02       		.byte	0x2
 6651 0052 05       		.byte	0x5
 6652 0053 79050000 		.4byte	.LASF5
 6653 0057 02       		.uleb128 0x2
 6654 0058 02       		.byte	0x2
 6655 0059 07       		.byte	0x7
 6656 005a 32070000 		.4byte	.LASF6
 6657 005e 03       		.uleb128 0x3
 6658 005f EF060000 		.4byte	.LASF7
 6659 0063 02       		.byte	0x2
 6660 0064 3F       		.byte	0x3f
 6661 0065 69000000 		.4byte	0x69
 6662 0069 02       		.uleb128 0x2
 6663 006a 04       		.byte	0x4
 6664 006b 05       		.byte	0x5
 6665 006c 15020000 		.4byte	.LASF8
 6666 0070 02       		.uleb128 0x2
 6667 0071 04       		.byte	0x4
 6668 0072 07       		.byte	0x7
 6669 0073 66030000 		.4byte	.LASF9
 6670 0077 03       		.uleb128 0x3
 6671 0078 01010000 		.4byte	.LASF10
 6672 007c 02       		.byte	0x2
 6673 007d 59       		.byte	0x59
 6674 007e 82000000 		.4byte	0x82
 6675 0082 02       		.uleb128 0x2
 6676 0083 08       		.byte	0x8
 6677 0084 05       		.byte	0x5
 6678 0085 5E020000 		.4byte	.LASF11
 6679 0089 02       		.uleb128 0x2
 6680 008a 08       		.byte	0x8
 6681 008b 07       		.byte	0x7
 6682 008c D7000000 		.4byte	.LASF12
 6683 0090 04       		.uleb128 0x4
 6684 0091 04       		.byte	0x4
 6685 0092 05       		.byte	0x5
ARM GAS  C:\Users\user\AppData\Local\Temp\cc6TIdBD.s 			page 148


 6686 0093 696E7400 		.ascii	"int\000"
 6687 0097 02       		.uleb128 0x2
 6688 0098 04       		.byte	0x4
 6689 0099 07       		.byte	0x7
 6690 009a 38030000 		.4byte	.LASF13
 6691 009e 03       		.uleb128 0x3
 6692 009f 56070000 		.4byte	.LASF14
 6693 00a3 03       		.byte	0x3
 6694 00a4 14       		.byte	0x14
 6695 00a5 2C000000 		.4byte	0x2c
 6696 00a9 03       		.uleb128 0x3
 6697 00aa 52010000 		.4byte	.LASF15
 6698 00ae 03       		.byte	0x3
 6699 00af 20       		.byte	0x20
 6700 00b0 45000000 		.4byte	0x45
 6701 00b4 03       		.uleb128 0x3
 6702 00b5 3B050000 		.4byte	.LASF16
 6703 00b9 03       		.byte	0x3
 6704 00ba 2C       		.byte	0x2c
 6705 00bb 5E000000 		.4byte	0x5e
 6706 00bf 03       		.uleb128 0x3
 6707 00c0 22080000 		.4byte	.LASF17
 6708 00c4 03       		.byte	0x3
 6709 00c5 38       		.byte	0x38
 6710 00c6 77000000 		.4byte	0x77
 6711 00ca 02       		.uleb128 0x2
 6712 00cb 08       		.byte	0x8
 6713 00cc 04       		.byte	0x4
 6714 00cd 9F060000 		.4byte	.LASF18
 6715 00d1 02       		.uleb128 0x2
 6716 00d2 04       		.byte	0x4
 6717 00d3 07       		.byte	0x7
 6718 00d4 43040000 		.4byte	.LASF19
 6719 00d8 02       		.uleb128 0x2
 6720 00d9 01       		.byte	0x1
 6721 00da 08       		.byte	0x8
 6722 00db B0060000 		.4byte	.LASF20
 6723 00df 02       		.uleb128 0x2
 6724 00e0 08       		.byte	0x8
 6725 00e1 04       		.byte	0x4
 6726 00e2 6C020000 		.4byte	.LASF21
 6727 00e6 05       		.uleb128 0x5
 6728 00e7 2D070000 		.4byte	.LASF22
 6729 00eb 04       		.byte	0x4
 6730 00ec 8901     		.2byte	0x189
 6731 00ee 9E000000 		.4byte	0x9e
 6732 00f2 05       		.uleb128 0x5
 6733 00f3 58020000 		.4byte	.LASF23
 6734 00f7 04       		.byte	0x4
 6735 00f8 8E01     		.2byte	0x18e
 6736 00fa A9000000 		.4byte	0xa9
 6737 00fe 05       		.uleb128 0x5
 6738 00ff 60060000 		.4byte	.LASF24
 6739 0103 04       		.byte	0x4
 6740 0104 9301     		.2byte	0x193
 6741 0106 B4000000 		.4byte	0xb4
 6742 010a 05       		.uleb128 0x5
ARM GAS  C:\Users\user\AppData\Local\Temp\cc6TIdBD.s 			page 149


 6743 010b 48000000 		.4byte	.LASF25
 6744 010f 04       		.byte	0x4
 6745 0110 9801     		.2byte	0x198
 6746 0112 BF000000 		.4byte	0xbf
 6747 0116 05       		.uleb128 0x5
 6748 0117 19070000 		.4byte	.LASF26
 6749 011b 04       		.byte	0x4
 6750 011c 9D01     		.2byte	0x19d
 6751 011e 25000000 		.4byte	0x25
 6752 0122 05       		.uleb128 0x5
 6753 0123 AC030000 		.4byte	.LASF27
 6754 0127 05       		.byte	0x5
 6755 0128 E901     		.2byte	0x1e9
 6756 012a 3E000000 		.4byte	0x3e
 6757 012e 05       		.uleb128 0x5
 6758 012f B9040000 		.4byte	.LASF28
 6759 0133 05       		.byte	0x5
 6760 0134 EA01     		.2byte	0x1ea
 6761 0136 57000000 		.4byte	0x57
 6762 013a 05       		.uleb128 0x5
 6763 013b A7020000 		.4byte	.LASF29
 6764 013f 05       		.byte	0x5
 6765 0140 EB01     		.2byte	0x1eb
 6766 0142 70000000 		.4byte	0x70
 6767 0146 05       		.uleb128 0x5
 6768 0147 06080000 		.4byte	.LASF30
 6769 014b 05       		.byte	0x5
 6770 014c ED01     		.2byte	0x1ed
 6771 014e 50000000 		.4byte	0x50
 6772 0152 05       		.uleb128 0x5
 6773 0153 16030000 		.4byte	.LASF31
 6774 0157 05       		.byte	0x5
 6775 0158 EE01     		.2byte	0x1ee
 6776 015a 69000000 		.4byte	0x69
 6777 015e 06       		.uleb128 0x6
 6778 015f 22010000 		.4byte	0x122
 6779 0163 06       		.uleb128 0x6
 6780 0164 3A010000 		.4byte	0x13a
 6781 0168 07       		.uleb128 0x7
 6782 0169 0C01     		.2byte	0x10c
 6783 016b 01       		.byte	0x1
 6784 016c 50       		.byte	0x50
 6785 016d 55030000 		.4byte	0x355
 6786 0171 08       		.uleb128 0x8
 6787 0172 B5060000 		.4byte	.LASF32
 6788 0176 01       		.byte	0x1
 6789 0177 51       		.byte	0x51
 6790 0178 22010000 		.4byte	0x122
 6791 017c 00       		.byte	0
 6792 017d 08       		.uleb128 0x8
 6793 017e A2020000 		.4byte	.LASF33
 6794 0182 01       		.byte	0x1
 6795 0183 54       		.byte	0x54
 6796 0184 55030000 		.4byte	0x355
 6797 0188 04       		.byte	0x4
 6798 0189 08       		.uleb128 0x8
 6799 018a 58080000 		.4byte	.LASF34
ARM GAS  C:\Users\user\AppData\Local\Temp\cc6TIdBD.s 			page 150


 6800 018e 01       		.byte	0x1
 6801 018f 55       		.byte	0x55
 6802 0190 55030000 		.4byte	0x355
 6803 0194 1C       		.byte	0x1c
 6804 0195 08       		.uleb128 0x8
 6805 0196 11030000 		.4byte	.LASF35
 6806 019a 01       		.byte	0x1
 6807 019b 56       		.byte	0x56
 6808 019c 65030000 		.4byte	0x365
 6809 01a0 34       		.byte	0x34
 6810 01a1 09       		.uleb128 0x9
 6811 01a2 4100     		.ascii	"A\000"
 6812 01a4 01       		.byte	0x1
 6813 01a5 59       		.byte	0x59
 6814 01a6 75030000 		.4byte	0x375
 6815 01aa 48       		.byte	0x48
 6816 01ab 09       		.uleb128 0x9
 6817 01ac 4200     		.ascii	"B\000"
 6818 01ae 01       		.byte	0x1
 6819 01af 5A       		.byte	0x5a
 6820 01b0 85030000 		.4byte	0x385
 6821 01b4 58       		.byte	0x58
 6822 01b5 09       		.uleb128 0x9
 6823 01b6 4300     		.ascii	"C\000"
 6824 01b8 01       		.byte	0x1
 6825 01b9 5B       		.byte	0x5b
 6826 01ba 85030000 		.4byte	0x385
 6827 01be 60       		.byte	0x60
 6828 01bf 09       		.uleb128 0x9
 6829 01c0 4400     		.ascii	"D\000"
 6830 01c2 01       		.byte	0x1
 6831 01c3 5C       		.byte	0x5c
 6832 01c4 25000000 		.4byte	0x25
 6833 01c8 68       		.byte	0x68
 6834 01c9 09       		.uleb128 0x9
 6835 01ca 4C00     		.ascii	"L\000"
 6836 01cc 01       		.byte	0x1
 6837 01cd 5D       		.byte	0x5d
 6838 01ce 85030000 		.4byte	0x385
 6839 01d2 6C       		.byte	0x6c
 6840 01d3 09       		.uleb128 0x9
 6841 01d4 4B00     		.ascii	"K\000"
 6842 01d6 01       		.byte	0x1
 6843 01d7 5E       		.byte	0x5e
 6844 01d8 85030000 		.4byte	0x385
 6845 01dc 74       		.byte	0x74
 6846 01dd 09       		.uleb128 0x9
 6847 01de 4B7800   		.ascii	"Kx\000"
 6848 01e1 01       		.byte	0x1
 6849 01e2 5F       		.byte	0x5f
 6850 01e3 25000000 		.4byte	0x25
 6851 01e7 7C       		.byte	0x7c
 6852 01e8 08       		.uleb128 0x8
 6853 01e9 AB060000 		.4byte	.LASF36
 6854 01ed 01       		.byte	0x1
 6855 01ee 62       		.byte	0x62
 6856 01ef 85030000 		.4byte	0x385
ARM GAS  C:\Users\user\AppData\Local\Temp\cc6TIdBD.s 			page 151


 6857 01f3 80       		.byte	0x80
 6858 01f4 08       		.uleb128 0x8
 6859 01f5 7F040000 		.4byte	.LASF37
 6860 01f9 01       		.byte	0x1
 6861 01fa 63       		.byte	0x63
 6862 01fb 85030000 		.4byte	0x385
 6863 01ff 88       		.byte	0x88
 6864 0200 08       		.uleb128 0x8
 6865 0201 5B040000 		.4byte	.LASF38
 6866 0205 01       		.byte	0x1
 6867 0206 64       		.byte	0x64
 6868 0207 25000000 		.4byte	0x25
 6869 020b 90       		.byte	0x90
 6870 020c 09       		.uleb128 0x9
 6871 020d 72656600 		.ascii	"ref\000"
 6872 0211 01       		.byte	0x1
 6873 0212 66       		.byte	0x66
 6874 0213 25000000 		.4byte	0x25
 6875 0217 94       		.byte	0x94
 6876 0218 08       		.uleb128 0x8
 6877 0219 9D010000 		.4byte	.LASF39
 6878 021d 01       		.byte	0x1
 6879 021e 67       		.byte	0x67
 6880 021f 25000000 		.4byte	0x25
 6881 0223 98       		.byte	0x98
 6882 0224 08       		.uleb128 0x8
 6883 0225 BC030000 		.4byte	.LASF40
 6884 0229 01       		.byte	0x1
 6885 022a 68       		.byte	0x68
 6886 022b 25000000 		.4byte	0x25
 6887 022f 9C       		.byte	0x9c
 6888 0230 09       		.uleb128 0x9
 6889 0231 4E00     		.ascii	"N\000"
 6890 0233 01       		.byte	0x1
 6891 0234 6B       		.byte	0x6b
 6892 0235 2E010000 		.4byte	0x12e
 6893 0239 A0       		.byte	0xa0
 6894 023a 09       		.uleb128 0x9
 6895 023b 636E7400 		.ascii	"cnt\000"
 6896 023f 01       		.byte	0x1
 6897 0240 6C       		.byte	0x6c
 6898 0241 2E010000 		.4byte	0x12e
 6899 0245 A2       		.byte	0xa2
 6900 0246 08       		.uleb128 0x8
 6901 0247 97060000 		.4byte	.LASF41
 6902 024b 01       		.byte	0x1
 6903 024c 71       		.byte	0x71
 6904 024d 25000000 		.4byte	0x25
 6905 0251 A4       		.byte	0xa4
 6906 0252 08       		.uleb128 0x8
 6907 0253 D2000000 		.4byte	.LASF42
 6908 0257 01       		.byte	0x1
 6909 0258 74       		.byte	0x74
 6910 0259 95030000 		.4byte	0x395
 6911 025d A8       		.byte	0xa8
 6912 025e 08       		.uleb128 0x8
 6913 025f EA070000 		.4byte	.LASF43
ARM GAS  C:\Users\user\AppData\Local\Temp\cc6TIdBD.s 			page 152


 6914 0263 01       		.byte	0x1
 6915 0264 75       		.byte	0x75
 6916 0265 A5030000 		.4byte	0x3a5
 6917 0269 B8       		.byte	0xb8
 6918 026a 08       		.uleb128 0x8
 6919 026b 66060000 		.4byte	.LASF44
 6920 026f 01       		.byte	0x1
 6921 0270 76       		.byte	0x76
 6922 0271 A5030000 		.4byte	0x3a5
 6923 0275 C0       		.byte	0xc0
 6924 0276 08       		.uleb128 0x8
 6925 0277 D1020000 		.4byte	.LASF45
 6926 027b 01       		.byte	0x1
 6927 027c 77       		.byte	0x77
 6928 027d A5030000 		.4byte	0x3a5
 6929 0281 C8       		.byte	0xc8
 6930 0282 08       		.uleb128 0x8
 6931 0283 EE000000 		.4byte	.LASF46
 6932 0287 01       		.byte	0x1
 6933 0288 78       		.byte	0x78
 6934 0289 A5030000 		.4byte	0x3a5
 6935 028d D0       		.byte	0xd0
 6936 028e 08       		.uleb128 0x8
 6937 028f 84040000 		.4byte	.LASF47
 6938 0293 01       		.byte	0x1
 6939 0294 79       		.byte	0x79
 6940 0295 FE000000 		.4byte	0xfe
 6941 0299 D8       		.byte	0xd8
 6942 029a 08       		.uleb128 0x8
 6943 029b 3D040000 		.4byte	.LASF48
 6944 029f 01       		.byte	0x1
 6945 02a0 7A       		.byte	0x7a
 6946 02a1 FE000000 		.4byte	0xfe
 6947 02a5 DC       		.byte	0xdc
 6948 02a6 08       		.uleb128 0x8
 6949 02a7 4A070000 		.4byte	.LASF49
 6950 02ab 01       		.byte	0x1
 6951 02ac 7D       		.byte	0x7d
 6952 02ad B5030000 		.4byte	0x3b5
 6953 02b1 E0       		.byte	0xe0
 6954 02b2 08       		.uleb128 0x8
 6955 02b3 58050000 		.4byte	.LASF50
 6956 02b7 01       		.byte	0x1
 6957 02b8 7E       		.byte	0x7e
 6958 02b9 C5030000 		.4byte	0x3c5
 6959 02bd E8       		.byte	0xe8
 6960 02be 08       		.uleb128 0x8
 6961 02bf 2D040000 		.4byte	.LASF51
 6962 02c3 01       		.byte	0x1
 6963 02c4 7F       		.byte	0x7f
 6964 02c5 C5030000 		.4byte	0x3c5
 6965 02c9 EC       		.byte	0xec
 6966 02ca 08       		.uleb128 0x8
 6967 02cb 37000000 		.4byte	.LASF52
 6968 02cf 01       		.byte	0x1
 6969 02d0 80       		.byte	0x80
 6970 02d1 C5030000 		.4byte	0x3c5
ARM GAS  C:\Users\user\AppData\Local\Temp\cc6TIdBD.s 			page 153


 6971 02d5 F0       		.byte	0xf0
 6972 02d6 08       		.uleb128 0x8
 6973 02d7 5D070000 		.4byte	.LASF53
 6974 02db 01       		.byte	0x1
 6975 02dc 81       		.byte	0x81
 6976 02dd C5030000 		.4byte	0x3c5
 6977 02e1 F4       		.byte	0xf4
 6978 02e2 08       		.uleb128 0x8
 6979 02e3 06030000 		.4byte	.LASF54
 6980 02e7 01       		.byte	0x1
 6981 02e8 82       		.byte	0x82
 6982 02e9 F2000000 		.4byte	0xf2
 6983 02ed F8       		.byte	0xf8
 6984 02ee 08       		.uleb128 0x8
 6985 02ef 87000000 		.4byte	.LASF55
 6986 02f3 01       		.byte	0x1
 6987 02f4 83       		.byte	0x83
 6988 02f5 F2000000 		.4byte	0xf2
 6989 02f9 FA       		.byte	0xfa
 6990 02fa 09       		.uleb128 0x9
 6991 02fb 71413700 		.ascii	"qA7\000"
 6992 02ff 01       		.byte	0x1
 6993 0300 86       		.byte	0x86
 6994 0301 D5030000 		.4byte	0x3d5
 6995 0305 FC       		.byte	0xfc
 6996 0306 0A       		.uleb128 0xa
 6997 0307 71423700 		.ascii	"qB7\000"
 6998 030b 01       		.byte	0x1
 6999 030c 87       		.byte	0x87
 7000 030d E5030000 		.4byte	0x3e5
 7001 0311 0001     		.2byte	0x100
 7002 0313 0A       		.uleb128 0xa
 7003 0314 71433700 		.ascii	"qC7\000"
 7004 0318 01       		.byte	0x1
 7005 0319 88       		.byte	0x88
 7006 031a E5030000 		.4byte	0x3e5
 7007 031e 0201     		.2byte	0x102
 7008 0320 0A       		.uleb128 0xa
 7009 0321 714B3700 		.ascii	"qK7\000"
 7010 0325 01       		.byte	0x1
 7011 0326 89       		.byte	0x89
 7012 0327 E5030000 		.4byte	0x3e5
 7013 032b 0401     		.2byte	0x104
 7014 032d 0A       		.uleb128 0xa
 7015 032e 714C3700 		.ascii	"qL7\000"
 7016 0332 01       		.byte	0x1
 7017 0333 8A       		.byte	0x8a
 7018 0334 E5030000 		.4byte	0x3e5
 7019 0338 0601     		.2byte	0x106
 7020 033a 0A       		.uleb128 0xa
 7021 033b 71443700 		.ascii	"qD7\000"
 7022 033f 01       		.byte	0x1
 7023 0340 8B       		.byte	0x8b
 7024 0341 E6000000 		.4byte	0xe6
 7025 0345 0801     		.2byte	0x108
 7026 0347 0B       		.uleb128 0xb
 7027 0348 A7030000 		.4byte	.LASF56
ARM GAS  C:\Users\user\AppData\Local\Temp\cc6TIdBD.s 			page 154


 7028 034c 01       		.byte	0x1
 7029 034d 8C       		.byte	0x8c
 7030 034e E6000000 		.4byte	0xe6
 7031 0352 0901     		.2byte	0x109
 7032 0354 00       		.byte	0
 7033 0355 0C       		.uleb128 0xc
 7034 0356 25000000 		.4byte	0x25
 7035 035a 65030000 		.4byte	0x365
 7036 035e 0D       		.uleb128 0xd
 7037 035f D1000000 		.4byte	0xd1
 7038 0363 05       		.byte	0x5
 7039 0364 00       		.byte	0
 7040 0365 0C       		.uleb128 0xc
 7041 0366 25000000 		.4byte	0x25
 7042 036a 75030000 		.4byte	0x375
 7043 036e 0D       		.uleb128 0xd
 7044 036f D1000000 		.4byte	0xd1
 7045 0373 04       		.byte	0x4
 7046 0374 00       		.byte	0
 7047 0375 0C       		.uleb128 0xc
 7048 0376 25000000 		.4byte	0x25
 7049 037a 85030000 		.4byte	0x385
 7050 037e 0D       		.uleb128 0xd
 7051 037f D1000000 		.4byte	0xd1
 7052 0383 03       		.byte	0x3
 7053 0384 00       		.byte	0
 7054 0385 0C       		.uleb128 0xc
 7055 0386 25000000 		.4byte	0x25
 7056 038a 95030000 		.4byte	0x395
 7057 038e 0D       		.uleb128 0xd
 7058 038f D1000000 		.4byte	0xd1
 7059 0393 01       		.byte	0x1
 7060 0394 00       		.byte	0
 7061 0395 0C       		.uleb128 0xc
 7062 0396 FE000000 		.4byte	0xfe
 7063 039a A5030000 		.4byte	0x3a5
 7064 039e 0D       		.uleb128 0xd
 7065 039f D1000000 		.4byte	0xd1
 7066 03a3 03       		.byte	0x3
 7067 03a4 00       		.byte	0
 7068 03a5 0C       		.uleb128 0xc
 7069 03a6 FE000000 		.4byte	0xfe
 7070 03aa B5030000 		.4byte	0x3b5
 7071 03ae 0D       		.uleb128 0xd
 7072 03af D1000000 		.4byte	0xd1
 7073 03b3 01       		.byte	0x1
 7074 03b4 00       		.byte	0
 7075 03b5 0C       		.uleb128 0xc
 7076 03b6 F2000000 		.4byte	0xf2
 7077 03ba C5030000 		.4byte	0x3c5
 7078 03be 0D       		.uleb128 0xd
 7079 03bf D1000000 		.4byte	0xd1
 7080 03c3 03       		.byte	0x3
 7081 03c4 00       		.byte	0
 7082 03c5 0C       		.uleb128 0xc
 7083 03c6 F2000000 		.4byte	0xf2
 7084 03ca D5030000 		.4byte	0x3d5
ARM GAS  C:\Users\user\AppData\Local\Temp\cc6TIdBD.s 			page 155


 7085 03ce 0D       		.uleb128 0xd
 7086 03cf D1000000 		.4byte	0xd1
 7087 03d3 01       		.byte	0x1
 7088 03d4 00       		.byte	0
 7089 03d5 0C       		.uleb128 0xc
 7090 03d6 E6000000 		.4byte	0xe6
 7091 03da E5030000 		.4byte	0x3e5
 7092 03de 0D       		.uleb128 0xd
 7093 03df D1000000 		.4byte	0xd1
 7094 03e3 03       		.byte	0x3
 7095 03e4 00       		.byte	0
 7096 03e5 0C       		.uleb128 0xc
 7097 03e6 E6000000 		.4byte	0xe6
 7098 03ea F5030000 		.4byte	0x3f5
 7099 03ee 0D       		.uleb128 0xd
 7100 03ef D1000000 		.4byte	0xd1
 7101 03f3 01       		.byte	0x1
 7102 03f4 00       		.byte	0
 7103 03f5 03       		.uleb128 0x3
 7104 03f6 E6060000 		.4byte	.LASF57
 7105 03fa 01       		.byte	0x1
 7106 03fb 8E       		.byte	0x8e
 7107 03fc 68010000 		.4byte	0x168
 7108 0400 0E       		.uleb128 0xe
 7109 0401 62070000 		.4byte	.LASF58
 7110 0405 01       		.byte	0x1
 7111 0406 D4       		.byte	0xd4
 7112 0407 25000000 		.4byte	0x25
 7113 040b 03       		.byte	0x3
 7114 040c 1A040000 		.4byte	0x41a
 7115 0410 0F       		.uleb128 0xf
 7116 0411 7600     		.ascii	"v\000"
 7117 0413 01       		.byte	0x1
 7118 0414 D4       		.byte	0xd4
 7119 0415 FE000000 		.4byte	0xfe
 7120 0419 00       		.byte	0
 7121 041a 0E       		.uleb128 0xe
 7122 041b 00020000 		.4byte	.LASF59
 7123 041f 01       		.byte	0x1
 7124 0420 EF       		.byte	0xef
 7125 0421 FE000000 		.4byte	0xfe
 7126 0425 03       		.byte	0x3
 7127 0426 34040000 		.4byte	0x434
 7128 042a 0F       		.uleb128 0xf
 7129 042b 7600     		.ascii	"v\000"
 7130 042d 01       		.byte	0x1
 7131 042e EF       		.byte	0xef
 7132 042f 0A010000 		.4byte	0x10a
 7133 0433 00       		.byte	0
 7134 0434 0E       		.uleb128 0xe
 7135 0435 8A070000 		.4byte	.LASF60
 7136 0439 01       		.byte	0x1
 7137 043a CE       		.byte	0xce
 7138 043b FE000000 		.4byte	0xfe
 7139 043f 03       		.byte	0x3
 7140 0440 4E040000 		.4byte	0x44e
 7141 0444 0F       		.uleb128 0xf
ARM GAS  C:\Users\user\AppData\Local\Temp\cc6TIdBD.s 			page 156


 7142 0445 7600     		.ascii	"v\000"
 7143 0447 01       		.byte	0x1
 7144 0448 CE       		.byte	0xce
 7145 0449 25000000 		.4byte	0x25
 7146 044d 00       		.byte	0
 7147 044e 0E       		.uleb128 0xe
 7148 044f 4D030000 		.4byte	.LASF61
 7149 0453 01       		.byte	0x1
 7150 0454 DF       		.byte	0xdf
 7151 0455 25000000 		.4byte	0x25
 7152 0459 03       		.byte	0x3
 7153 045a 68040000 		.4byte	0x468
 7154 045e 0F       		.uleb128 0xf
 7155 045f 7600     		.ascii	"v\000"
 7156 0461 01       		.byte	0x1
 7157 0462 DF       		.byte	0xdf
 7158 0463 F2000000 		.4byte	0xf2
 7159 0467 00       		.byte	0
 7160 0468 0E       		.uleb128 0xe
 7161 0469 15080000 		.4byte	.LASF62
 7162 046d 01       		.byte	0x1
 7163 046e F4       		.byte	0xf4
 7164 046f F2000000 		.4byte	0xf2
 7165 0473 03       		.byte	0x3
 7166 0474 82040000 		.4byte	0x482
 7167 0478 0F       		.uleb128 0xf
 7168 0479 7600     		.ascii	"v\000"
 7169 047b 01       		.byte	0x1
 7170 047c F4       		.byte	0xf4
 7171 047d FE000000 		.4byte	0xfe
 7172 0481 00       		.byte	0
 7173 0482 0E       		.uleb128 0xe
 7174 0483 CF060000 		.4byte	.LASF63
 7175 0487 01       		.byte	0x1
 7176 0488 D9       		.byte	0xd9
 7177 0489 F2000000 		.4byte	0xf2
 7178 048d 03       		.byte	0x3
 7179 048e 9C040000 		.4byte	0x49c
 7180 0492 0F       		.uleb128 0xf
 7181 0493 7600     		.ascii	"v\000"
 7182 0495 01       		.byte	0x1
 7183 0496 D9       		.byte	0xd9
 7184 0497 25000000 		.4byte	0x25
 7185 049b 00       		.byte	0
 7186 049c 0E       		.uleb128 0xe
 7187 049d FC020000 		.4byte	.LASF64
 7188 04a1 01       		.byte	0x1
 7189 04a2 EA       		.byte	0xea
 7190 04a3 25000000 		.4byte	0x25
 7191 04a7 03       		.byte	0x3
 7192 04a8 B6040000 		.4byte	0x4b6
 7193 04ac 0F       		.uleb128 0xf
 7194 04ad 7600     		.ascii	"v\000"
 7195 04af 01       		.byte	0x1
 7196 04b0 EA       		.byte	0xea
 7197 04b1 E6000000 		.4byte	0xe6
 7198 04b5 00       		.byte	0
ARM GAS  C:\Users\user\AppData\Local\Temp\cc6TIdBD.s 			page 157


 7199 04b6 0E       		.uleb128 0xe
 7200 04b7 8D000000 		.4byte	.LASF65
 7201 04bb 01       		.byte	0x1
 7202 04bc F9       		.byte	0xf9
 7203 04bd E6000000 		.4byte	0xe6
 7204 04c1 03       		.byte	0x3
 7205 04c2 D0040000 		.4byte	0x4d0
 7206 04c6 0F       		.uleb128 0xf
 7207 04c7 7600     		.ascii	"v\000"
 7208 04c9 01       		.byte	0x1
 7209 04ca F9       		.byte	0xf9
 7210 04cb F2000000 		.4byte	0xf2
 7211 04cf 00       		.byte	0
 7212 04d0 0E       		.uleb128 0xe
 7213 04d1 DB060000 		.4byte	.LASF66
 7214 04d5 01       		.byte	0x1
 7215 04d6 E4       		.byte	0xe4
 7216 04d7 E6000000 		.4byte	0xe6
 7217 04db 03       		.byte	0x3
 7218 04dc EA040000 		.4byte	0x4ea
 7219 04e0 0F       		.uleb128 0xf
 7220 04e1 7600     		.ascii	"v\000"
 7221 04e3 01       		.byte	0x1
 7222 04e4 E4       		.byte	0xe4
 7223 04e5 25000000 		.4byte	0x25
 7224 04e9 00       		.byte	0
 7225 04ea 10       		.uleb128 0x10
 7226 04eb 26030000 		.4byte	.LASF181
 7227 04ef 01       		.byte	0x1
 7228 04f0 31       		.byte	0x31
 7229 04f1 03       		.byte	0x3
 7230 04f2 21050000 		.4byte	0x521
 7231 04f6 0F       		.uleb128 0xf
 7232 04f7 6C6F00   		.ascii	"lo\000"
 7233 04fa 01       		.byte	0x1
 7234 04fb 31       		.byte	0x31
 7235 04fc 21050000 		.4byte	0x521
 7236 0500 0F       		.uleb128 0xf
 7237 0501 686900   		.ascii	"hi\000"
 7238 0504 01       		.byte	0x1
 7239 0505 31       		.byte	0x31
 7240 0506 21050000 		.4byte	0x521
 7241 050a 11       		.uleb128 0x11
 7242 050b 32040000 		.4byte	.LASF67
 7243 050f 01       		.byte	0x1
 7244 0510 33       		.byte	0x33
 7245 0511 25000000 		.4byte	0x25
 7246 0515 11       		.uleb128 0x11
 7247 0516 D8030000 		.4byte	.LASF68
 7248 051a 01       		.byte	0x1
 7249 051b 33       		.byte	0x33
 7250 051c 25000000 		.4byte	0x25
 7251 0520 00       		.byte	0
 7252 0521 12       		.uleb128 0x12
 7253 0522 04       		.byte	0x4
 7254 0523 25000000 		.4byte	0x25
 7255 0527 13       		.uleb128 0x13
ARM GAS  C:\Users\user\AppData\Local\Temp\cc6TIdBD.s 			page 158


 7256 0528 54000000 		.4byte	.LASF69
 7257 052c 01       		.byte	0x1
 7258 052d B4       		.byte	0xb4
 7259 052e 25000000 		.4byte	0x25
 7260 0532 00000000 		.4byte	.LFB119
 7261 0536 26000000 		.4byte	.LFE119-.LFB119
 7262 053a 01       		.uleb128 0x1
 7263 053b 9C       		.byte	0x9c
 7264 053c 6A050000 		.4byte	0x56a
 7265 0540 14       		.uleb128 0x14
 7266 0541 7600     		.ascii	"v\000"
 7267 0543 01       		.byte	0x1
 7268 0544 B4       		.byte	0xb4
 7269 0545 25000000 		.4byte	0x25
 7270 0549 00000000 		.4byte	.LLST0
 7271 054d 14       		.uleb128 0x14
 7272 054e 6C6F00   		.ascii	"lo\000"
 7273 0551 01       		.byte	0x1
 7274 0552 B4       		.byte	0xb4
 7275 0553 25000000 		.4byte	0x25
 7276 0557 1E000000 		.4byte	.LLST1
 7277 055b 14       		.uleb128 0x14
 7278 055c 686900   		.ascii	"hi\000"
 7279 055f 01       		.byte	0x1
 7280 0560 B4       		.byte	0xb4
 7281 0561 25000000 		.4byte	0x25
 7282 0565 3C000000 		.4byte	.LLST2
 7283 0569 00       		.byte	0
 7284 056a 15       		.uleb128 0x15
 7285 056b 77000000 		.4byte	.LASF70
 7286 056f 01       		.byte	0x1
 7287 0570 BB       		.byte	0xbb
 7288 0571 22010000 		.4byte	0x122
 7289 0575 00000000 		.4byte	.LFB120
 7290 0579 0E000000 		.4byte	.LFE120-.LFB120
 7291 057d 01       		.uleb128 0x1
 7292 057e 9C       		.byte	0x9c
 7293 057f 91050000 		.4byte	0x591
 7294 0583 14       		.uleb128 0x14
 7295 0584 6D00     		.ascii	"m\000"
 7296 0586 01       		.byte	0x1
 7297 0587 BB       		.byte	0xbb
 7298 0588 22010000 		.4byte	0x122
 7299 058c 5A000000 		.4byte	.LLST3
 7300 0590 00       		.byte	0
 7301 0591 15       		.uleb128 0x15
 7302 0592 BA070000 		.4byte	.LASF71
 7303 0596 01       		.byte	0x1
 7304 0597 C1       		.byte	0xc1
 7305 0598 22010000 		.4byte	0x122
 7306 059c 00000000 		.4byte	.LFB121
 7307 05a0 0E000000 		.4byte	.LFE121-.LFB121
 7308 05a4 01       		.uleb128 0x1
 7309 05a5 9C       		.byte	0x9c
 7310 05a6 B8050000 		.4byte	0x5b8
 7311 05aa 14       		.uleb128 0x14
 7312 05ab 6D00     		.ascii	"m\000"
ARM GAS  C:\Users\user\AppData\Local\Temp\cc6TIdBD.s 			page 159


 7313 05ad 01       		.byte	0x1
 7314 05ae C1       		.byte	0xc1
 7315 05af 22010000 		.4byte	0x122
 7316 05b3 7B000000 		.4byte	.LLST4
 7317 05b7 00       		.byte	0
 7318 05b8 16       		.uleb128 0x16
 7319 05b9 45030000 		.4byte	.LASF72
 7320 05bd 01       		.byte	0x1
 7321 05be 0401     		.2byte	0x104
 7322 05c0 25000000 		.4byte	0x25
 7323 05c4 00000000 		.4byte	.LFB131
 7324 05c8 CC000000 		.4byte	.LFE131-.LFB131
 7325 05cc 01       		.uleb128 0x1
 7326 05cd 9C       		.byte	0x9c
 7327 05ce FE050000 		.4byte	0x5fe
 7328 05d2 17       		.uleb128 0x17
 7329 05d3 6C7000   		.ascii	"lp\000"
 7330 05d6 01       		.byte	0x1
 7331 05d7 0401     		.2byte	0x104
 7332 05d9 FE050000 		.4byte	0x5fe
 7333 05dd 9C000000 		.4byte	.LLST5
 7334 05e1 17       		.uleb128 0x17
 7335 05e2 7800     		.ascii	"x\000"
 7336 05e4 01       		.byte	0x1
 7337 05e5 0401     		.2byte	0x104
 7338 05e7 25000000 		.4byte	0x25
 7339 05eb BA000000 		.4byte	.LLST6
 7340 05ef 18       		.uleb128 0x18
 7341 05f0 7900     		.ascii	"y\000"
 7342 05f2 01       		.byte	0x1
 7343 05f3 0601     		.2byte	0x106
 7344 05f5 25000000 		.4byte	0x25
 7345 05f9 E8000000 		.4byte	.LLST7
 7346 05fd 00       		.byte	0
 7347 05fe 12       		.uleb128 0x12
 7348 05ff 04       		.byte	0x4
 7349 0600 F5030000 		.4byte	0x3f5
 7350 0604 16       		.uleb128 0x16
 7351 0605 D6020000 		.4byte	.LASF73
 7352 0609 01       		.byte	0x1
 7353 060a 5701     		.2byte	0x157
 7354 060c 25000000 		.4byte	0x25
 7355 0610 00000000 		.4byte	.LFB138
 7356 0614 3C010000 		.4byte	.LFE138-.LFB138
 7357 0618 01       		.uleb128 0x1
 7358 0619 9C       		.byte	0x9c
 7359 061a 53070000 		.4byte	0x753
 7360 061e 17       		.uleb128 0x17
 7361 061f 6C7000   		.ascii	"lp\000"
 7362 0622 01       		.byte	0x1
 7363 0623 5701     		.2byte	0x157
 7364 0625 FE050000 		.4byte	0x5fe
 7365 0629 06010000 		.4byte	.LLST8
 7366 062d 17       		.uleb128 0x17
 7367 062e 7800     		.ascii	"x\000"
 7368 0630 01       		.byte	0x1
 7369 0631 5701     		.2byte	0x157
ARM GAS  C:\Users\user\AppData\Local\Temp\cc6TIdBD.s 			page 160


 7370 0633 53070000 		.4byte	0x753
 7371 0637 32010000 		.4byte	.LLST9
 7372 063b 17       		.uleb128 0x17
 7373 063c 7500     		.ascii	"u\000"
 7374 063e 01       		.byte	0x1
 7375 063f 5701     		.2byte	0x157
 7376 0641 25000000 		.4byte	0x25
 7377 0645 5E010000 		.4byte	.LLST10
 7378 0649 18       		.uleb128 0x18
 7379 064a 717300   		.ascii	"qs\000"
 7380 064d 01       		.byte	0x1
 7381 064e 5901     		.2byte	0x159
 7382 0650 25000000 		.4byte	0x25
 7383 0654 8C010000 		.4byte	.LLST11
 7384 0658 19       		.uleb128 0x19
 7385 0659 787100   		.ascii	"xq\000"
 7386 065c 01       		.byte	0x1
 7387 065d 5A01     		.2byte	0x15a
 7388 065f A5030000 		.4byte	0x3a5
 7389 0663 02       		.uleb128 0x2
 7390 0664 91       		.byte	0x91
 7391 0665 58       		.sleb128 -40
 7392 0666 19       		.uleb128 0x19
 7393 0667 646F7400 		.ascii	"dot\000"
 7394 066b 01       		.byte	0x1
 7395 066c 5B01     		.2byte	0x15b
 7396 066e 0A010000 		.4byte	0x10a
 7397 0672 02       		.uleb128 0x2
 7398 0673 91       		.byte	0x91
 7399 0674 50       		.sleb128 -48
 7400 0675 1A       		.uleb128 0x1a
 7401 0676 757100   		.ascii	"uq\000"
 7402 0679 01       		.byte	0x1
 7403 067a 5F01     		.2byte	0x15f
 7404 067c FE000000 		.4byte	0xfe
 7405 0680 18       		.uleb128 0x18
 7406 0681 437800   		.ascii	"Cx\000"
 7407 0684 01       		.byte	0x1
 7408 0685 6301     		.2byte	0x163
 7409 0687 FE000000 		.4byte	0xfe
 7410 068b 9F010000 		.4byte	.LLST12
 7411 068f 18       		.uleb128 0x18
 7412 0690 447500   		.ascii	"Du\000"
 7413 0693 01       		.byte	0x1
 7414 0694 6601     		.2byte	0x166
 7415 0696 FE000000 		.4byte	0xfe
 7416 069a B2010000 		.4byte	.LLST13
 7417 069e 1B       		.uleb128 0x1b
 7418 069f 34040000 		.4byte	0x434
 7419 06a3 1A000000 		.4byte	.LBB206
 7420 06a7 2E000000 		.4byte	.LBE206-.LBB206
 7421 06ab 01       		.byte	0x1
 7422 06ac 5D01     		.2byte	0x15d
 7423 06ae BC060000 		.4byte	0x6bc
 7424 06b2 1C       		.uleb128 0x1c
 7425 06b3 44040000 		.4byte	0x444
 7426 06b7 DB010000 		.4byte	.LLST14
ARM GAS  C:\Users\user\AppData\Local\Temp\cc6TIdBD.s 			page 161


 7427 06bb 00       		.byte	0
 7428 06bc 1B       		.uleb128 0x1b
 7429 06bd 34040000 		.4byte	0x434
 7430 06c1 54000000 		.4byte	.LBB208
 7431 06c5 2E000000 		.4byte	.LBE208-.LBB208
 7432 06c9 01       		.byte	0x1
 7433 06ca 5E01     		.2byte	0x15e
 7434 06cc DA060000 		.4byte	0x6da
 7435 06d0 1C       		.uleb128 0x1c
 7436 06d1 44040000 		.4byte	0x444
 7437 06d5 F9010000 		.4byte	.LLST15
 7438 06d9 00       		.byte	0
 7439 06da 1B       		.uleb128 0x1b
 7440 06db 34040000 		.4byte	0x434
 7441 06df 8E000000 		.4byte	.LBB210
 7442 06e3 30000000 		.4byte	.LBE210-.LBB210
 7443 06e7 01       		.byte	0x1
 7444 06e8 5F01     		.2byte	0x15f
 7445 06ea F8060000 		.4byte	0x6f8
 7446 06ee 1C       		.uleb128 0x1c
 7447 06ef 44040000 		.4byte	0x444
 7448 06f3 17020000 		.4byte	.LLST16
 7449 06f7 00       		.byte	0
 7450 06f8 1B       		.uleb128 0x1b
 7451 06f9 1A040000 		.4byte	0x41a
 7452 06fd FC000000 		.4byte	.LBB212
 7453 0701 22000000 		.4byte	.LBE212-.LBB212
 7454 0705 01       		.byte	0x1
 7455 0706 6801     		.2byte	0x168
 7456 0708 16070000 		.4byte	0x716
 7457 070c 1C       		.uleb128 0x1c
 7458 070d 2A040000 		.4byte	0x42a
 7459 0711 4B020000 		.4byte	.LLST17
 7460 0715 00       		.byte	0
 7461 0716 1B       		.uleb128 0x1b
 7462 0717 00040000 		.4byte	0x400
 7463 071b 1E010000 		.4byte	.LBB214
 7464 071f 0C000000 		.4byte	.LBE214-.LBB214
 7465 0723 01       		.byte	0x1
 7466 0724 6801     		.2byte	0x168
 7467 0726 30070000 		.4byte	0x730
 7468 072a 1D       		.uleb128 0x1d
 7469 072b 10040000 		.4byte	0x410
 7470 072f 00       		.byte	0
 7471 0730 1E       		.uleb128 0x1e
 7472 0731 CC000000 		.4byte	.LVL65
 7473 0735 61300000 		.4byte	0x3061
 7474 0739 1F       		.uleb128 0x1f
 7475 073a 01       		.uleb128 0x1
 7476 073b 50       		.byte	0x50
 7477 073c 03       		.uleb128 0x3
 7478 073d 76       		.byte	0x76
 7479 073e C001     		.sleb128 192
 7480 0740 1F       		.uleb128 0x1f
 7481 0741 01       		.uleb128 0x1
 7482 0742 51       		.byte	0x51
 7483 0743 02       		.uleb128 0x2
ARM GAS  C:\Users\user\AppData\Local\Temp\cc6TIdBD.s 			page 162


 7484 0744 91       		.byte	0x91
 7485 0745 58       		.sleb128 -40
 7486 0746 1F       		.uleb128 0x1f
 7487 0747 01       		.uleb128 0x1
 7488 0748 52       		.byte	0x52
 7489 0749 01       		.uleb128 0x1
 7490 074a 32       		.byte	0x32
 7491 074b 1F       		.uleb128 0x1f
 7492 074c 01       		.uleb128 0x1
 7493 074d 53       		.byte	0x53
 7494 074e 02       		.uleb128 0x2
 7495 074f 7D       		.byte	0x7d
 7496 0750 00       		.sleb128 0
 7497 0751 00       		.byte	0
 7498 0752 00       		.byte	0
 7499 0753 12       		.uleb128 0x12
 7500 0754 04       		.byte	0x4
 7501 0755 59070000 		.4byte	0x759
 7502 0759 20       		.uleb128 0x20
 7503 075a 25000000 		.4byte	0x25
 7504 075e 21       		.uleb128 0x21
 7505 075f D5010000 		.4byte	.LASF80
 7506 0763 01       		.byte	0x1
 7507 0764 B301     		.2byte	0x1b3
 7508 0766 00000000 		.4byte	.LFB142
 7509 076a 24010000 		.4byte	.LFE142-.LFB142
 7510 076e 01       		.uleb128 0x1
 7511 076f 9C       		.byte	0x9c
 7512 0770 FB080000 		.4byte	0x8fb
 7513 0774 17       		.uleb128 0x17
 7514 0775 6C7000   		.ascii	"lp\000"
 7515 0778 01       		.byte	0x1
 7516 0779 B301     		.2byte	0x1b3
 7517 077b FE050000 		.4byte	0x5fe
 7518 077f 63020000 		.4byte	.LLST18
 7519 0783 17       		.uleb128 0x17
 7520 0784 7900     		.ascii	"y\000"
 7521 0786 01       		.byte	0x1
 7522 0787 B301     		.2byte	0x1b3
 7523 0789 25000000 		.4byte	0x25
 7524 078d 8F020000 		.4byte	.LLST19
 7525 0791 22       		.uleb128 0x22
 7526 0792 4F070000 		.4byte	.LASF74
 7527 0796 01       		.byte	0x1
 7528 0797 B301     		.2byte	0x1b3
 7529 0799 25000000 		.4byte	0x25
 7530 079d BD020000 		.4byte	.LLST20
 7531 07a1 18       		.uleb128 0x18
 7532 07a2 717300   		.ascii	"qs\000"
 7533 07a5 01       		.byte	0x1
 7534 07a6 B501     		.2byte	0x1b5
 7535 07a8 25000000 		.4byte	0x25
 7536 07ac E0020000 		.4byte	.LLST21
 7537 07b0 23       		.uleb128 0x23
 7538 07b1 0B030000 		.4byte	.LASF75
 7539 07b5 01       		.byte	0x1
 7540 07b6 B701     		.2byte	0x1b7
ARM GAS  C:\Users\user\AppData\Local\Temp\cc6TIdBD.s 			page 163


 7541 07b8 25000000 		.4byte	0x25
 7542 07bc F3020000 		.4byte	.LLST22
 7543 07c0 24       		.uleb128 0x24
 7544 07c1 5D080000 		.4byte	.LASF76
 7545 07c5 01       		.byte	0x1
 7546 07c6 B801     		.2byte	0x1b8
 7547 07c8 FE000000 		.4byte	0xfe
 7548 07cc 25       		.uleb128 0x25
 7549 07cd 45070000 		.4byte	.LASF77
 7550 07d1 01       		.byte	0x1
 7551 07d2 BA01     		.2byte	0x1ba
 7552 07d4 A5030000 		.4byte	0x3a5
 7553 07d8 02       		.uleb128 0x2
 7554 07d9 91       		.byte	0x91
 7555 07da 68       		.sleb128 -24
 7556 07db 25       		.uleb128 0x25
 7557 07dc D1030000 		.4byte	.LASF78
 7558 07e0 01       		.byte	0x1
 7559 07e1 BD01     		.2byte	0x1bd
 7560 07e3 A5030000 		.4byte	0x3a5
 7561 07e7 02       		.uleb128 0x2
 7562 07e8 91       		.byte	0x91
 7563 07e9 60       		.sleb128 -32
 7564 07ea 25       		.uleb128 0x25
 7565 07eb 51050000 		.4byte	.LASF79
 7566 07ef 01       		.byte	0x1
 7567 07f0 C001     		.2byte	0x1c0
 7568 07f2 A5030000 		.4byte	0x3a5
 7569 07f6 02       		.uleb128 0x2
 7570 07f7 91       		.byte	0x91
 7571 07f8 58       		.sleb128 -40
 7572 07f9 1B       		.uleb128 0x1b
 7573 07fa 34040000 		.4byte	0x434
 7574 07fe 24000000 		.4byte	.LBB216
 7575 0802 30000000 		.4byte	.LBE216-.LBB216
 7576 0806 01       		.byte	0x1
 7577 0807 B801     		.2byte	0x1b8
 7578 0809 17080000 		.4byte	0x817
 7579 080d 1C       		.uleb128 0x1c
 7580 080e 44040000 		.4byte	0x444
 7581 0812 06030000 		.4byte	.LLST23
 7582 0816 00       		.byte	0
 7583 0817 1B       		.uleb128 0x1b
 7584 0818 34040000 		.4byte	0x434
 7585 081c 70000000 		.4byte	.LBB218
 7586 0820 2E000000 		.4byte	.LBE218-.LBB218
 7587 0824 01       		.byte	0x1
 7588 0825 BE01     		.2byte	0x1be
 7589 0827 35080000 		.4byte	0x835
 7590 082b 1C       		.uleb128 0x1c
 7591 082c 44040000 		.4byte	0x444
 7592 0830 24030000 		.4byte	.LLST24
 7593 0834 00       		.byte	0
 7594 0835 1B       		.uleb128 0x1b
 7595 0836 34040000 		.4byte	0x434
 7596 083a AC000000 		.4byte	.LBB220
 7597 083e 2E000000 		.4byte	.LBE220-.LBB220
ARM GAS  C:\Users\user\AppData\Local\Temp\cc6TIdBD.s 			page 164


 7598 0842 01       		.byte	0x1
 7599 0843 BF01     		.2byte	0x1bf
 7600 0845 53080000 		.4byte	0x853
 7601 0849 1C       		.uleb128 0x1c
 7602 084a 44040000 		.4byte	0x444
 7603 084e 42030000 		.4byte	.LLST25
 7604 0852 00       		.byte	0
 7605 0853 1B       		.uleb128 0x1b
 7606 0854 00040000 		.4byte	0x400
 7607 0858 E8000000 		.4byte	.LBB222
 7608 085c 0E000000 		.4byte	.LBE222-.LBB222
 7609 0860 01       		.byte	0x1
 7610 0861 C301     		.2byte	0x1c3
 7611 0863 71080000 		.4byte	0x871
 7612 0867 1C       		.uleb128 0x1c
 7613 0868 10040000 		.4byte	0x410
 7614 086c 60030000 		.4byte	.LLST26
 7615 0870 00       		.byte	0
 7616 0871 1B       		.uleb128 0x1b
 7617 0872 00040000 		.4byte	0x400
 7618 0876 02010000 		.4byte	.LBB224
 7619 087a 0E000000 		.4byte	.LBE224-.LBB224
 7620 087e 01       		.byte	0x1
 7621 087f C401     		.2byte	0x1c4
 7622 0881 8F080000 		.4byte	0x88f
 7623 0885 1C       		.uleb128 0x1c
 7624 0886 10040000 		.4byte	0x410
 7625 088a 74030000 		.4byte	.LLST27
 7626 088e 00       		.byte	0
 7627 088f 26       		.uleb128 0x26
 7628 0890 14000000 		.4byte	.LVL82
 7629 0894 04060000 		.4byte	0x604
 7630 0898 B3080000 		.4byte	0x8b3
 7631 089c 1F       		.uleb128 0x1f
 7632 089d 01       		.uleb128 0x1
 7633 089e 50       		.byte	0x50
 7634 089f 02       		.uleb128 0x2
 7635 08a0 74       		.byte	0x74
 7636 08a1 00       		.sleb128 0
 7637 08a2 1F       		.uleb128 0x1f
 7638 08a3 01       		.uleb128 0x1
 7639 08a4 51       		.byte	0x51
 7640 08a5 03       		.uleb128 0x3
 7641 08a6 74       		.byte	0x74
 7642 08a7 8801     		.sleb128 136
 7643 08a9 1F       		.uleb128 0x1f
 7644 08aa 01       		.uleb128 0x1
 7645 08ab 52       		.byte	0x52
 7646 08ac 05       		.uleb128 0x5
 7647 08ad F3       		.byte	0xf3
 7648 08ae 03       		.uleb128 0x3
 7649 08af F5       		.byte	0xf5
 7650 08b0 02       		.uleb128 0x2
 7651 08b1 25       		.uleb128 0x25
 7652 08b2 00       		.byte	0
 7653 08b3 26       		.uleb128 0x26
 7654 08b4 64000000 		.4byte	.LVL91
ARM GAS  C:\Users\user\AppData\Local\Temp\cc6TIdBD.s 			page 165


 7655 08b8 6D300000 		.4byte	0x306d
 7656 08bc D9080000 		.4byte	0x8d9
 7657 08c0 1F       		.uleb128 0x1f
 7658 08c1 01       		.uleb128 0x1
 7659 08c2 50       		.byte	0x50
 7660 08c3 03       		.uleb128 0x3
 7661 08c4 74       		.byte	0x74
 7662 08c5 D001     		.sleb128 208
 7663 08c7 1F       		.uleb128 0x1f
 7664 08c8 01       		.uleb128 0x1
 7665 08c9 52       		.byte	0x52
 7666 08ca 01       		.uleb128 0x1
 7667 08cb 30       		.byte	0x30
 7668 08cc 1F       		.uleb128 0x1f
 7669 08cd 01       		.uleb128 0x1
 7670 08ce 53       		.byte	0x53
 7671 08cf 02       		.uleb128 0x2
 7672 08d0 91       		.byte	0x91
 7673 08d1 68       		.sleb128 -24
 7674 08d2 1F       		.uleb128 0x1f
 7675 08d3 02       		.uleb128 0x2
 7676 08d4 7D       		.byte	0x7d
 7677 08d5 00       		.sleb128 0
 7678 08d6 01       		.uleb128 0x1
 7679 08d7 32       		.byte	0x32
 7680 08d8 00       		.byte	0
 7681 08d9 1E       		.uleb128 0x1e
 7682 08da E8000000 		.4byte	.LVL106
 7683 08de 79300000 		.4byte	0x3079
 7684 08e2 1F       		.uleb128 0x1f
 7685 08e3 01       		.uleb128 0x1
 7686 08e4 50       		.byte	0x50
 7687 08e5 02       		.uleb128 0x2
 7688 08e6 91       		.byte	0x91
 7689 08e7 60       		.sleb128 -32
 7690 08e8 1F       		.uleb128 0x1f
 7691 08e9 01       		.uleb128 0x1
 7692 08ea 51       		.byte	0x51
 7693 08eb 02       		.uleb128 0x2
 7694 08ec 91       		.byte	0x91
 7695 08ed 68       		.sleb128 -24
 7696 08ee 1F       		.uleb128 0x1f
 7697 08ef 01       		.uleb128 0x1
 7698 08f0 52       		.byte	0x52
 7699 08f1 02       		.uleb128 0x2
 7700 08f2 91       		.byte	0x91
 7701 08f3 58       		.sleb128 -40
 7702 08f4 1F       		.uleb128 0x1f
 7703 08f5 01       		.uleb128 0x1
 7704 08f6 53       		.byte	0x53
 7705 08f7 01       		.uleb128 0x1
 7706 08f8 32       		.byte	0x32
 7707 08f9 00       		.byte	0
 7708 08fa 00       		.byte	0
 7709 08fb 21       		.uleb128 0x21
 7710 08fc A2010000 		.4byte	.LASF81
 7711 0900 01       		.byte	0x1
ARM GAS  C:\Users\user\AppData\Local\Temp\cc6TIdBD.s 			page 166


 7712 0901 6B01     		.2byte	0x16b
 7713 0903 00000000 		.4byte	.LFB139
 7714 0907 94010000 		.4byte	.LFE139-.LFB139
 7715 090b 01       		.uleb128 0x1
 7716 090c 9C       		.byte	0x9c
 7717 090d EC0A0000 		.4byte	0xaec
 7718 0911 17       		.uleb128 0x17
 7719 0912 6C7000   		.ascii	"lp\000"
 7720 0915 01       		.byte	0x1
 7721 0916 6B01     		.2byte	0x16b
 7722 0918 FE050000 		.4byte	0x5fe
 7723 091c 88030000 		.4byte	.LLST28
 7724 0920 17       		.uleb128 0x17
 7725 0921 7800     		.ascii	"x\000"
 7726 0923 01       		.byte	0x1
 7727 0924 6B01     		.2byte	0x16b
 7728 0926 53070000 		.4byte	0x753
 7729 092a B4030000 		.4byte	.LLST29
 7730 092e 17       		.uleb128 0x17
 7731 092f 7500     		.ascii	"u\000"
 7732 0931 01       		.byte	0x1
 7733 0932 6B01     		.2byte	0x16b
 7734 0934 25000000 		.4byte	0x25
 7735 0938 E0030000 		.4byte	.LLST30
 7736 093c 17       		.uleb128 0x17
 7737 093d 7A00     		.ascii	"z\000"
 7738 093f 01       		.byte	0x1
 7739 0940 6B01     		.2byte	0x16b
 7740 0942 21050000 		.4byte	0x521
 7741 0946 0E040000 		.4byte	.LLST31
 7742 094a 18       		.uleb128 0x18
 7743 094b 717300   		.ascii	"qs\000"
 7744 094e 01       		.byte	0x1
 7745 094f 6D01     		.2byte	0x16d
 7746 0951 25000000 		.4byte	0x25
 7747 0955 3A040000 		.4byte	.LLST32
 7748 0959 19       		.uleb128 0x19
 7749 095a 787100   		.ascii	"xq\000"
 7750 095d 01       		.byte	0x1
 7751 095e 6E01     		.2byte	0x16e
 7752 0960 A5030000 		.4byte	0x3a5
 7753 0964 02       		.uleb128 0x2
 7754 0965 91       		.byte	0x91
 7755 0966 58       		.sleb128 -40
 7756 0967 19       		.uleb128 0x19
 7757 0968 42757100 		.ascii	"Buq\000"
 7758 096c 01       		.byte	0x1
 7759 096d 6E01     		.2byte	0x16e
 7760 096f A5030000 		.4byte	0x3a5
 7761 0973 02       		.uleb128 0x2
 7762 0974 91       		.byte	0x91
 7763 0975 50       		.sleb128 -48
 7764 0976 19       		.uleb128 0x19
 7765 0977 646F7400 		.ascii	"dot\000"
 7766 097b 01       		.byte	0x1
 7767 097c 6F01     		.2byte	0x16f
 7768 097e 0A010000 		.4byte	0x10a
ARM GAS  C:\Users\user\AppData\Local\Temp\cc6TIdBD.s 			page 167


 7769 0982 02       		.uleb128 0x2
 7770 0983 91       		.byte	0x91
 7771 0984 48       		.sleb128 -56
 7772 0985 1A       		.uleb128 0x1a
 7773 0986 757100   		.ascii	"uq\000"
 7774 0989 01       		.byte	0x1
 7775 098a 7301     		.2byte	0x173
 7776 098c FE000000 		.4byte	0xfe
 7777 0990 18       		.uleb128 0x18
 7778 0991 41783000 		.ascii	"Ax0\000"
 7779 0995 01       		.byte	0x1
 7780 0996 7B01     		.2byte	0x17b
 7781 0998 FE000000 		.4byte	0xfe
 7782 099c 4D040000 		.4byte	.LLST33
 7783 09a0 18       		.uleb128 0x18
 7784 09a1 41783100 		.ascii	"Ax1\000"
 7785 09a5 01       		.byte	0x1
 7786 09a6 8001     		.2byte	0x180
 7787 09a8 FE000000 		.4byte	0xfe
 7788 09ac 60040000 		.4byte	.LLST34
 7789 09b0 1B       		.uleb128 0x1b
 7790 09b1 34040000 		.4byte	0x434
 7791 09b5 1C000000 		.4byte	.LBB226
 7792 09b9 2E000000 		.4byte	.LBE226-.LBB226
 7793 09bd 01       		.byte	0x1
 7794 09be 7101     		.2byte	0x171
 7795 09c0 CE090000 		.4byte	0x9ce
 7796 09c4 1C       		.uleb128 0x1c
 7797 09c5 44040000 		.4byte	0x444
 7798 09c9 73040000 		.4byte	.LLST35
 7799 09cd 00       		.byte	0
 7800 09ce 1B       		.uleb128 0x1b
 7801 09cf 34040000 		.4byte	0x434
 7802 09d3 56000000 		.4byte	.LBB228
 7803 09d7 2E000000 		.4byte	.LBE228-.LBB228
 7804 09db 01       		.byte	0x1
 7805 09dc 7201     		.2byte	0x172
 7806 09de EC090000 		.4byte	0x9ec
 7807 09e2 1C       		.uleb128 0x1c
 7808 09e3 44040000 		.4byte	0x444
 7809 09e7 91040000 		.4byte	.LLST36
 7810 09eb 00       		.byte	0
 7811 09ec 1B       		.uleb128 0x1b
 7812 09ed 34040000 		.4byte	0x434
 7813 09f1 90000000 		.4byte	.LBB230
 7814 09f5 30000000 		.4byte	.LBE230-.LBB230
 7815 09f9 01       		.byte	0x1
 7816 09fa 7301     		.2byte	0x173
 7817 09fc 0A0A0000 		.4byte	0xa0a
 7818 0a00 1C       		.uleb128 0x1c
 7819 0a01 44040000 		.4byte	0x444
 7820 0a05 AF040000 		.4byte	.LLST37
 7821 0a09 00       		.byte	0
 7822 0a0a 1B       		.uleb128 0x1b
 7823 0a0b 1A040000 		.4byte	0x41a
 7824 0a0f F6000000 		.4byte	.LBB232
 7825 0a13 22000000 		.4byte	.LBE232-.LBB232
ARM GAS  C:\Users\user\AppData\Local\Temp\cc6TIdBD.s 			page 168


 7826 0a17 01       		.byte	0x1
 7827 0a18 7C01     		.2byte	0x17c
 7828 0a1a 280A0000 		.4byte	0xa28
 7829 0a1e 1C       		.uleb128 0x1c
 7830 0a1f 2A040000 		.4byte	0x42a
 7831 0a23 CD040000 		.4byte	.LLST38
 7832 0a27 00       		.byte	0
 7833 0a28 1B       		.uleb128 0x1b
 7834 0a29 00040000 		.4byte	0x400
 7835 0a2d 18010000 		.4byte	.LBB234
 7836 0a31 0C000000 		.4byte	.LBE234-.LBB234
 7837 0a35 01       		.byte	0x1
 7838 0a36 7C01     		.2byte	0x17c
 7839 0a38 420A0000 		.4byte	0xa42
 7840 0a3c 1D       		.uleb128 0x1d
 7841 0a3d 10040000 		.4byte	0x410
 7842 0a41 00       		.byte	0
 7843 0a42 1B       		.uleb128 0x1b
 7844 0a43 1A040000 		.4byte	0x41a
 7845 0a47 50010000 		.4byte	.LBB236
 7846 0a4b 22000000 		.4byte	.LBE236-.LBB236
 7847 0a4f 01       		.byte	0x1
 7848 0a50 8101     		.2byte	0x181
 7849 0a52 600A0000 		.4byte	0xa60
 7850 0a56 1C       		.uleb128 0x1c
 7851 0a57 2A040000 		.4byte	0x42a
 7852 0a5b E5040000 		.4byte	.LLST39
 7853 0a5f 00       		.byte	0
 7854 0a60 1B       		.uleb128 0x1b
 7855 0a61 00040000 		.4byte	0x400
 7856 0a65 72010000 		.4byte	.LBB238
 7857 0a69 0C000000 		.4byte	.LBE238-.LBB238
 7858 0a6d 01       		.byte	0x1
 7859 0a6e 8101     		.2byte	0x181
 7860 0a70 7A0A0000 		.4byte	0xa7a
 7861 0a74 1D       		.uleb128 0x1d
 7862 0a75 10040000 		.4byte	0x410
 7863 0a79 00       		.byte	0
 7864 0a7a 26       		.uleb128 0x26
 7865 0a7b D0000000 		.4byte	.LVL140
 7866 0a7f 6D300000 		.4byte	0x306d
 7867 0a83 A10A0000 		.4byte	0xaa1
 7868 0a87 1F       		.uleb128 0x1f
 7869 0a88 01       		.uleb128 0x1
 7870 0a89 50       		.byte	0x50
 7871 0a8a 03       		.uleb128 0x3
 7872 0a8b 76       		.byte	0x76
 7873 0a8c B801     		.sleb128 184
 7874 0a8e 1F       		.uleb128 0x1f
 7875 0a8f 01       		.uleb128 0x1
 7876 0a90 52       		.byte	0x52
 7877 0a91 01       		.uleb128 0x1
 7878 0a92 30       		.byte	0x30
 7879 0a93 1F       		.uleb128 0x1f
 7880 0a94 01       		.uleb128 0x1
 7881 0a95 53       		.byte	0x53
 7882 0a96 02       		.uleb128 0x2
ARM GAS  C:\Users\user\AppData\Local\Temp\cc6TIdBD.s 			page 169


 7883 0a97 91       		.byte	0x91
 7884 0a98 50       		.sleb128 -48
 7885 0a99 1F       		.uleb128 0x1f
 7886 0a9a 02       		.uleb128 0x2
 7887 0a9b 7D       		.byte	0x7d
 7888 0a9c 00       		.sleb128 0
 7889 0a9d 02       		.uleb128 0x2
 7890 0a9e 77       		.byte	0x77
 7891 0a9f 00       		.sleb128 0
 7892 0aa0 00       		.byte	0
 7893 0aa1 26       		.uleb128 0x26
 7894 0aa2 DE000000 		.4byte	.LVL141
 7895 0aa6 61300000 		.4byte	0x3061
 7896 0aaa C80A0000 		.4byte	0xac8
 7897 0aae 1F       		.uleb128 0x1f
 7898 0aaf 01       		.uleb128 0x1
 7899 0ab0 50       		.byte	0x50
 7900 0ab1 03       		.uleb128 0x3
 7901 0ab2 76       		.byte	0x76
 7902 0ab3 A801     		.sleb128 168
 7903 0ab5 1F       		.uleb128 0x1f
 7904 0ab6 01       		.uleb128 0x1
 7905 0ab7 51       		.byte	0x51
 7906 0ab8 02       		.uleb128 0x2
 7907 0ab9 91       		.byte	0x91
 7908 0aba 58       		.sleb128 -40
 7909 0abb 1F       		.uleb128 0x1f
 7910 0abc 01       		.uleb128 0x1
 7911 0abd 52       		.byte	0x52
 7912 0abe 02       		.uleb128 0x2
 7913 0abf 77       		.byte	0x77
 7914 0ac0 00       		.sleb128 0
 7915 0ac1 1F       		.uleb128 0x1f
 7916 0ac2 01       		.uleb128 0x1
 7917 0ac3 53       		.byte	0x53
 7918 0ac4 02       		.uleb128 0x2
 7919 0ac5 91       		.byte	0x91
 7920 0ac6 48       		.sleb128 -56
 7921 0ac7 00       		.byte	0
 7922 0ac8 1E       		.uleb128 0x1e
 7923 0ac9 3C010000 		.4byte	.LVL149
 7924 0acd 61300000 		.4byte	0x3061
 7925 0ad1 1F       		.uleb128 0x1f
 7926 0ad2 01       		.uleb128 0x1
 7927 0ad3 50       		.byte	0x50
 7928 0ad4 03       		.uleb128 0x3
 7929 0ad5 76       		.byte	0x76
 7930 0ad6 B001     		.sleb128 176
 7931 0ad8 1F       		.uleb128 0x1f
 7932 0ad9 01       		.uleb128 0x1
 7933 0ada 51       		.byte	0x51
 7934 0adb 02       		.uleb128 0x2
 7935 0adc 91       		.byte	0x91
 7936 0add 58       		.sleb128 -40
 7937 0ade 1F       		.uleb128 0x1f
 7938 0adf 01       		.uleb128 0x1
 7939 0ae0 52       		.byte	0x52
ARM GAS  C:\Users\user\AppData\Local\Temp\cc6TIdBD.s 			page 170


 7940 0ae1 02       		.uleb128 0x2
 7941 0ae2 77       		.byte	0x77
 7942 0ae3 00       		.sleb128 0
 7943 0ae4 1F       		.uleb128 0x1f
 7944 0ae5 01       		.uleb128 0x1
 7945 0ae6 53       		.byte	0x53
 7946 0ae7 02       		.uleb128 0x2
 7947 0ae8 91       		.byte	0x91
 7948 0ae9 48       		.sleb128 -56
 7949 0aea 00       		.byte	0
 7950 0aeb 00       		.byte	0
 7951 0aec 21       		.uleb128 0x21
 7952 0aed DD030000 		.4byte	.LASF82
 7953 0af1 01       		.byte	0x1
 7954 0af2 9801     		.2byte	0x198
 7955 0af4 00000000 		.4byte	.LFB141
 7956 0af8 38010000 		.4byte	.LFE141-.LFB141
 7957 0afc 01       		.uleb128 0x1
 7958 0afd 9C       		.byte	0x9c
 7959 0afe D10C0000 		.4byte	0xcd1
 7960 0b02 17       		.uleb128 0x17
 7961 0b03 6C7000   		.ascii	"lp\000"
 7962 0b06 01       		.byte	0x1
 7963 0b07 9801     		.2byte	0x198
 7964 0b09 FE050000 		.4byte	0x5fe
 7965 0b0d FD040000 		.4byte	.LLST40
 7966 0b11 17       		.uleb128 0x17
 7967 0b12 7900     		.ascii	"y\000"
 7968 0b14 01       		.byte	0x1
 7969 0b15 9801     		.2byte	0x198
 7970 0b17 25000000 		.4byte	0x25
 7971 0b1b 29050000 		.4byte	.LLST41
 7972 0b1f 22       		.uleb128 0x22
 7973 0b20 4F070000 		.4byte	.LASF74
 7974 0b24 01       		.byte	0x1
 7975 0b25 9801     		.2byte	0x198
 7976 0b27 25000000 		.4byte	0x25
 7977 0b2b 57050000 		.4byte	.LLST42
 7978 0b2f 17       		.uleb128 0x17
 7979 0b30 755F6B00 		.ascii	"u_k\000"
 7980 0b34 01       		.byte	0x1
 7981 0b35 9801     		.2byte	0x198
 7982 0b37 25000000 		.4byte	0x25
 7983 0b3b 7A050000 		.4byte	.LLST43
 7984 0b3f 18       		.uleb128 0x18
 7985 0b40 717300   		.ascii	"qs\000"
 7986 0b43 01       		.byte	0x1
 7987 0b44 9A01     		.2byte	0x19a
 7988 0b46 25000000 		.4byte	0x25
 7989 0b4a A8050000 		.4byte	.LLST44
 7990 0b4e 23       		.uleb128 0x23
 7991 0b4f 0B030000 		.4byte	.LASF75
 7992 0b53 01       		.byte	0x1
 7993 0b54 9D01     		.2byte	0x19d
 7994 0b56 25000000 		.4byte	0x25
 7995 0b5a BB050000 		.4byte	.LLST45
 7996 0b5e 24       		.uleb128 0x24
ARM GAS  C:\Users\user\AppData\Local\Temp\cc6TIdBD.s 			page 171


 7997 0b5f 5D080000 		.4byte	.LASF76
 7998 0b63 01       		.byte	0x1
 7999 0b64 9E01     		.2byte	0x19e
 8000 0b66 FE000000 		.4byte	0xfe
 8001 0b6a 19       		.uleb128 0x19
 8002 0b6b 7A00     		.ascii	"z\000"
 8003 0b6d 01       		.byte	0x1
 8004 0b6e A101     		.2byte	0x1a1
 8005 0b70 85030000 		.4byte	0x385
 8006 0b74 02       		.uleb128 0x2
 8007 0b75 91       		.byte	0x91
 8008 0b76 60       		.sleb128 -32
 8009 0b77 25       		.uleb128 0x25
 8010 0b78 45070000 		.4byte	.LASF77
 8011 0b7c 01       		.byte	0x1
 8012 0b7d A501     		.2byte	0x1a5
 8013 0b7f A5030000 		.4byte	0x3a5
 8014 0b83 02       		.uleb128 0x2
 8015 0b84 91       		.byte	0x91
 8016 0b85 58       		.sleb128 -40
 8017 0b86 19       		.uleb128 0x19
 8018 0b87 7A7100   		.ascii	"zq\000"
 8019 0b8a 01       		.byte	0x1
 8020 0b8b A901     		.2byte	0x1a9
 8021 0b8d A5030000 		.4byte	0x3a5
 8022 0b91 02       		.uleb128 0x2
 8023 0b92 91       		.byte	0x91
 8024 0b93 50       		.sleb128 -48
 8025 0b94 25       		.uleb128 0x25
 8026 0b95 51050000 		.4byte	.LASF79
 8027 0b99 01       		.byte	0x1
 8028 0b9a AC01     		.2byte	0x1ac
 8029 0b9c A5030000 		.4byte	0x3a5
 8030 0ba0 02       		.uleb128 0x2
 8031 0ba1 91       		.byte	0x91
 8032 0ba2 48       		.sleb128 -56
 8033 0ba3 1B       		.uleb128 0x1b
 8034 0ba4 34040000 		.4byte	0x434
 8035 0ba8 2A000000 		.4byte	.LBB240
 8036 0bac 30000000 		.4byte	.LBE240-.LBB240
 8037 0bb0 01       		.byte	0x1
 8038 0bb1 9E01     		.2byte	0x19e
 8039 0bb3 C10B0000 		.4byte	0xbc1
 8040 0bb7 1C       		.uleb128 0x1c
 8041 0bb8 44040000 		.4byte	0x444
 8042 0bbc CE050000 		.4byte	.LLST46
 8043 0bc0 00       		.byte	0
 8044 0bc1 1B       		.uleb128 0x1b
 8045 0bc2 34040000 		.4byte	0x434
 8046 0bc6 82000000 		.4byte	.LBB242
 8047 0bca 2E000000 		.4byte	.LBE242-.LBB242
 8048 0bce 01       		.byte	0x1
 8049 0bcf AA01     		.2byte	0x1aa
 8050 0bd1 DF0B0000 		.4byte	0xbdf
 8051 0bd5 1C       		.uleb128 0x1c
 8052 0bd6 44040000 		.4byte	0x444
 8053 0bda 02060000 		.4byte	.LLST47
ARM GAS  C:\Users\user\AppData\Local\Temp\cc6TIdBD.s 			page 172


 8054 0bde 00       		.byte	0
 8055 0bdf 1B       		.uleb128 0x1b
 8056 0be0 34040000 		.4byte	0x434
 8057 0be4 BC000000 		.4byte	.LBB244
 8058 0be8 2E000000 		.4byte	.LBE244-.LBB244
 8059 0bec 01       		.byte	0x1
 8060 0bed AB01     		.2byte	0x1ab
 8061 0bef FD0B0000 		.4byte	0xbfd
 8062 0bf3 1C       		.uleb128 0x1c
 8063 0bf4 44040000 		.4byte	0x444
 8064 0bf8 20060000 		.4byte	.LLST48
 8065 0bfc 00       		.byte	0
 8066 0bfd 1B       		.uleb128 0x1b
 8067 0bfe 00040000 		.4byte	0x400
 8068 0c02 F8000000 		.4byte	.LBB246
 8069 0c06 0E000000 		.4byte	.LBE246-.LBB246
 8070 0c0a 01       		.byte	0x1
 8071 0c0b AF01     		.2byte	0x1af
 8072 0c0d 1B0C0000 		.4byte	0xc1b
 8073 0c11 1C       		.uleb128 0x1c
 8074 0c12 10040000 		.4byte	0x410
 8075 0c16 3E060000 		.4byte	.LLST49
 8076 0c1a 00       		.byte	0
 8077 0c1b 1B       		.uleb128 0x1b
 8078 0c1c 00040000 		.4byte	0x400
 8079 0c20 12010000 		.4byte	.LBB248
 8080 0c24 0E000000 		.4byte	.LBE248-.LBB248
 8081 0c28 01       		.byte	0x1
 8082 0c29 B001     		.2byte	0x1b0
 8083 0c2b 390C0000 		.4byte	0xc39
 8084 0c2f 1C       		.uleb128 0x1c
 8085 0c30 10040000 		.4byte	0x410
 8086 0c34 52060000 		.4byte	.LLST50
 8087 0c38 00       		.byte	0
 8088 0c39 26       		.uleb128 0x26
 8089 0c3a 1A000000 		.4byte	.LVL161
 8090 0c3e 04060000 		.4byte	0x604
 8091 0c42 5C0C0000 		.4byte	0xc5c
 8092 0c46 1F       		.uleb128 0x1f
 8093 0c47 01       		.uleb128 0x1
 8094 0c48 50       		.byte	0x50
 8095 0c49 02       		.uleb128 0x2
 8096 0c4a 74       		.byte	0x74
 8097 0c4b 00       		.sleb128 0
 8098 0c4c 1F       		.uleb128 0x1f
 8099 0c4d 01       		.uleb128 0x1
 8100 0c4e 51       		.byte	0x51
 8101 0c4f 02       		.uleb128 0x2
 8102 0c50 76       		.byte	0x76
 8103 0c51 00       		.sleb128 0
 8104 0c52 1F       		.uleb128 0x1f
 8105 0c53 01       		.uleb128 0x1
 8106 0c54 52       		.byte	0x52
 8107 0c55 05       		.uleb128 0x5
 8108 0c56 F3       		.byte	0xf3
 8109 0c57 03       		.uleb128 0x3
 8110 0c58 F5       		.byte	0xf5
ARM GAS  C:\Users\user\AppData\Local\Temp\cc6TIdBD.s 			page 173


 8111 0c59 02       		.uleb128 0x2
 8112 0c5a 25       		.uleb128 0x25
 8113 0c5b 00       		.byte	0
 8114 0c5c 26       		.uleb128 0x26
 8115 0c5d 66000000 		.4byte	.LVL174
 8116 0c61 FB080000 		.4byte	0x8fb
 8117 0c65 830C0000 		.4byte	0xc83
 8118 0c69 1F       		.uleb128 0x1f
 8119 0c6a 01       		.uleb128 0x1
 8120 0c6b 50       		.byte	0x50
 8121 0c6c 02       		.uleb128 0x2
 8122 0c6d 74       		.byte	0x74
 8123 0c6e 00       		.sleb128 0
 8124 0c6f 1F       		.uleb128 0x1f
 8125 0c70 01       		.uleb128 0x1
 8126 0c71 51       		.byte	0x51
 8127 0c72 02       		.uleb128 0x2
 8128 0c73 76       		.byte	0x76
 8129 0c74 00       		.sleb128 0
 8130 0c75 1F       		.uleb128 0x1f
 8131 0c76 01       		.uleb128 0x1
 8132 0c77 52       		.byte	0x52
 8133 0c78 03       		.uleb128 0x3
 8134 0c79 F5       		.byte	0xf5
 8135 0c7a 07       		.uleb128 0x7
 8136 0c7b 25       		.uleb128 0x25
 8137 0c7c 1F       		.uleb128 0x1f
 8138 0c7d 01       		.uleb128 0x1
 8139 0c7e 53       		.byte	0x53
 8140 0c7f 02       		.uleb128 0x2
 8141 0c80 91       		.byte	0x91
 8142 0c81 60       		.sleb128 -32
 8143 0c82 00       		.byte	0
 8144 0c83 26       		.uleb128 0x26
 8145 0c84 78000000 		.4byte	.LVL175
 8146 0c88 6D300000 		.4byte	0x306d
 8147 0c8c AF0C0000 		.4byte	0xcaf
 8148 0c90 1F       		.uleb128 0x1f
 8149 0c91 01       		.uleb128 0x1
 8150 0c92 50       		.byte	0x50
 8151 0c93 03       		.uleb128 0x3
 8152 0c94 74       		.byte	0x74
 8153 0c95 D001     		.sleb128 208
 8154 0c97 1F       		.uleb128 0x1f
 8155 0c98 01       		.uleb128 0x1
 8156 0c99 51       		.byte	0x51
 8157 0c9a 02       		.uleb128 0x2
 8158 0c9b 78       		.byte	0x78
 8159 0c9c 00       		.sleb128 0
 8160 0c9d 1F       		.uleb128 0x1f
 8161 0c9e 01       		.uleb128 0x1
 8162 0c9f 52       		.byte	0x52
 8163 0ca0 01       		.uleb128 0x1
 8164 0ca1 30       		.byte	0x30
 8165 0ca2 1F       		.uleb128 0x1f
 8166 0ca3 01       		.uleb128 0x1
 8167 0ca4 53       		.byte	0x53
ARM GAS  C:\Users\user\AppData\Local\Temp\cc6TIdBD.s 			page 174


 8168 0ca5 02       		.uleb128 0x2
 8169 0ca6 91       		.byte	0x91
 8170 0ca7 58       		.sleb128 -40
 8171 0ca8 1F       		.uleb128 0x1f
 8172 0ca9 02       		.uleb128 0x2
 8173 0caa 7D       		.byte	0x7d
 8174 0cab 00       		.sleb128 0
 8175 0cac 01       		.uleb128 0x1
 8176 0cad 32       		.byte	0x32
 8177 0cae 00       		.byte	0
 8178 0caf 1E       		.uleb128 0x1e
 8179 0cb0 F8000000 		.4byte	.LVL190
 8180 0cb4 79300000 		.4byte	0x3079
 8181 0cb8 1F       		.uleb128 0x1f
 8182 0cb9 01       		.uleb128 0x1
 8183 0cba 50       		.byte	0x50
 8184 0cbb 02       		.uleb128 0x2
 8185 0cbc 91       		.byte	0x91
 8186 0cbd 50       		.sleb128 -48
 8187 0cbe 1F       		.uleb128 0x1f
 8188 0cbf 01       		.uleb128 0x1
 8189 0cc0 51       		.byte	0x51
 8190 0cc1 02       		.uleb128 0x2
 8191 0cc2 91       		.byte	0x91
 8192 0cc3 58       		.sleb128 -40
 8193 0cc4 1F       		.uleb128 0x1f
 8194 0cc5 01       		.uleb128 0x1
 8195 0cc6 52       		.byte	0x52
 8196 0cc7 02       		.uleb128 0x2
 8197 0cc8 91       		.byte	0x91
 8198 0cc9 48       		.sleb128 -56
 8199 0cca 1F       		.uleb128 0x1f
 8200 0ccb 01       		.uleb128 0x1
 8201 0ccc 53       		.byte	0x53
 8202 0ccd 01       		.uleb128 0x1
 8203 0cce 32       		.byte	0x32
 8204 0ccf 00       		.byte	0
 8205 0cd0 00       		.byte	0
 8206 0cd1 27       		.uleb128 0x27
 8207 0cd2 16040000 		.4byte	.LASF83
 8208 0cd6 01       		.byte	0x1
 8209 0cd7 C701     		.2byte	0x1c7
 8210 0cd9 00000000 		.4byte	.LFB143
 8211 0cdd 12000000 		.4byte	.LFE143-.LFB143
 8212 0ce1 01       		.uleb128 0x1
 8213 0ce2 9C       		.byte	0x9c
 8214 0ce3 350D0000 		.4byte	0xd35
 8215 0ce7 17       		.uleb128 0x17
 8216 0ce8 6C7000   		.ascii	"lp\000"
 8217 0ceb 01       		.byte	0x1
 8218 0cec C701     		.2byte	0x1c7
 8219 0cee FE050000 		.4byte	0x5fe
 8220 0cf2 66060000 		.4byte	.LLST51
 8221 0cf6 17       		.uleb128 0x17
 8222 0cf7 755F6B00 		.ascii	"u_k\000"
 8223 0cfb 01       		.byte	0x1
 8224 0cfc C701     		.2byte	0x1c7
ARM GAS  C:\Users\user\AppData\Local\Temp\cc6TIdBD.s 			page 175


 8225 0cfe 25000000 		.4byte	0x25
 8226 0d02 87060000 		.4byte	.LLST52
 8227 0d06 1E       		.uleb128 0x1e
 8228 0d07 10000000 		.4byte	.LVL201
 8229 0d0b FB080000 		.4byte	0x8fb
 8230 0d0f 1F       		.uleb128 0x1f
 8231 0d10 01       		.uleb128 0x1
 8232 0d11 50       		.byte	0x50
 8233 0d12 03       		.uleb128 0x3
 8234 0d13 F3       		.byte	0xf3
 8235 0d14 01       		.uleb128 0x1
 8236 0d15 50       		.byte	0x50
 8237 0d16 1F       		.uleb128 0x1f
 8238 0d17 01       		.uleb128 0x1
 8239 0d18 51       		.byte	0x51
 8240 0d19 06       		.uleb128 0x6
 8241 0d1a F3       		.byte	0xf3
 8242 0d1b 01       		.uleb128 0x1
 8243 0d1c 50       		.byte	0x50
 8244 0d1d 23       		.byte	0x23
 8245 0d1e 8001     		.uleb128 0x80
 8246 0d20 1F       		.uleb128 0x1f
 8247 0d21 01       		.uleb128 0x1
 8248 0d22 52       		.byte	0x52
 8249 0d23 05       		.uleb128 0x5
 8250 0d24 F3       		.byte	0xf3
 8251 0d25 03       		.uleb128 0x3
 8252 0d26 F5       		.byte	0xf5
 8253 0d27 01       		.uleb128 0x1
 8254 0d28 25       		.uleb128 0x25
 8255 0d29 1F       		.uleb128 0x1f
 8256 0d2a 01       		.uleb128 0x1
 8257 0d2b 53       		.byte	0x53
 8258 0d2c 06       		.uleb128 0x6
 8259 0d2d F3       		.byte	0xf3
 8260 0d2e 01       		.uleb128 0x1
 8261 0d2f 50       		.byte	0x50
 8262 0d30 23       		.byte	0x23
 8263 0d31 8801     		.uleb128 0x88
 8264 0d33 00       		.byte	0
 8265 0d34 00       		.byte	0
 8266 0d35 16       		.uleb128 0x16
 8267 0d36 72040000 		.4byte	.LASF84
 8268 0d3a 01       		.byte	0x1
 8269 0d3b 8401     		.2byte	0x184
 8270 0d3d 25000000 		.4byte	0x25
 8271 0d41 00000000 		.4byte	.LFB140
 8272 0d45 38010000 		.4byte	.LFE140-.LFB140
 8273 0d49 01       		.uleb128 0x1
 8274 0d4a 9C       		.byte	0x9c
 8275 0d4b 780E0000 		.4byte	0xe78
 8276 0d4f 17       		.uleb128 0x17
 8277 0d50 6C7000   		.ascii	"lp\000"
 8278 0d53 01       		.byte	0x1
 8279 0d54 8401     		.2byte	0x184
 8280 0d56 FE050000 		.4byte	0x5fe
 8281 0d5a B5060000 		.4byte	.LLST53
ARM GAS  C:\Users\user\AppData\Local\Temp\cc6TIdBD.s 			page 176


 8282 0d5e 18       		.uleb128 0x18
 8283 0d5f 717300   		.ascii	"qs\000"
 8284 0d62 01       		.byte	0x1
 8285 0d63 8601     		.2byte	0x186
 8286 0d65 25000000 		.4byte	0x25
 8287 0d69 E1060000 		.4byte	.LLST54
 8288 0d6d 25       		.uleb128 0x25
 8289 0d6e 51050000 		.4byte	.LASF79
 8290 0d72 01       		.byte	0x1
 8291 0d73 8701     		.2byte	0x187
 8292 0d75 A5030000 		.4byte	0x3a5
 8293 0d79 02       		.uleb128 0x2
 8294 0d7a 91       		.byte	0x91
 8295 0d7b 60       		.sleb128 -32
 8296 0d7c 19       		.uleb128 0x19
 8297 0d7d 646F7400 		.ascii	"dot\000"
 8298 0d81 01       		.byte	0x1
 8299 0d82 8801     		.2byte	0x188
 8300 0d84 0A010000 		.4byte	0x10a
 8301 0d88 02       		.uleb128 0x2
 8302 0d89 91       		.byte	0x91
 8303 0d8a 58       		.sleb128 -40
 8304 0d8b 18       		.uleb128 0x18
 8305 0d8c 6B7800   		.ascii	"kx\000"
 8306 0d8f 01       		.byte	0x1
 8307 0d90 8E01     		.2byte	0x18e
 8308 0d92 FE000000 		.4byte	0xfe
 8309 0d96 F4060000 		.4byte	.LLST55
 8310 0d9a 23       		.uleb128 0x23
 8311 0d9b 9A020000 		.4byte	.LASF85
 8312 0d9f 01       		.byte	0x1
 8313 0da0 9101     		.2byte	0x191
 8314 0da2 25000000 		.4byte	0x25
 8315 0da6 07070000 		.4byte	.LLST56
 8316 0daa 24       		.uleb128 0x24
 8317 0dab C9020000 		.4byte	.LASF86
 8318 0daf 01       		.byte	0x1
 8319 0db0 9301     		.2byte	0x193
 8320 0db2 FE000000 		.4byte	0xfe
 8321 0db6 1B       		.uleb128 0x1b
 8322 0db7 34040000 		.4byte	0x434
 8323 0dbb 16000000 		.4byte	.LBB250
 8324 0dbf 2E000000 		.4byte	.LBE250-.LBB250
 8325 0dc3 01       		.byte	0x1
 8326 0dc4 8A01     		.2byte	0x18a
 8327 0dc6 D40D0000 		.4byte	0xdd4
 8328 0dca 1C       		.uleb128 0x1c
 8329 0dcb 44040000 		.4byte	0x444
 8330 0dcf 1A070000 		.4byte	.LLST57
 8331 0dd3 00       		.byte	0
 8332 0dd4 1B       		.uleb128 0x1b
 8333 0dd5 34040000 		.4byte	0x434
 8334 0dd9 52000000 		.4byte	.LBB252
 8335 0ddd 2E000000 		.4byte	.LBE252-.LBB252
 8336 0de1 01       		.byte	0x1
 8337 0de2 8B01     		.2byte	0x18b
 8338 0de4 F20D0000 		.4byte	0xdf2
ARM GAS  C:\Users\user\AppData\Local\Temp\cc6TIdBD.s 			page 177


 8339 0de8 1C       		.uleb128 0x1c
 8340 0de9 44040000 		.4byte	0x444
 8341 0ded 38070000 		.4byte	.LLST58
 8342 0df1 00       		.byte	0
 8343 0df2 1B       		.uleb128 0x1b
 8344 0df3 34040000 		.4byte	0x434
 8345 0df7 C2000000 		.4byte	.LBB254
 8346 0dfb 2E000000 		.4byte	.LBE254-.LBB254
 8347 0dff 01       		.byte	0x1
 8348 0e00 9301     		.2byte	0x193
 8349 0e02 100E0000 		.4byte	0xe10
 8350 0e06 1C       		.uleb128 0x1c
 8351 0e07 44040000 		.4byte	0x444
 8352 0e0b 56070000 		.4byte	.LLST59
 8353 0e0f 00       		.byte	0
 8354 0e10 1B       		.uleb128 0x1b
 8355 0e11 1A040000 		.4byte	0x41a
 8356 0e15 F8000000 		.4byte	.LBB256
 8357 0e19 22000000 		.4byte	.LBE256-.LBB256
 8358 0e1d 01       		.byte	0x1
 8359 0e1e 9501     		.2byte	0x195
 8360 0e20 2E0E0000 		.4byte	0xe2e
 8361 0e24 1C       		.uleb128 0x1c
 8362 0e25 2A040000 		.4byte	0x42a
 8363 0e29 74070000 		.4byte	.LLST60
 8364 0e2d 00       		.byte	0
 8365 0e2e 1B       		.uleb128 0x1b
 8366 0e2f 00040000 		.4byte	0x400
 8367 0e33 1A010000 		.4byte	.LBB258
 8368 0e37 0C000000 		.4byte	.LBE258-.LBB258
 8369 0e3b 01       		.byte	0x1
 8370 0e3c 9501     		.2byte	0x195
 8371 0e3e 480E0000 		.4byte	0xe48
 8372 0e42 1D       		.uleb128 0x1d
 8373 0e43 10040000 		.4byte	0x410
 8374 0e47 00       		.byte	0
 8375 0e48 26       		.uleb128 0x26
 8376 0e49 90000000 		.4byte	.LVL219
 8377 0e4d 61300000 		.4byte	0x3061
 8378 0e51 6E0E0000 		.4byte	0xe6e
 8379 0e55 1F       		.uleb128 0x1f
 8380 0e56 01       		.uleb128 0x1
 8381 0e57 50       		.byte	0x50
 8382 0e58 03       		.uleb128 0x3
 8383 0e59 74       		.byte	0x74
 8384 0e5a C801     		.sleb128 200
 8385 0e5c 1F       		.uleb128 0x1f
 8386 0e5d 01       		.uleb128 0x1
 8387 0e5e 51       		.byte	0x51
 8388 0e5f 02       		.uleb128 0x2
 8389 0e60 91       		.byte	0x91
 8390 0e61 60       		.sleb128 -32
 8391 0e62 1F       		.uleb128 0x1f
 8392 0e63 01       		.uleb128 0x1
 8393 0e64 52       		.byte	0x52
 8394 0e65 01       		.uleb128 0x1
 8395 0e66 32       		.byte	0x32
ARM GAS  C:\Users\user\AppData\Local\Temp\cc6TIdBD.s 			page 178


 8396 0e67 1F       		.uleb128 0x1f
 8397 0e68 01       		.uleb128 0x1
 8398 0e69 53       		.byte	0x53
 8399 0e6a 02       		.uleb128 0x2
 8400 0e6b 7D       		.byte	0x7d
 8401 0e6c 00       		.sleb128 0
 8402 0e6d 00       		.byte	0
 8403 0e6e 28       		.uleb128 0x28
 8404 0e6f A2000000 		.4byte	.LVL221
 8405 0e73 91050000 		.4byte	0x591
 8406 0e77 00       		.byte	0
 8407 0e78 16       		.uleb128 0x16
 8408 0e79 3C000000 		.4byte	.LASF87
 8409 0e7d 01       		.byte	0x1
 8410 0e7e D301     		.2byte	0x1d3
 8411 0e80 25000000 		.4byte	0x25
 8412 0e84 00000000 		.4byte	.LFB144
 8413 0e88 50010000 		.4byte	.LFE144-.LFB144
 8414 0e8c 01       		.uleb128 0x1
 8415 0e8d 9C       		.byte	0x9c
 8416 0e8e FB0F0000 		.4byte	0xffb
 8417 0e92 17       		.uleb128 0x17
 8418 0e93 6C7000   		.ascii	"lp\000"
 8419 0e96 01       		.byte	0x1
 8420 0e97 D301     		.2byte	0x1d3
 8421 0e99 FE050000 		.4byte	0x5fe
 8422 0e9d 8C070000 		.4byte	.LLST61
 8423 0ea1 17       		.uleb128 0x17
 8424 0ea2 7800     		.ascii	"x\000"
 8425 0ea4 01       		.byte	0x1
 8426 0ea5 D301     		.2byte	0x1d3
 8427 0ea7 53070000 		.4byte	0x753
 8428 0eab B8070000 		.4byte	.LLST62
 8429 0eaf 17       		.uleb128 0x17
 8430 0eb0 7500     		.ascii	"u\000"
 8431 0eb2 01       		.byte	0x1
 8432 0eb3 D301     		.2byte	0x1d3
 8433 0eb5 25000000 		.4byte	0x25
 8434 0eb9 E4070000 		.4byte	.LLST63
 8435 0ebd 18       		.uleb128 0x18
 8436 0ebe 717300   		.ascii	"qs\000"
 8437 0ec1 01       		.byte	0x1
 8438 0ec2 D501     		.2byte	0x1d5
 8439 0ec4 25000000 		.4byte	0x25
 8440 0ec8 12080000 		.4byte	.LLST64
 8441 0ecc 19       		.uleb128 0x19
 8442 0ecd 787100   		.ascii	"xq\000"
 8443 0ed0 01       		.byte	0x1
 8444 0ed1 D601     		.2byte	0x1d6
 8445 0ed3 C5030000 		.4byte	0x3c5
 8446 0ed7 02       		.uleb128 0x2
 8447 0ed8 91       		.byte	0x91
 8448 0ed9 64       		.sleb128 -28
 8449 0eda 19       		.uleb128 0x19
 8450 0edb 646F7400 		.ascii	"dot\000"
 8451 0edf 01       		.byte	0x1
 8452 0ee0 D701     		.2byte	0x1d7
ARM GAS  C:\Users\user\AppData\Local\Temp\cc6TIdBD.s 			page 179


 8453 0ee2 0A010000 		.4byte	0x10a
 8454 0ee6 02       		.uleb128 0x2
 8455 0ee7 91       		.byte	0x91
 8456 0ee8 58       		.sleb128 -40
 8457 0ee9 1A       		.uleb128 0x1a
 8458 0eea 757100   		.ascii	"uq\000"
 8459 0eed 01       		.byte	0x1
 8460 0eee DB01     		.2byte	0x1db
 8461 0ef0 F2000000 		.4byte	0xf2
 8462 0ef4 1A       		.uleb128 0x1a
 8463 0ef5 437800   		.ascii	"Cx\000"
 8464 0ef8 01       		.byte	0x1
 8465 0ef9 DE01     		.2byte	0x1de
 8466 0efb F2000000 		.4byte	0xf2
 8467 0eff 1A       		.uleb128 0x1a
 8468 0f00 447500   		.ascii	"Du\000"
 8469 0f03 01       		.byte	0x1
 8470 0f04 E101     		.2byte	0x1e1
 8471 0f06 F2000000 		.4byte	0xf2
 8472 0f0a 1B       		.uleb128 0x1b
 8473 0f0b 82040000 		.4byte	0x482
 8474 0f0f 1A000000 		.4byte	.LBB260
 8475 0f13 2E000000 		.4byte	.LBE260-.LBB260
 8476 0f17 01       		.byte	0x1
 8477 0f18 D901     		.2byte	0x1d9
 8478 0f1a 280F0000 		.4byte	0xf28
 8479 0f1e 1C       		.uleb128 0x1c
 8480 0f1f 92040000 		.4byte	0x492
 8481 0f23 25080000 		.4byte	.LLST65
 8482 0f27 00       		.byte	0
 8483 0f28 1B       		.uleb128 0x1b
 8484 0f29 82040000 		.4byte	0x482
 8485 0f2d 56000000 		.4byte	.LBB262
 8486 0f31 2E000000 		.4byte	.LBE262-.LBB262
 8487 0f35 01       		.byte	0x1
 8488 0f36 DA01     		.2byte	0x1da
 8489 0f38 460F0000 		.4byte	0xf46
 8490 0f3c 1C       		.uleb128 0x1c
 8491 0f3d 92040000 		.4byte	0x492
 8492 0f41 43080000 		.4byte	.LLST66
 8493 0f45 00       		.byte	0
 8494 0f46 1B       		.uleb128 0x1b
 8495 0f47 82040000 		.4byte	0x482
 8496 0f4b 92000000 		.4byte	.LBB264
 8497 0f4f 2E000000 		.4byte	.LBE264-.LBB264
 8498 0f53 01       		.byte	0x1
 8499 0f54 DB01     		.2byte	0x1db
 8500 0f56 640F0000 		.4byte	0xf64
 8501 0f5a 1C       		.uleb128 0x1c
 8502 0f5b 92040000 		.4byte	0x492
 8503 0f5f 61080000 		.4byte	.LLST67
 8504 0f63 00       		.byte	0
 8505 0f64 1B       		.uleb128 0x1b
 8506 0f65 68040000 		.4byte	0x468
 8507 0f69 D8000000 		.4byte	.LBB266
 8508 0f6d 18000000 		.4byte	.LBE266-.LBB266
 8509 0f71 01       		.byte	0x1
ARM GAS  C:\Users\user\AppData\Local\Temp\cc6TIdBD.s 			page 180


 8510 0f72 DE01     		.2byte	0x1de
 8511 0f74 820F0000 		.4byte	0xf82
 8512 0f78 1C       		.uleb128 0x1c
 8513 0f79 78040000 		.4byte	0x478
 8514 0f7d 95080000 		.4byte	.LLST68
 8515 0f81 00       		.byte	0
 8516 0f82 1B       		.uleb128 0x1b
 8517 0f83 68040000 		.4byte	0x468
 8518 0f87 FA000000 		.4byte	.LBB268
 8519 0f8b 18000000 		.4byte	.LBE268-.LBB268
 8520 0f8f 01       		.byte	0x1
 8521 0f90 E101     		.2byte	0x1e1
 8522 0f92 A00F0000 		.4byte	0xfa0
 8523 0f96 1C       		.uleb128 0x1c
 8524 0f97 78040000 		.4byte	0x478
 8525 0f9b A8080000 		.4byte	.LLST69
 8526 0f9f 00       		.byte	0
 8527 0fa0 1B       		.uleb128 0x1b
 8528 0fa1 68040000 		.4byte	0x468
 8529 0fa5 14010000 		.4byte	.LBB270
 8530 0fa9 18000000 		.4byte	.LBE270-.LBB270
 8531 0fad 01       		.byte	0x1
 8532 0fae E301     		.2byte	0x1e3
 8533 0fb0 BE0F0000 		.4byte	0xfbe
 8534 0fb4 1C       		.uleb128 0x1c
 8535 0fb5 78040000 		.4byte	0x478
 8536 0fb9 03090000 		.4byte	.LLST70
 8537 0fbd 00       		.byte	0
 8538 0fbe 1B       		.uleb128 0x1b
 8539 0fbf 4E040000 		.4byte	0x44e
 8540 0fc3 2C010000 		.4byte	.LBB272
 8541 0fc7 0C000000 		.4byte	.LBE272-.LBB272
 8542 0fcb 01       		.byte	0x1
 8543 0fcc E301     		.2byte	0x1e3
 8544 0fce D80F0000 		.4byte	0xfd8
 8545 0fd2 1D       		.uleb128 0x1d
 8546 0fd3 5E040000 		.4byte	0x45e
 8547 0fd7 00       		.byte	0
 8548 0fd8 1E       		.uleb128 0x1e
 8549 0fd9 CE000000 		.4byte	.LVL266
 8550 0fdd 85300000 		.4byte	0x3085
 8551 0fe1 1F       		.uleb128 0x1f
 8552 0fe2 01       		.uleb128 0x1
 8553 0fe3 50       		.byte	0x50
 8554 0fe4 03       		.uleb128 0x3
 8555 0fe5 75       		.byte	0x75
 8556 0fe6 EC01     		.sleb128 236
 8557 0fe8 1F       		.uleb128 0x1f
 8558 0fe9 01       		.uleb128 0x1
 8559 0fea 51       		.byte	0x51
 8560 0feb 02       		.uleb128 0x2
 8561 0fec 91       		.byte	0x91
 8562 0fed 64       		.sleb128 -28
 8563 0fee 1F       		.uleb128 0x1f
 8564 0fef 01       		.uleb128 0x1
 8565 0ff0 52       		.byte	0x52
 8566 0ff1 01       		.uleb128 0x1
ARM GAS  C:\Users\user\AppData\Local\Temp\cc6TIdBD.s 			page 181


 8567 0ff2 32       		.byte	0x32
 8568 0ff3 1F       		.uleb128 0x1f
 8569 0ff4 01       		.uleb128 0x1
 8570 0ff5 53       		.byte	0x53
 8571 0ff6 02       		.uleb128 0x2
 8572 0ff7 7D       		.byte	0x7d
 8573 0ff8 00       		.sleb128 0
 8574 0ff9 00       		.byte	0
 8575 0ffa 00       		.byte	0
 8576 0ffb 21       		.uleb128 0x21
 8577 0ffc EF070000 		.4byte	.LASF88
 8578 1000 01       		.byte	0x1
 8579 1001 2602     		.2byte	0x226
 8580 1003 00000000 		.4byte	.LFB148
 8581 1007 30010000 		.4byte	.LFE148-.LFB148
 8582 100b 01       		.uleb128 0x1
 8583 100c 9C       		.byte	0x9c
 8584 100d 98110000 		.4byte	0x1198
 8585 1011 17       		.uleb128 0x17
 8586 1012 6C7000   		.ascii	"lp\000"
 8587 1015 01       		.byte	0x1
 8588 1016 2602     		.2byte	0x226
 8589 1018 FE050000 		.4byte	0x5fe
 8590 101c 16090000 		.4byte	.LLST71
 8591 1020 17       		.uleb128 0x17
 8592 1021 7900     		.ascii	"y\000"
 8593 1023 01       		.byte	0x1
 8594 1024 2602     		.2byte	0x226
 8595 1026 25000000 		.4byte	0x25
 8596 102a 42090000 		.4byte	.LLST72
 8597 102e 22       		.uleb128 0x22
 8598 102f 4F070000 		.4byte	.LASF74
 8599 1033 01       		.byte	0x1
 8600 1034 2602     		.2byte	0x226
 8601 1036 25000000 		.4byte	0x25
 8602 103a 70090000 		.4byte	.LLST73
 8603 103e 18       		.uleb128 0x18
 8604 103f 717300   		.ascii	"qs\000"
 8605 1042 01       		.byte	0x1
 8606 1043 2802     		.2byte	0x228
 8607 1045 25000000 		.4byte	0x25
 8608 1049 93090000 		.4byte	.LLST74
 8609 104d 23       		.uleb128 0x23
 8610 104e 0B030000 		.4byte	.LASF75
 8611 1052 01       		.byte	0x1
 8612 1053 2A02     		.2byte	0x22a
 8613 1055 25000000 		.4byte	0x25
 8614 1059 A6090000 		.4byte	.LLST75
 8615 105d 24       		.uleb128 0x24
 8616 105e 5D080000 		.4byte	.LASF76
 8617 1062 01       		.byte	0x1
 8618 1063 2B02     		.2byte	0x22b
 8619 1065 F2000000 		.4byte	0xf2
 8620 1069 25       		.uleb128 0x25
 8621 106a 45070000 		.4byte	.LASF77
 8622 106e 01       		.byte	0x1
 8623 106f 2D02     		.2byte	0x22d
ARM GAS  C:\Users\user\AppData\Local\Temp\cc6TIdBD.s 			page 182


 8624 1071 C5030000 		.4byte	0x3c5
 8625 1075 02       		.uleb128 0x2
 8626 1076 91       		.byte	0x91
 8627 1077 6C       		.sleb128 -20
 8628 1078 25       		.uleb128 0x25
 8629 1079 D1030000 		.4byte	.LASF78
 8630 107d 01       		.byte	0x1
 8631 107e 3002     		.2byte	0x230
 8632 1080 C5030000 		.4byte	0x3c5
 8633 1084 02       		.uleb128 0x2
 8634 1085 91       		.byte	0x91
 8635 1086 68       		.sleb128 -24
 8636 1087 25       		.uleb128 0x25
 8637 1088 51050000 		.4byte	.LASF79
 8638 108c 01       		.byte	0x1
 8639 108d 3302     		.2byte	0x233
 8640 108f C5030000 		.4byte	0x3c5
 8641 1093 02       		.uleb128 0x2
 8642 1094 91       		.byte	0x91
 8643 1095 64       		.sleb128 -28
 8644 1096 1B       		.uleb128 0x1b
 8645 1097 82040000 		.4byte	0x482
 8646 109b 24000000 		.4byte	.LBB274
 8647 109f 2E000000 		.4byte	.LBE274-.LBB274
 8648 10a3 01       		.byte	0x1
 8649 10a4 2B02     		.2byte	0x22b
 8650 10a6 B4100000 		.4byte	0x10b4
 8651 10aa 1C       		.uleb128 0x1c
 8652 10ab 92040000 		.4byte	0x492
 8653 10af B9090000 		.4byte	.LLST76
 8654 10b3 00       		.byte	0
 8655 10b4 1B       		.uleb128 0x1b
 8656 10b5 82040000 		.4byte	0x482
 8657 10b9 6E000000 		.4byte	.LBB276
 8658 10bd 2E000000 		.4byte	.LBE276-.LBB276
 8659 10c1 01       		.byte	0x1
 8660 10c2 3102     		.2byte	0x231
 8661 10c4 D2100000 		.4byte	0x10d2
 8662 10c8 1C       		.uleb128 0x1c
 8663 10c9 92040000 		.4byte	0x492
 8664 10cd D7090000 		.4byte	.LLST77
 8665 10d1 00       		.byte	0
 8666 10d2 1B       		.uleb128 0x1b
 8667 10d3 82040000 		.4byte	0x482
 8668 10d7 AC000000 		.4byte	.LBB278
 8669 10db 2E000000 		.4byte	.LBE278-.LBB278
 8670 10df 01       		.byte	0x1
 8671 10e0 3202     		.2byte	0x232
 8672 10e2 F0100000 		.4byte	0x10f0
 8673 10e6 1C       		.uleb128 0x1c
 8674 10e7 92040000 		.4byte	0x492
 8675 10eb F5090000 		.4byte	.LLST78
 8676 10ef 00       		.byte	0
 8677 10f0 1B       		.uleb128 0x1b
 8678 10f1 4E040000 		.4byte	0x44e
 8679 10f5 EA000000 		.4byte	.LBB280
 8680 10f9 10000000 		.4byte	.LBE280-.LBB280
ARM GAS  C:\Users\user\AppData\Local\Temp\cc6TIdBD.s 			page 183


 8681 10fd 01       		.byte	0x1
 8682 10fe 3602     		.2byte	0x236
 8683 1100 0E110000 		.4byte	0x110e
 8684 1104 1C       		.uleb128 0x1c
 8685 1105 5E040000 		.4byte	0x45e
 8686 1109 130A0000 		.4byte	.LLST79
 8687 110d 00       		.byte	0
 8688 110e 1B       		.uleb128 0x1b
 8689 110f 4E040000 		.4byte	0x44e
 8690 1113 06010000 		.4byte	.LBB282
 8691 1117 10000000 		.4byte	.LBE282-.LBB282
 8692 111b 01       		.byte	0x1
 8693 111c 3702     		.2byte	0x237
 8694 111e 2C110000 		.4byte	0x112c
 8695 1122 1C       		.uleb128 0x1c
 8696 1123 5E040000 		.4byte	0x45e
 8697 1127 270A0000 		.4byte	.LLST80
 8698 112b 00       		.byte	0
 8699 112c 26       		.uleb128 0x26
 8700 112d 14000000 		.4byte	.LVL284
 8701 1131 780E0000 		.4byte	0xe78
 8702 1135 50110000 		.4byte	0x1150
 8703 1139 1F       		.uleb128 0x1f
 8704 113a 01       		.uleb128 0x1
 8705 113b 50       		.byte	0x50
 8706 113c 02       		.uleb128 0x2
 8707 113d 74       		.byte	0x74
 8708 113e 00       		.sleb128 0
 8709 113f 1F       		.uleb128 0x1f
 8710 1140 01       		.uleb128 0x1
 8711 1141 51       		.byte	0x51
 8712 1142 03       		.uleb128 0x3
 8713 1143 74       		.byte	0x74
 8714 1144 8801     		.sleb128 136
 8715 1146 1F       		.uleb128 0x1f
 8716 1147 01       		.uleb128 0x1
 8717 1148 52       		.byte	0x52
 8718 1149 05       		.uleb128 0x5
 8719 114a F3       		.byte	0xf3
 8720 114b 03       		.uleb128 0x3
 8721 114c F5       		.byte	0xf5
 8722 114d 02       		.uleb128 0x2
 8723 114e 25       		.uleb128 0x25
 8724 114f 00       		.byte	0
 8725 1150 26       		.uleb128 0x26
 8726 1151 62000000 		.4byte	.LVL293
 8727 1155 91300000 		.4byte	0x3091
 8728 1159 76110000 		.4byte	0x1176
 8729 115d 1F       		.uleb128 0x1f
 8730 115e 01       		.uleb128 0x1
 8731 115f 50       		.byte	0x50
 8732 1160 03       		.uleb128 0x3
 8733 1161 74       		.byte	0x74
 8734 1162 F401     		.sleb128 244
 8735 1164 1F       		.uleb128 0x1f
 8736 1165 01       		.uleb128 0x1
 8737 1166 52       		.byte	0x52
ARM GAS  C:\Users\user\AppData\Local\Temp\cc6TIdBD.s 			page 184


 8738 1167 01       		.uleb128 0x1
 8739 1168 30       		.byte	0x30
 8740 1169 1F       		.uleb128 0x1f
 8741 116a 01       		.uleb128 0x1
 8742 116b 53       		.byte	0x53
 8743 116c 02       		.uleb128 0x2
 8744 116d 91       		.byte	0x91
 8745 116e 6C       		.sleb128 -20
 8746 116f 1F       		.uleb128 0x1f
 8747 1170 02       		.uleb128 0x2
 8748 1171 7D       		.byte	0x7d
 8749 1172 00       		.sleb128 0
 8750 1173 01       		.uleb128 0x1
 8751 1174 32       		.byte	0x32
 8752 1175 00       		.byte	0
 8753 1176 1E       		.uleb128 0x1e
 8754 1177 EA000000 		.4byte	.LVL308
 8755 117b 9D300000 		.4byte	0x309d
 8756 117f 1F       		.uleb128 0x1f
 8757 1180 01       		.uleb128 0x1
 8758 1181 50       		.byte	0x50
 8759 1182 02       		.uleb128 0x2
 8760 1183 91       		.byte	0x91
 8761 1184 68       		.sleb128 -24
 8762 1185 1F       		.uleb128 0x1f
 8763 1186 01       		.uleb128 0x1
 8764 1187 51       		.byte	0x51
 8765 1188 02       		.uleb128 0x2
 8766 1189 91       		.byte	0x91
 8767 118a 6C       		.sleb128 -20
 8768 118b 1F       		.uleb128 0x1f
 8769 118c 01       		.uleb128 0x1
 8770 118d 52       		.byte	0x52
 8771 118e 02       		.uleb128 0x2
 8772 118f 91       		.byte	0x91
 8773 1190 64       		.sleb128 -28
 8774 1191 1F       		.uleb128 0x1f
 8775 1192 01       		.uleb128 0x1
 8776 1193 53       		.byte	0x53
 8777 1194 01       		.uleb128 0x1
 8778 1195 32       		.byte	0x32
 8779 1196 00       		.byte	0
 8780 1197 00       		.byte	0
 8781 1198 21       		.uleb128 0x21
 8782 1199 DB070000 		.4byte	.LASF89
 8783 119d 01       		.byte	0x1
 8784 119e E601     		.2byte	0x1e6
 8785 11a0 00000000 		.4byte	.LFB145
 8786 11a4 A8010000 		.4byte	.LFE145-.LFB145
 8787 11a8 01       		.uleb128 0x1
 8788 11a9 9C       		.byte	0x9c
 8789 11aa BD130000 		.4byte	0x13bd
 8790 11ae 17       		.uleb128 0x17
 8791 11af 6C7000   		.ascii	"lp\000"
 8792 11b2 01       		.byte	0x1
 8793 11b3 E601     		.2byte	0x1e6
 8794 11b5 FE050000 		.4byte	0x5fe
ARM GAS  C:\Users\user\AppData\Local\Temp\cc6TIdBD.s 			page 185


 8795 11b9 3B0A0000 		.4byte	.LLST81
 8796 11bd 17       		.uleb128 0x17
 8797 11be 7800     		.ascii	"x\000"
 8798 11c0 01       		.byte	0x1
 8799 11c1 E601     		.2byte	0x1e6
 8800 11c3 53070000 		.4byte	0x753
 8801 11c7 670A0000 		.4byte	.LLST82
 8802 11cb 17       		.uleb128 0x17
 8803 11cc 7500     		.ascii	"u\000"
 8804 11ce 01       		.byte	0x1
 8805 11cf E601     		.2byte	0x1e6
 8806 11d1 25000000 		.4byte	0x25
 8807 11d5 930A0000 		.4byte	.LLST83
 8808 11d9 17       		.uleb128 0x17
 8809 11da 7A00     		.ascii	"z\000"
 8810 11dc 01       		.byte	0x1
 8811 11dd E601     		.2byte	0x1e6
 8812 11df 21050000 		.4byte	0x521
 8813 11e3 C10A0000 		.4byte	.LLST84
 8814 11e7 18       		.uleb128 0x18
 8815 11e8 717300   		.ascii	"qs\000"
 8816 11eb 01       		.byte	0x1
 8817 11ec E801     		.2byte	0x1e8
 8818 11ee 25000000 		.4byte	0x25
 8819 11f2 ED0A0000 		.4byte	.LLST85
 8820 11f6 19       		.uleb128 0x19
 8821 11f7 787100   		.ascii	"xq\000"
 8822 11fa 01       		.byte	0x1
 8823 11fb E901     		.2byte	0x1e9
 8824 11fd C5030000 		.4byte	0x3c5
 8825 1201 02       		.uleb128 0x2
 8826 1202 91       		.byte	0x91
 8827 1203 5C       		.sleb128 -36
 8828 1204 19       		.uleb128 0x19
 8829 1205 42757100 		.ascii	"Buq\000"
 8830 1209 01       		.byte	0x1
 8831 120a E901     		.2byte	0x1e9
 8832 120c C5030000 		.4byte	0x3c5
 8833 1210 02       		.uleb128 0x2
 8834 1211 91       		.byte	0x91
 8835 1212 58       		.sleb128 -40
 8836 1213 19       		.uleb128 0x19
 8837 1214 646F7400 		.ascii	"dot\000"
 8838 1218 01       		.byte	0x1
 8839 1219 EA01     		.2byte	0x1ea
 8840 121b 0A010000 		.4byte	0x10a
 8841 121f 02       		.uleb128 0x2
 8842 1220 91       		.byte	0x91
 8843 1221 50       		.sleb128 -48
 8844 1222 1A       		.uleb128 0x1a
 8845 1223 757100   		.ascii	"uq\000"
 8846 1226 01       		.byte	0x1
 8847 1227 EE01     		.2byte	0x1ee
 8848 1229 F2000000 		.4byte	0xf2
 8849 122d 1A       		.uleb128 0x1a
 8850 122e 41783000 		.ascii	"Ax0\000"
 8851 1232 01       		.byte	0x1
ARM GAS  C:\Users\user\AppData\Local\Temp\cc6TIdBD.s 			page 186


 8852 1233 F401     		.2byte	0x1f4
 8853 1235 F2000000 		.4byte	0xf2
 8854 1239 1A       		.uleb128 0x1a
 8855 123a 41783100 		.ascii	"Ax1\000"
 8856 123e 01       		.byte	0x1
 8857 123f F801     		.2byte	0x1f8
 8858 1241 F2000000 		.4byte	0xf2
 8859 1245 1B       		.uleb128 0x1b
 8860 1246 82040000 		.4byte	0x482
 8861 124a 1C000000 		.4byte	.LBB284
 8862 124e 2E000000 		.4byte	.LBE284-.LBB284
 8863 1252 01       		.byte	0x1
 8864 1253 EC01     		.2byte	0x1ec
 8865 1255 63120000 		.4byte	0x1263
 8866 1259 1C       		.uleb128 0x1c
 8867 125a 92040000 		.4byte	0x492
 8868 125e 000B0000 		.4byte	.LLST86
 8869 1262 00       		.byte	0
 8870 1263 1B       		.uleb128 0x1b
 8871 1264 82040000 		.4byte	0x482
 8872 1268 58000000 		.4byte	.LBB286
 8873 126c 2E000000 		.4byte	.LBE286-.LBB286
 8874 1270 01       		.byte	0x1
 8875 1271 ED01     		.2byte	0x1ed
 8876 1273 81120000 		.4byte	0x1281
 8877 1277 1C       		.uleb128 0x1c
 8878 1278 92040000 		.4byte	0x492
 8879 127c 1E0B0000 		.4byte	.LLST87
 8880 1280 00       		.byte	0
 8881 1281 1B       		.uleb128 0x1b
 8882 1282 82040000 		.4byte	0x482
 8883 1286 94000000 		.4byte	.LBB288
 8884 128a 2E000000 		.4byte	.LBE288-.LBB288
 8885 128e 01       		.byte	0x1
 8886 128f EE01     		.2byte	0x1ee
 8887 1291 9F120000 		.4byte	0x129f
 8888 1295 1C       		.uleb128 0x1c
 8889 1296 92040000 		.4byte	0x492
 8890 129a 3C0B0000 		.4byte	.LLST88
 8891 129e 00       		.byte	0
 8892 129f 1B       		.uleb128 0x1b
 8893 12a0 68040000 		.4byte	0x468
 8894 12a4 EA000000 		.4byte	.LBB290
 8895 12a8 18000000 		.4byte	.LBE290-.LBB290
 8896 12ac 01       		.byte	0x1
 8897 12ad F401     		.2byte	0x1f4
 8898 12af BD120000 		.4byte	0x12bd
 8899 12b3 1C       		.uleb128 0x1c
 8900 12b4 78040000 		.4byte	0x478
 8901 12b8 5A0B0000 		.4byte	.LLST89
 8902 12bc 00       		.byte	0
 8903 12bd 1B       		.uleb128 0x1b
 8904 12be 68040000 		.4byte	0x468
 8905 12c2 08010000 		.4byte	.LBB292
 8906 12c6 18000000 		.4byte	.LBE292-.LBB292
 8907 12ca 01       		.byte	0x1
 8908 12cb F501     		.2byte	0x1f5
ARM GAS  C:\Users\user\AppData\Local\Temp\cc6TIdBD.s 			page 187


 8909 12cd DB120000 		.4byte	0x12db
 8910 12d1 1C       		.uleb128 0x1c
 8911 12d2 78040000 		.4byte	0x478
 8912 12d6 AD0B0000 		.4byte	.LLST90
 8913 12da 00       		.byte	0
 8914 12db 1B       		.uleb128 0x1b
 8915 12dc 4E040000 		.4byte	0x44e
 8916 12e0 20010000 		.4byte	.LBB294
 8917 12e4 0C000000 		.4byte	.LBE294-.LBB294
 8918 12e8 01       		.byte	0x1
 8919 12e9 F501     		.2byte	0x1f5
 8920 12eb F5120000 		.4byte	0x12f5
 8921 12ef 1D       		.uleb128 0x1d
 8922 12f0 5E040000 		.4byte	0x45e
 8923 12f4 00       		.byte	0
 8924 12f5 1B       		.uleb128 0x1b
 8925 12f6 68040000 		.4byte	0x468
 8926 12fa 4E010000 		.4byte	.LBB296
 8927 12fe 18000000 		.4byte	.LBE296-.LBB296
 8928 1302 01       		.byte	0x1
 8929 1303 F801     		.2byte	0x1f8
 8930 1305 13130000 		.4byte	0x1313
 8931 1309 1C       		.uleb128 0x1c
 8932 130a 78040000 		.4byte	0x478
 8933 130e C00B0000 		.4byte	.LLST91
 8934 1312 00       		.byte	0
 8935 1313 1B       		.uleb128 0x1b
 8936 1314 68040000 		.4byte	0x468
 8937 1318 6C010000 		.4byte	.LBB298
 8938 131c 18000000 		.4byte	.LBE298-.LBB298
 8939 1320 01       		.byte	0x1
 8940 1321 F901     		.2byte	0x1f9
 8941 1323 31130000 		.4byte	0x1331
 8942 1327 1C       		.uleb128 0x1c
 8943 1328 78040000 		.4byte	0x478
 8944 132c 130C0000 		.4byte	.LLST92
 8945 1330 00       		.byte	0
 8946 1331 1B       		.uleb128 0x1b
 8947 1332 4E040000 		.4byte	0x44e
 8948 1336 84010000 		.4byte	.LBB300
 8949 133a 0C000000 		.4byte	.LBE300-.LBB300
 8950 133e 01       		.byte	0x1
 8951 133f F901     		.2byte	0x1f9
 8952 1341 4B130000 		.4byte	0x134b
 8953 1345 1D       		.uleb128 0x1d
 8954 1346 5E040000 		.4byte	0x45e
 8955 134a 00       		.byte	0
 8956 134b 26       		.uleb128 0x26
 8957 134c D2000000 		.4byte	.LVL342
 8958 1350 91300000 		.4byte	0x3091
 8959 1354 72130000 		.4byte	0x1372
 8960 1358 1F       		.uleb128 0x1f
 8961 1359 01       		.uleb128 0x1
 8962 135a 50       		.byte	0x50
 8963 135b 03       		.uleb128 0x3
 8964 135c 76       		.byte	0x76
 8965 135d E801     		.sleb128 232
ARM GAS  C:\Users\user\AppData\Local\Temp\cc6TIdBD.s 			page 188


 8966 135f 1F       		.uleb128 0x1f
 8967 1360 01       		.uleb128 0x1
 8968 1361 52       		.byte	0x52
 8969 1362 01       		.uleb128 0x1
 8970 1363 30       		.byte	0x30
 8971 1364 1F       		.uleb128 0x1f
 8972 1365 01       		.uleb128 0x1
 8973 1366 53       		.byte	0x53
 8974 1367 02       		.uleb128 0x2
 8975 1368 91       		.byte	0x91
 8976 1369 58       		.sleb128 -40
 8977 136a 1F       		.uleb128 0x1f
 8978 136b 02       		.uleb128 0x2
 8979 136c 7D       		.byte	0x7d
 8980 136d 00       		.sleb128 0
 8981 136e 02       		.uleb128 0x2
 8982 136f 77       		.byte	0x77
 8983 1370 00       		.sleb128 0
 8984 1371 00       		.byte	0
 8985 1372 26       		.uleb128 0x26
 8986 1373 E0000000 		.4byte	.LVL343
 8987 1377 85300000 		.4byte	0x3085
 8988 137b 99130000 		.4byte	0x1399
 8989 137f 1F       		.uleb128 0x1f
 8990 1380 01       		.uleb128 0x1
 8991 1381 50       		.byte	0x50
 8992 1382 03       		.uleb128 0x3
 8993 1383 76       		.byte	0x76
 8994 1384 E001     		.sleb128 224
 8995 1386 1F       		.uleb128 0x1f
 8996 1387 01       		.uleb128 0x1
 8997 1388 51       		.byte	0x51
 8998 1389 02       		.uleb128 0x2
 8999 138a 91       		.byte	0x91
 9000 138b 5C       		.sleb128 -36
 9001 138c 1F       		.uleb128 0x1f
 9002 138d 01       		.uleb128 0x1
 9003 138e 52       		.byte	0x52
 9004 138f 02       		.uleb128 0x2
 9005 1390 77       		.byte	0x77
 9006 1391 00       		.sleb128 0
 9007 1392 1F       		.uleb128 0x1f
 9008 1393 01       		.uleb128 0x1
 9009 1394 53       		.byte	0x53
 9010 1395 02       		.uleb128 0x2
 9011 1396 91       		.byte	0x91
 9012 1397 50       		.sleb128 -48
 9013 1398 00       		.byte	0
 9014 1399 1E       		.uleb128 0x1e
 9015 139a 44010000 		.4byte	.LVL355
 9016 139e 85300000 		.4byte	0x3085
 9017 13a2 1F       		.uleb128 0x1f
 9018 13a3 01       		.uleb128 0x1
 9019 13a4 50       		.byte	0x50
 9020 13a5 03       		.uleb128 0x3
 9021 13a6 76       		.byte	0x76
 9022 13a7 E401     		.sleb128 228
ARM GAS  C:\Users\user\AppData\Local\Temp\cc6TIdBD.s 			page 189


 9023 13a9 1F       		.uleb128 0x1f
 9024 13aa 01       		.uleb128 0x1
 9025 13ab 51       		.byte	0x51
 9026 13ac 02       		.uleb128 0x2
 9027 13ad 91       		.byte	0x91
 9028 13ae 5C       		.sleb128 -36
 9029 13af 1F       		.uleb128 0x1f
 9030 13b0 01       		.uleb128 0x1
 9031 13b1 52       		.byte	0x52
 9032 13b2 02       		.uleb128 0x2
 9033 13b3 77       		.byte	0x77
 9034 13b4 00       		.sleb128 0
 9035 13b5 1F       		.uleb128 0x1f
 9036 13b6 01       		.uleb128 0x1
 9037 13b7 53       		.byte	0x53
 9038 13b8 02       		.uleb128 0x2
 9039 13b9 91       		.byte	0x91
 9040 13ba 50       		.sleb128 -48
 9041 13bb 00       		.byte	0
 9042 13bc 00       		.byte	0
 9043 13bd 21       		.uleb128 0x21
 9044 13be 7A070000 		.4byte	.LASF90
 9045 13c2 01       		.byte	0x1
 9046 13c3 0F02     		.2byte	0x20f
 9047 13c5 00000000 		.4byte	.LFB147
 9048 13c9 44010000 		.4byte	.LFE147-.LFB147
 9049 13cd 01       		.uleb128 0x1
 9050 13ce 9C       		.byte	0x9c
 9051 13cf A2150000 		.4byte	0x15a2
 9052 13d3 17       		.uleb128 0x17
 9053 13d4 6C7000   		.ascii	"lp\000"
 9054 13d7 01       		.byte	0x1
 9055 13d8 0F02     		.2byte	0x20f
 9056 13da FE050000 		.4byte	0x5fe
 9057 13de 260C0000 		.4byte	.LLST93
 9058 13e2 17       		.uleb128 0x17
 9059 13e3 7900     		.ascii	"y\000"
 9060 13e5 01       		.byte	0x1
 9061 13e6 0F02     		.2byte	0x20f
 9062 13e8 25000000 		.4byte	0x25
 9063 13ec 520C0000 		.4byte	.LLST94
 9064 13f0 22       		.uleb128 0x22
 9065 13f1 4F070000 		.4byte	.LASF74
 9066 13f5 01       		.byte	0x1
 9067 13f6 0F02     		.2byte	0x20f
 9068 13f8 25000000 		.4byte	0x25
 9069 13fc 800C0000 		.4byte	.LLST95
 9070 1400 17       		.uleb128 0x17
 9071 1401 755F6B00 		.ascii	"u_k\000"
 9072 1405 01       		.byte	0x1
 9073 1406 0F02     		.2byte	0x20f
 9074 1408 25000000 		.4byte	0x25
 9075 140c A30C0000 		.4byte	.LLST96
 9076 1410 18       		.uleb128 0x18
 9077 1411 717300   		.ascii	"qs\000"
 9078 1414 01       		.byte	0x1
 9079 1415 1102     		.2byte	0x211
ARM GAS  C:\Users\user\AppData\Local\Temp\cc6TIdBD.s 			page 190


 9080 1417 25000000 		.4byte	0x25
 9081 141b D10C0000 		.4byte	.LLST97
 9082 141f 23       		.uleb128 0x23
 9083 1420 0B030000 		.4byte	.LASF75
 9084 1424 01       		.byte	0x1
 9085 1425 1302     		.2byte	0x213
 9086 1427 25000000 		.4byte	0x25
 9087 142b E40C0000 		.4byte	.LLST98
 9088 142f 24       		.uleb128 0x24
 9089 1430 5D080000 		.4byte	.LASF76
 9090 1434 01       		.byte	0x1
 9091 1435 1402     		.2byte	0x214
 9092 1437 F2000000 		.4byte	0xf2
 9093 143b 19       		.uleb128 0x19
 9094 143c 7A00     		.ascii	"z\000"
 9095 143e 01       		.byte	0x1
 9096 143f 1602     		.2byte	0x216
 9097 1441 85030000 		.4byte	0x385
 9098 1445 02       		.uleb128 0x2
 9099 1446 91       		.byte	0x91
 9100 1447 60       		.sleb128 -32
 9101 1448 25       		.uleb128 0x25
 9102 1449 45070000 		.4byte	.LASF77
 9103 144d 01       		.byte	0x1
 9104 144e 1902     		.2byte	0x219
 9105 1450 C5030000 		.4byte	0x3c5
 9106 1454 02       		.uleb128 0x2
 9107 1455 91       		.byte	0x91
 9108 1456 5C       		.sleb128 -36
 9109 1457 19       		.uleb128 0x19
 9110 1458 7A7100   		.ascii	"zq\000"
 9111 145b 01       		.byte	0x1
 9112 145c 1C02     		.2byte	0x21c
 9113 145e C5030000 		.4byte	0x3c5
 9114 1462 02       		.uleb128 0x2
 9115 1463 91       		.byte	0x91
 9116 1464 58       		.sleb128 -40
 9117 1465 25       		.uleb128 0x25
 9118 1466 51050000 		.4byte	.LASF79
 9119 146a 01       		.byte	0x1
 9120 146b 1F02     		.2byte	0x21f
 9121 146d C5030000 		.4byte	0x3c5
 9122 1471 02       		.uleb128 0x2
 9123 1472 91       		.byte	0x91
 9124 1473 54       		.sleb128 -44
 9125 1474 1B       		.uleb128 0x1b
 9126 1475 82040000 		.4byte	0x482
 9127 1479 2A000000 		.4byte	.LBB302
 9128 147d 32000000 		.4byte	.LBE302-.LBB302
 9129 1481 01       		.byte	0x1
 9130 1482 1402     		.2byte	0x214
 9131 1484 92140000 		.4byte	0x1492
 9132 1488 1C       		.uleb128 0x1c
 9133 1489 92040000 		.4byte	0x492
 9134 148d F70C0000 		.4byte	.LLST99
 9135 1491 00       		.byte	0
 9136 1492 1B       		.uleb128 0x1b
ARM GAS  C:\Users\user\AppData\Local\Temp\cc6TIdBD.s 			page 191


 9137 1493 82040000 		.4byte	0x482
 9138 1497 84000000 		.4byte	.LBB304
 9139 149b 2E000000 		.4byte	.LBE304-.LBB304
 9140 149f 01       		.byte	0x1
 9141 14a0 1D02     		.2byte	0x21d
 9142 14a2 B0140000 		.4byte	0x14b0
 9143 14a6 1C       		.uleb128 0x1c
 9144 14a7 92040000 		.4byte	0x492
 9145 14ab 2B0D0000 		.4byte	.LLST100
 9146 14af 00       		.byte	0
 9147 14b0 1B       		.uleb128 0x1b
 9148 14b1 82040000 		.4byte	0x482
 9149 14b5 C0000000 		.4byte	.LBB306
 9150 14b9 2E000000 		.4byte	.LBE306-.LBB306
 9151 14bd 01       		.byte	0x1
 9152 14be 1E02     		.2byte	0x21e
 9153 14c0 CE140000 		.4byte	0x14ce
 9154 14c4 1C       		.uleb128 0x1c
 9155 14c5 92040000 		.4byte	0x492
 9156 14c9 490D0000 		.4byte	.LLST101
 9157 14cd 00       		.byte	0
 9158 14ce 1B       		.uleb128 0x1b
 9159 14cf 4E040000 		.4byte	0x44e
 9160 14d3 FE000000 		.4byte	.LBB308
 9161 14d7 10000000 		.4byte	.LBE308-.LBB308
 9162 14db 01       		.byte	0x1
 9163 14dc 2202     		.2byte	0x222
 9164 14de EC140000 		.4byte	0x14ec
 9165 14e2 1C       		.uleb128 0x1c
 9166 14e3 5E040000 		.4byte	0x45e
 9167 14e7 670D0000 		.4byte	.LLST102
 9168 14eb 00       		.byte	0
 9169 14ec 1B       		.uleb128 0x1b
 9170 14ed 4E040000 		.4byte	0x44e
 9171 14f1 1A010000 		.4byte	.LBB310
 9172 14f5 10000000 		.4byte	.LBE310-.LBB310
 9173 14f9 01       		.byte	0x1
 9174 14fa 2302     		.2byte	0x223
 9175 14fc 0A150000 		.4byte	0x150a
 9176 1500 1C       		.uleb128 0x1c
 9177 1501 5E040000 		.4byte	0x45e
 9178 1505 7B0D0000 		.4byte	.LLST103
 9179 1509 00       		.byte	0
 9180 150a 26       		.uleb128 0x26
 9181 150b 1A000000 		.4byte	.LVL371
 9182 150f 780E0000 		.4byte	0xe78
 9183 1513 2D150000 		.4byte	0x152d
 9184 1517 1F       		.uleb128 0x1f
 9185 1518 01       		.uleb128 0x1
 9186 1519 50       		.byte	0x50
 9187 151a 02       		.uleb128 0x2
 9188 151b 74       		.byte	0x74
 9189 151c 00       		.sleb128 0
 9190 151d 1F       		.uleb128 0x1f
 9191 151e 01       		.uleb128 0x1
 9192 151f 51       		.byte	0x51
 9193 1520 02       		.uleb128 0x2
ARM GAS  C:\Users\user\AppData\Local\Temp\cc6TIdBD.s 			page 192


 9194 1521 76       		.byte	0x76
 9195 1522 00       		.sleb128 0
 9196 1523 1F       		.uleb128 0x1f
 9197 1524 01       		.uleb128 0x1
 9198 1525 52       		.byte	0x52
 9199 1526 05       		.uleb128 0x5
 9200 1527 F3       		.byte	0xf3
 9201 1528 03       		.uleb128 0x3
 9202 1529 F5       		.byte	0xf5
 9203 152a 02       		.uleb128 0x2
 9204 152b 25       		.uleb128 0x25
 9205 152c 00       		.byte	0
 9206 152d 26       		.uleb128 0x26
 9207 152e 68000000 		.4byte	.LVL384
 9208 1532 98110000 		.4byte	0x1198
 9209 1536 54150000 		.4byte	0x1554
 9210 153a 1F       		.uleb128 0x1f
 9211 153b 01       		.uleb128 0x1
 9212 153c 50       		.byte	0x50
 9213 153d 02       		.uleb128 0x2
 9214 153e 74       		.byte	0x74
 9215 153f 00       		.sleb128 0
 9216 1540 1F       		.uleb128 0x1f
 9217 1541 01       		.uleb128 0x1
 9218 1542 51       		.byte	0x51
 9219 1543 02       		.uleb128 0x2
 9220 1544 76       		.byte	0x76
 9221 1545 00       		.sleb128 0
 9222 1546 1F       		.uleb128 0x1f
 9223 1547 01       		.uleb128 0x1
 9224 1548 52       		.byte	0x52
 9225 1549 03       		.uleb128 0x3
 9226 154a F5       		.byte	0xf5
 9227 154b 07       		.uleb128 0x7
 9228 154c 25       		.uleb128 0x25
 9229 154d 1F       		.uleb128 0x1f
 9230 154e 01       		.uleb128 0x1
 9231 154f 53       		.byte	0x53
 9232 1550 02       		.uleb128 0x2
 9233 1551 91       		.byte	0x91
 9234 1552 60       		.sleb128 -32
 9235 1553 00       		.byte	0
 9236 1554 26       		.uleb128 0x26
 9237 1555 7A000000 		.4byte	.LVL385
 9238 1559 91300000 		.4byte	0x3091
 9239 155d 80150000 		.4byte	0x1580
 9240 1561 1F       		.uleb128 0x1f
 9241 1562 01       		.uleb128 0x1
 9242 1563 50       		.byte	0x50
 9243 1564 03       		.uleb128 0x3
 9244 1565 74       		.byte	0x74
 9245 1566 F401     		.sleb128 244
 9246 1568 1F       		.uleb128 0x1f
 9247 1569 01       		.uleb128 0x1
 9248 156a 51       		.byte	0x51
 9249 156b 02       		.uleb128 0x2
 9250 156c 78       		.byte	0x78
ARM GAS  C:\Users\user\AppData\Local\Temp\cc6TIdBD.s 			page 193


 9251 156d 00       		.sleb128 0
 9252 156e 1F       		.uleb128 0x1f
 9253 156f 01       		.uleb128 0x1
 9254 1570 52       		.byte	0x52
 9255 1571 01       		.uleb128 0x1
 9256 1572 30       		.byte	0x30
 9257 1573 1F       		.uleb128 0x1f
 9258 1574 01       		.uleb128 0x1
 9259 1575 53       		.byte	0x53
 9260 1576 02       		.uleb128 0x2
 9261 1577 91       		.byte	0x91
 9262 1578 5C       		.sleb128 -36
 9263 1579 1F       		.uleb128 0x1f
 9264 157a 02       		.uleb128 0x2
 9265 157b 7D       		.byte	0x7d
 9266 157c 00       		.sleb128 0
 9267 157d 01       		.uleb128 0x1
 9268 157e 32       		.byte	0x32
 9269 157f 00       		.byte	0
 9270 1580 1E       		.uleb128 0x1e
 9271 1581 FE000000 		.4byte	.LVL400
 9272 1585 9D300000 		.4byte	0x309d
 9273 1589 1F       		.uleb128 0x1f
 9274 158a 01       		.uleb128 0x1
 9275 158b 50       		.byte	0x50
 9276 158c 02       		.uleb128 0x2
 9277 158d 91       		.byte	0x91
 9278 158e 58       		.sleb128 -40
 9279 158f 1F       		.uleb128 0x1f
 9280 1590 01       		.uleb128 0x1
 9281 1591 51       		.byte	0x51
 9282 1592 02       		.uleb128 0x2
 9283 1593 91       		.byte	0x91
 9284 1594 5C       		.sleb128 -36
 9285 1595 1F       		.uleb128 0x1f
 9286 1596 01       		.uleb128 0x1
 9287 1597 52       		.byte	0x52
 9288 1598 02       		.uleb128 0x2
 9289 1599 91       		.byte	0x91
 9290 159a 54       		.sleb128 -44
 9291 159b 1F       		.uleb128 0x1f
 9292 159c 01       		.uleb128 0x1
 9293 159d 53       		.byte	0x53
 9294 159e 01       		.uleb128 0x1
 9295 159f 32       		.byte	0x32
 9296 15a0 00       		.byte	0
 9297 15a1 00       		.byte	0
 9298 15a2 27       		.uleb128 0x27
 9299 15a3 9D070000 		.4byte	.LASF91
 9300 15a7 01       		.byte	0x1
 9301 15a8 3A02     		.2byte	0x23a
 9302 15aa 00000000 		.4byte	.LFB149
 9303 15ae 12000000 		.4byte	.LFE149-.LFB149
 9304 15b2 01       		.uleb128 0x1
 9305 15b3 9C       		.byte	0x9c
 9306 15b4 06160000 		.4byte	0x1606
 9307 15b8 17       		.uleb128 0x17
ARM GAS  C:\Users\user\AppData\Local\Temp\cc6TIdBD.s 			page 194


 9308 15b9 6C7000   		.ascii	"lp\000"
 9309 15bc 01       		.byte	0x1
 9310 15bd 3A02     		.2byte	0x23a
 9311 15bf FE050000 		.4byte	0x5fe
 9312 15c3 8F0D0000 		.4byte	.LLST104
 9313 15c7 17       		.uleb128 0x17
 9314 15c8 755F6B00 		.ascii	"u_k\000"
 9315 15cc 01       		.byte	0x1
 9316 15cd 3A02     		.2byte	0x23a
 9317 15cf 25000000 		.4byte	0x25
 9318 15d3 B00D0000 		.4byte	.LLST105
 9319 15d7 1E       		.uleb128 0x1e
 9320 15d8 10000000 		.4byte	.LVL411
 9321 15dc 98110000 		.4byte	0x1198
 9322 15e0 1F       		.uleb128 0x1f
 9323 15e1 01       		.uleb128 0x1
 9324 15e2 50       		.byte	0x50
 9325 15e3 03       		.uleb128 0x3
 9326 15e4 F3       		.byte	0xf3
 9327 15e5 01       		.uleb128 0x1
 9328 15e6 50       		.byte	0x50
 9329 15e7 1F       		.uleb128 0x1f
 9330 15e8 01       		.uleb128 0x1
 9331 15e9 51       		.byte	0x51
 9332 15ea 06       		.uleb128 0x6
 9333 15eb F3       		.byte	0xf3
 9334 15ec 01       		.uleb128 0x1
 9335 15ed 50       		.byte	0x50
 9336 15ee 23       		.byte	0x23
 9337 15ef 8001     		.uleb128 0x80
 9338 15f1 1F       		.uleb128 0x1f
 9339 15f2 01       		.uleb128 0x1
 9340 15f3 52       		.byte	0x52
 9341 15f4 05       		.uleb128 0x5
 9342 15f5 F3       		.byte	0xf3
 9343 15f6 03       		.uleb128 0x3
 9344 15f7 F5       		.byte	0xf5
 9345 15f8 01       		.uleb128 0x1
 9346 15f9 25       		.uleb128 0x25
 9347 15fa 1F       		.uleb128 0x1f
 9348 15fb 01       		.uleb128 0x1
 9349 15fc 53       		.byte	0x53
 9350 15fd 06       		.uleb128 0x6
 9351 15fe F3       		.byte	0xf3
 9352 15ff 01       		.uleb128 0x1
 9353 1600 50       		.byte	0x50
 9354 1601 23       		.byte	0x23
 9355 1602 8801     		.uleb128 0x88
 9356 1604 00       		.byte	0
 9357 1605 00       		.byte	0
 9358 1606 16       		.uleb128 0x16
 9359 1607 7C060000 		.4byte	.LASF92
 9360 160b 01       		.byte	0x1
 9361 160c FC01     		.2byte	0x1fc
 9362 160e 25000000 		.4byte	0x25
 9363 1612 00000000 		.4byte	.LFB146
 9364 1616 44010000 		.4byte	.LFE146-.LFB146
ARM GAS  C:\Users\user\AppData\Local\Temp\cc6TIdBD.s 			page 195


 9365 161a 01       		.uleb128 0x1
 9366 161b 9C       		.byte	0x9c
 9367 161c 63170000 		.4byte	0x1763
 9368 1620 17       		.uleb128 0x17
 9369 1621 6C7000   		.ascii	"lp\000"
 9370 1624 01       		.byte	0x1
 9371 1625 FC01     		.2byte	0x1fc
 9372 1627 FE050000 		.4byte	0x5fe
 9373 162b DE0D0000 		.4byte	.LLST106
 9374 162f 18       		.uleb128 0x18
 9375 1630 717300   		.ascii	"qs\000"
 9376 1633 01       		.byte	0x1
 9377 1634 FE01     		.2byte	0x1fe
 9378 1636 25000000 		.4byte	0x25
 9379 163a 0A0E0000 		.4byte	.LLST107
 9380 163e 25       		.uleb128 0x25
 9381 163f 51050000 		.4byte	.LASF79
 9382 1643 01       		.byte	0x1
 9383 1644 FF01     		.2byte	0x1ff
 9384 1646 C5030000 		.4byte	0x3c5
 9385 164a 02       		.uleb128 0x2
 9386 164b 91       		.byte	0x91
 9387 164c 6C       		.sleb128 -20
 9388 164d 19       		.uleb128 0x19
 9389 164e 646F7400 		.ascii	"dot\000"
 9390 1652 01       		.byte	0x1
 9391 1653 0002     		.2byte	0x200
 9392 1655 0A010000 		.4byte	0x10a
 9393 1659 02       		.uleb128 0x2
 9394 165a 91       		.byte	0x91
 9395 165b 60       		.sleb128 -32
 9396 165c 1A       		.uleb128 0x1a
 9397 165d 6B7800   		.ascii	"kx\000"
 9398 1660 01       		.byte	0x1
 9399 1661 0602     		.2byte	0x206
 9400 1663 F2000000 		.4byte	0xf2
 9401 1667 23       		.uleb128 0x23
 9402 1668 9A020000 		.4byte	.LASF85
 9403 166c 01       		.byte	0x1
 9404 166d 0802     		.2byte	0x208
 9405 166f 25000000 		.4byte	0x25
 9406 1673 1D0E0000 		.4byte	.LLST108
 9407 1677 24       		.uleb128 0x24
 9408 1678 C9020000 		.4byte	.LASF86
 9409 167c 01       		.byte	0x1
 9410 167d 0A02     		.2byte	0x20a
 9411 167f F2000000 		.4byte	0xf2
 9412 1683 1B       		.uleb128 0x1b
 9413 1684 82040000 		.4byte	0x482
 9414 1688 16000000 		.4byte	.LBB312
 9415 168c 2E000000 		.4byte	.LBE312-.LBB312
 9416 1690 01       		.byte	0x1
 9417 1691 0202     		.2byte	0x202
 9418 1693 A1160000 		.4byte	0x16a1
 9419 1697 1C       		.uleb128 0x1c
 9420 1698 92040000 		.4byte	0x492
 9421 169c 300E0000 		.4byte	.LLST109
ARM GAS  C:\Users\user\AppData\Local\Temp\cc6TIdBD.s 			page 196


 9422 16a0 00       		.byte	0
 9423 16a1 1B       		.uleb128 0x1b
 9424 16a2 82040000 		.4byte	0x482
 9425 16a6 54000000 		.4byte	.LBB314
 9426 16aa 2E000000 		.4byte	.LBE314-.LBB314
 9427 16ae 01       		.byte	0x1
 9428 16af 0302     		.2byte	0x203
 9429 16b1 BF160000 		.4byte	0x16bf
 9430 16b5 1C       		.uleb128 0x1c
 9431 16b6 92040000 		.4byte	0x492
 9432 16ba 4E0E0000 		.4byte	.LLST110
 9433 16be 00       		.byte	0
 9434 16bf 1B       		.uleb128 0x1b
 9435 16c0 68040000 		.4byte	0x468
 9436 16c4 9E000000 		.4byte	.LBB316
 9437 16c8 18000000 		.4byte	.LBE316-.LBB316
 9438 16cc 01       		.byte	0x1
 9439 16cd 0602     		.2byte	0x206
 9440 16cf DD160000 		.4byte	0x16dd
 9441 16d3 1C       		.uleb128 0x1c
 9442 16d4 78040000 		.4byte	0x478
 9443 16d8 6C0E0000 		.4byte	.LLST111
 9444 16dc 00       		.byte	0
 9445 16dd 1B       		.uleb128 0x1b
 9446 16de 82040000 		.4byte	0x482
 9447 16e2 DC000000 		.4byte	.LBB318
 9448 16e6 2E000000 		.4byte	.LBE318-.LBB318
 9449 16ea 01       		.byte	0x1
 9450 16eb 0A02     		.2byte	0x20a
 9451 16ed FB160000 		.4byte	0x16fb
 9452 16f1 1C       		.uleb128 0x1c
 9453 16f2 92040000 		.4byte	0x492
 9454 16f6 7F0E0000 		.4byte	.LLST112
 9455 16fa 00       		.byte	0
 9456 16fb 1B       		.uleb128 0x1b
 9457 16fc 68040000 		.4byte	0x468
 9458 1700 0C010000 		.4byte	.LBB320
 9459 1704 18000000 		.4byte	.LBE320-.LBB320
 9460 1708 01       		.byte	0x1
 9461 1709 0C02     		.2byte	0x20c
 9462 170b 19170000 		.4byte	0x1719
 9463 170f 1C       		.uleb128 0x1c
 9464 1710 78040000 		.4byte	0x478
 9465 1714 9D0E0000 		.4byte	.LLST113
 9466 1718 00       		.byte	0
 9467 1719 1B       		.uleb128 0x1b
 9468 171a 4E040000 		.4byte	0x44e
 9469 171e 24010000 		.4byte	.LBB322
 9470 1722 0C000000 		.4byte	.LBE322-.LBB322
 9471 1726 01       		.byte	0x1
 9472 1727 0C02     		.2byte	0x20c
 9473 1729 33170000 		.4byte	0x1733
 9474 172d 1D       		.uleb128 0x1d
 9475 172e 5E040000 		.4byte	0x45e
 9476 1732 00       		.byte	0
 9477 1733 26       		.uleb128 0x26
 9478 1734 94000000 		.4byte	.LVL429
ARM GAS  C:\Users\user\AppData\Local\Temp\cc6TIdBD.s 			page 197


 9479 1738 85300000 		.4byte	0x3085
 9480 173c 59170000 		.4byte	0x1759
 9481 1740 1F       		.uleb128 0x1f
 9482 1741 01       		.uleb128 0x1
 9483 1742 50       		.byte	0x50
 9484 1743 03       		.uleb128 0x3
 9485 1744 75       		.byte	0x75
 9486 1745 F001     		.sleb128 240
 9487 1747 1F       		.uleb128 0x1f
 9488 1748 01       		.uleb128 0x1
 9489 1749 51       		.byte	0x51
 9490 174a 02       		.uleb128 0x2
 9491 174b 91       		.byte	0x91
 9492 174c 6C       		.sleb128 -20
 9493 174d 1F       		.uleb128 0x1f
 9494 174e 01       		.uleb128 0x1
 9495 174f 52       		.byte	0x52
 9496 1750 01       		.uleb128 0x1
 9497 1751 32       		.byte	0x32
 9498 1752 1F       		.uleb128 0x1f
 9499 1753 01       		.uleb128 0x1
 9500 1754 53       		.byte	0x53
 9501 1755 02       		.uleb128 0x2
 9502 1756 7D       		.byte	0x7d
 9503 1757 00       		.sleb128 0
 9504 1758 00       		.byte	0
 9505 1759 28       		.uleb128 0x28
 9506 175a BC000000 		.4byte	.LVL432
 9507 175e 91050000 		.4byte	0x591
 9508 1762 00       		.byte	0
 9509 1763 16       		.uleb128 0x16
 9510 1764 16000000 		.4byte	.LASF93
 9511 1768 01       		.byte	0x1
 9512 1769 4602     		.2byte	0x246
 9513 176b 25000000 		.4byte	0x25
 9514 176f 00000000 		.4byte	.LFB150
 9515 1773 44010000 		.4byte	.LFE150-.LFB150
 9516 1777 01       		.uleb128 0x1
 9517 1778 9C       		.byte	0x9c
 9518 1779 E6180000 		.4byte	0x18e6
 9519 177d 17       		.uleb128 0x17
 9520 177e 6C7000   		.ascii	"lp\000"
 9521 1781 01       		.byte	0x1
 9522 1782 4602     		.2byte	0x246
 9523 1784 FE050000 		.4byte	0x5fe
 9524 1788 B00E0000 		.4byte	.LLST114
 9525 178c 17       		.uleb128 0x17
 9526 178d 7800     		.ascii	"x\000"
 9527 178f 01       		.byte	0x1
 9528 1790 4602     		.2byte	0x246
 9529 1792 53070000 		.4byte	0x753
 9530 1796 DC0E0000 		.4byte	.LLST115
 9531 179a 17       		.uleb128 0x17
 9532 179b 7500     		.ascii	"u\000"
 9533 179d 01       		.byte	0x1
 9534 179e 4602     		.2byte	0x246
 9535 17a0 25000000 		.4byte	0x25
ARM GAS  C:\Users\user\AppData\Local\Temp\cc6TIdBD.s 			page 198


 9536 17a4 080F0000 		.4byte	.LLST116
 9537 17a8 18       		.uleb128 0x18
 9538 17a9 717300   		.ascii	"qs\000"
 9539 17ac 01       		.byte	0x1
 9540 17ad 4802     		.2byte	0x248
 9541 17af 25000000 		.4byte	0x25
 9542 17b3 360F0000 		.4byte	.LLST117
 9543 17b7 19       		.uleb128 0x19
 9544 17b8 787100   		.ascii	"xq\000"
 9545 17bb 01       		.byte	0x1
 9546 17bc 4902     		.2byte	0x249
 9547 17be E5030000 		.4byte	0x3e5
 9548 17c2 02       		.uleb128 0x2
 9549 17c3 91       		.byte	0x91
 9550 17c4 64       		.sleb128 -28
 9551 17c5 25       		.uleb128 0x25
 9552 17c6 4D010000 		.4byte	.LASF94
 9553 17ca 01       		.byte	0x1
 9554 17cb 4A02     		.2byte	0x24a
 9555 17cd FE000000 		.4byte	0xfe
 9556 17d1 02       		.uleb128 0x2
 9557 17d2 91       		.byte	0x91
 9558 17d3 60       		.sleb128 -32
 9559 17d4 1A       		.uleb128 0x1a
 9560 17d5 757100   		.ascii	"uq\000"
 9561 17d8 01       		.byte	0x1
 9562 17d9 4E02     		.2byte	0x24e
 9563 17db E6000000 		.4byte	0xe6
 9564 17df 1A       		.uleb128 0x1a
 9565 17e0 437800   		.ascii	"Cx\000"
 9566 17e3 01       		.byte	0x1
 9567 17e4 5202     		.2byte	0x252
 9568 17e6 E6000000 		.4byte	0xe6
 9569 17ea 1A       		.uleb128 0x1a
 9570 17eb 447500   		.ascii	"Du\000"
 9571 17ee 01       		.byte	0x1
 9572 17ef 5502     		.2byte	0x255
 9573 17f1 E6000000 		.4byte	0xe6
 9574 17f5 1B       		.uleb128 0x1b
 9575 17f6 D0040000 		.4byte	0x4d0
 9576 17fa 1A000000 		.4byte	.LBB324
 9577 17fe 2E000000 		.4byte	.LBE324-.LBB324
 9578 1802 01       		.byte	0x1
 9579 1803 4C02     		.2byte	0x24c
 9580 1805 13180000 		.4byte	0x1813
 9581 1809 1C       		.uleb128 0x1c
 9582 180a E0040000 		.4byte	0x4e0
 9583 180e 490F0000 		.4byte	.LLST118
 9584 1812 00       		.byte	0
 9585 1813 1B       		.uleb128 0x1b
 9586 1814 D0040000 		.4byte	0x4d0
 9587 1818 56000000 		.4byte	.LBB326
 9588 181c 2E000000 		.4byte	.LBE326-.LBB326
 9589 1820 01       		.byte	0x1
 9590 1821 4D02     		.2byte	0x24d
 9591 1823 31180000 		.4byte	0x1831
 9592 1827 1C       		.uleb128 0x1c
ARM GAS  C:\Users\user\AppData\Local\Temp\cc6TIdBD.s 			page 199


 9593 1828 E0040000 		.4byte	0x4e0
 9594 182c 670F0000 		.4byte	.LLST119
 9595 1830 00       		.byte	0
 9596 1831 1B       		.uleb128 0x1b
 9597 1832 D0040000 		.4byte	0x4d0
 9598 1836 92000000 		.4byte	.LBB328
 9599 183a 2E000000 		.4byte	.LBE328-.LBB328
 9600 183e 01       		.byte	0x1
 9601 183f 4E02     		.2byte	0x24e
 9602 1841 4F180000 		.4byte	0x184f
 9603 1845 1C       		.uleb128 0x1c
 9604 1846 E0040000 		.4byte	0x4e0
 9605 184a 850F0000 		.4byte	.LLST120
 9606 184e 00       		.byte	0
 9607 184f 1B       		.uleb128 0x1b
 9608 1850 B6040000 		.4byte	0x4b6
 9609 1854 D4000000 		.4byte	.LBB330
 9610 1858 16000000 		.4byte	.LBE330-.LBB330
 9611 185c 01       		.byte	0x1
 9612 185d 5202     		.2byte	0x252
 9613 185f 6D180000 		.4byte	0x186d
 9614 1863 1C       		.uleb128 0x1c
 9615 1864 C6040000 		.4byte	0x4c6
 9616 1868 B90F0000 		.4byte	.LLST121
 9617 186c 00       		.byte	0
 9618 186d 1B       		.uleb128 0x1b
 9619 186e B6040000 		.4byte	0x4b6
 9620 1872 F6000000 		.4byte	.LBB332
 9621 1876 16000000 		.4byte	.LBE332-.LBB332
 9622 187a 01       		.byte	0x1
 9623 187b 5502     		.2byte	0x255
 9624 187d 8B180000 		.4byte	0x188b
 9625 1881 1C       		.uleb128 0x1c
 9626 1882 C6040000 		.4byte	0x4c6
 9627 1886 CC0F0000 		.4byte	.LLST122
 9628 188a 00       		.byte	0
 9629 188b 1B       		.uleb128 0x1b
 9630 188c B6040000 		.4byte	0x4b6
 9631 1890 0E010000 		.4byte	.LBB334
 9632 1894 16000000 		.4byte	.LBE334-.LBB334
 9633 1898 01       		.byte	0x1
 9634 1899 5702     		.2byte	0x257
 9635 189b A9180000 		.4byte	0x18a9
 9636 189f 1C       		.uleb128 0x1c
 9637 18a0 C6040000 		.4byte	0x4c6
 9638 18a4 DF0F0000 		.4byte	.LLST123
 9639 18a8 00       		.byte	0
 9640 18a9 1B       		.uleb128 0x1b
 9641 18aa 9C040000 		.4byte	0x49c
 9642 18ae 24010000 		.4byte	.LBB336
 9643 18b2 0C000000 		.4byte	.LBE336-.LBB336
 9644 18b6 01       		.byte	0x1
 9645 18b7 5702     		.2byte	0x257
 9646 18b9 C3180000 		.4byte	0x18c3
 9647 18bd 1D       		.uleb128 0x1d
 9648 18be AC040000 		.4byte	0x4ac
 9649 18c2 00       		.byte	0
ARM GAS  C:\Users\user\AppData\Local\Temp\cc6TIdBD.s 			page 200


 9650 18c3 1E       		.uleb128 0x1e
 9651 18c4 CE000000 		.4byte	.LVL477
 9652 18c8 A9300000 		.4byte	0x30a9
 9653 18cc 1F       		.uleb128 0x1f
 9654 18cd 01       		.uleb128 0x1
 9655 18ce 50       		.byte	0x50
 9656 18cf 03       		.uleb128 0x3
 9657 18d0 76       		.byte	0x76
 9658 18d1 8202     		.sleb128 258
 9659 18d3 1F       		.uleb128 0x1f
 9660 18d4 01       		.uleb128 0x1
 9661 18d5 51       		.byte	0x51
 9662 18d6 02       		.uleb128 0x2
 9663 18d7 91       		.byte	0x91
 9664 18d8 64       		.sleb128 -28
 9665 18d9 1F       		.uleb128 0x1f
 9666 18da 01       		.uleb128 0x1
 9667 18db 52       		.byte	0x52
 9668 18dc 01       		.uleb128 0x1
 9669 18dd 32       		.byte	0x32
 9670 18de 1F       		.uleb128 0x1f
 9671 18df 01       		.uleb128 0x1
 9672 18e0 53       		.byte	0x53
 9673 18e1 02       		.uleb128 0x2
 9674 18e2 7D       		.byte	0x7d
 9675 18e3 00       		.sleb128 0
 9676 18e4 00       		.byte	0
 9677 18e5 00       		.byte	0
 9678 18e6 21       		.uleb128 0x21
 9679 18e7 C5070000 		.4byte	.LASF95
 9680 18eb 01       		.byte	0x1
 9681 18ec 9A02     		.2byte	0x29a
 9682 18ee 00000000 		.4byte	.LFB154
 9683 18f2 2C010000 		.4byte	.LFE154-.LFB154
 9684 18f6 01       		.uleb128 0x1
 9685 18f7 9C       		.byte	0x9c
 9686 18f8 831A0000 		.4byte	0x1a83
 9687 18fc 17       		.uleb128 0x17
 9688 18fd 6C7000   		.ascii	"lp\000"
 9689 1900 01       		.byte	0x1
 9690 1901 9A02     		.2byte	0x29a
 9691 1903 FE050000 		.4byte	0x5fe
 9692 1907 F20F0000 		.4byte	.LLST124
 9693 190b 17       		.uleb128 0x17
 9694 190c 7900     		.ascii	"y\000"
 9695 190e 01       		.byte	0x1
 9696 190f 9A02     		.2byte	0x29a
 9697 1911 25000000 		.4byte	0x25
 9698 1915 1E100000 		.4byte	.LLST125
 9699 1919 22       		.uleb128 0x22
 9700 191a 4F070000 		.4byte	.LASF74
 9701 191e 01       		.byte	0x1
 9702 191f 9A02     		.2byte	0x29a
 9703 1921 25000000 		.4byte	0x25
 9704 1925 4C100000 		.4byte	.LLST126
 9705 1929 18       		.uleb128 0x18
 9706 192a 717300   		.ascii	"qs\000"
ARM GAS  C:\Users\user\AppData\Local\Temp\cc6TIdBD.s 			page 201


 9707 192d 01       		.byte	0x1
 9708 192e 9C02     		.2byte	0x29c
 9709 1930 25000000 		.4byte	0x25
 9710 1934 6F100000 		.4byte	.LLST127
 9711 1938 23       		.uleb128 0x23
 9712 1939 0B030000 		.4byte	.LASF75
 9713 193d 01       		.byte	0x1
 9714 193e 9E02     		.2byte	0x29e
 9715 1940 25000000 		.4byte	0x25
 9716 1944 82100000 		.4byte	.LLST128
 9717 1948 24       		.uleb128 0x24
 9718 1949 5D080000 		.4byte	.LASF76
 9719 194d 01       		.byte	0x1
 9720 194e 9F02     		.2byte	0x29f
 9721 1950 E6000000 		.4byte	0xe6
 9722 1954 25       		.uleb128 0x25
 9723 1955 45070000 		.4byte	.LASF77
 9724 1959 01       		.byte	0x1
 9725 195a A102     		.2byte	0x2a1
 9726 195c E5030000 		.4byte	0x3e5
 9727 1960 02       		.uleb128 0x2
 9728 1961 91       		.byte	0x91
 9729 1962 6C       		.sleb128 -20
 9730 1963 25       		.uleb128 0x25
 9731 1964 D1030000 		.4byte	.LASF78
 9732 1968 01       		.byte	0x1
 9733 1969 A402     		.2byte	0x2a4
 9734 196b E5030000 		.4byte	0x3e5
 9735 196f 02       		.uleb128 0x2
 9736 1970 91       		.byte	0x91
 9737 1971 68       		.sleb128 -24
 9738 1972 25       		.uleb128 0x25
 9739 1973 51050000 		.4byte	.LASF79
 9740 1977 01       		.byte	0x1
 9741 1978 A702     		.2byte	0x2a7
 9742 197a E5030000 		.4byte	0x3e5
 9743 197e 02       		.uleb128 0x2
 9744 197f 91       		.byte	0x91
 9745 1980 64       		.sleb128 -28
 9746 1981 1B       		.uleb128 0x1b
 9747 1982 D0040000 		.4byte	0x4d0
 9748 1986 24000000 		.4byte	.LBB338
 9749 198a 2E000000 		.4byte	.LBE338-.LBB338
 9750 198e 01       		.byte	0x1
 9751 198f 9F02     		.2byte	0x29f
 9752 1991 9F190000 		.4byte	0x199f
 9753 1995 1C       		.uleb128 0x1c
 9754 1996 E0040000 		.4byte	0x4e0
 9755 199a 95100000 		.4byte	.LLST129
 9756 199e 00       		.byte	0
 9757 199f 1B       		.uleb128 0x1b
 9758 19a0 D0040000 		.4byte	0x4d0
 9759 19a4 6E000000 		.4byte	.LBB340
 9760 19a8 2E000000 		.4byte	.LBE340-.LBB340
 9761 19ac 01       		.byte	0x1
 9762 19ad A502     		.2byte	0x2a5
 9763 19af BD190000 		.4byte	0x19bd
ARM GAS  C:\Users\user\AppData\Local\Temp\cc6TIdBD.s 			page 202


 9764 19b3 1C       		.uleb128 0x1c
 9765 19b4 E0040000 		.4byte	0x4e0
 9766 19b8 B3100000 		.4byte	.LLST130
 9767 19bc 00       		.byte	0
 9768 19bd 1B       		.uleb128 0x1b
 9769 19be D0040000 		.4byte	0x4d0
 9770 19c2 AC000000 		.4byte	.LBB342
 9771 19c6 2E000000 		.4byte	.LBE342-.LBB342
 9772 19ca 01       		.byte	0x1
 9773 19cb A602     		.2byte	0x2a6
 9774 19cd DB190000 		.4byte	0x19db
 9775 19d1 1C       		.uleb128 0x1c
 9776 19d2 E0040000 		.4byte	0x4e0
 9777 19d6 D1100000 		.4byte	.LLST131
 9778 19da 00       		.byte	0
 9779 19db 1B       		.uleb128 0x1b
 9780 19dc 9C040000 		.4byte	0x49c
 9781 19e0 EA000000 		.4byte	.LBB344
 9782 19e4 10000000 		.4byte	.LBE344-.LBB344
 9783 19e8 01       		.byte	0x1
 9784 19e9 AA02     		.2byte	0x2aa
 9785 19eb F9190000 		.4byte	0x19f9
 9786 19ef 1C       		.uleb128 0x1c
 9787 19f0 AC040000 		.4byte	0x4ac
 9788 19f4 EF100000 		.4byte	.LLST132
 9789 19f8 00       		.byte	0
 9790 19f9 1B       		.uleb128 0x1b
 9791 19fa 9C040000 		.4byte	0x49c
 9792 19fe 06010000 		.4byte	.LBB346
 9793 1a02 10000000 		.4byte	.LBE346-.LBB346
 9794 1a06 01       		.byte	0x1
 9795 1a07 AB02     		.2byte	0x2ab
 9796 1a09 171A0000 		.4byte	0x1a17
 9797 1a0d 1C       		.uleb128 0x1c
 9798 1a0e AC040000 		.4byte	0x4ac
 9799 1a12 03110000 		.4byte	.LLST133
 9800 1a16 00       		.byte	0
 9801 1a17 26       		.uleb128 0x26
 9802 1a18 14000000 		.4byte	.LVL491
 9803 1a1c 63170000 		.4byte	0x1763
 9804 1a20 3B1A0000 		.4byte	0x1a3b
 9805 1a24 1F       		.uleb128 0x1f
 9806 1a25 01       		.uleb128 0x1
 9807 1a26 50       		.byte	0x50
 9808 1a27 02       		.uleb128 0x2
 9809 1a28 74       		.byte	0x74
 9810 1a29 00       		.sleb128 0
 9811 1a2a 1F       		.uleb128 0x1f
 9812 1a2b 01       		.uleb128 0x1
 9813 1a2c 51       		.byte	0x51
 9814 1a2d 03       		.uleb128 0x3
 9815 1a2e 74       		.byte	0x74
 9816 1a2f 8801     		.sleb128 136
 9817 1a31 1F       		.uleb128 0x1f
 9818 1a32 01       		.uleb128 0x1
 9819 1a33 52       		.byte	0x52
 9820 1a34 05       		.uleb128 0x5
ARM GAS  C:\Users\user\AppData\Local\Temp\cc6TIdBD.s 			page 203


 9821 1a35 F3       		.byte	0xf3
 9822 1a36 03       		.uleb128 0x3
 9823 1a37 F5       		.byte	0xf5
 9824 1a38 02       		.uleb128 0x2
 9825 1a39 25       		.uleb128 0x25
 9826 1a3a 00       		.byte	0
 9827 1a3b 26       		.uleb128 0x26
 9828 1a3c 62000000 		.4byte	.LVL500
 9829 1a40 B5300000 		.4byte	0x30b5
 9830 1a44 611A0000 		.4byte	0x1a61
 9831 1a48 1F       		.uleb128 0x1f
 9832 1a49 01       		.uleb128 0x1
 9833 1a4a 50       		.byte	0x50
 9834 1a4b 03       		.uleb128 0x3
 9835 1a4c 74       		.byte	0x74
 9836 1a4d 8602     		.sleb128 262
 9837 1a4f 1F       		.uleb128 0x1f
 9838 1a50 01       		.uleb128 0x1
 9839 1a51 52       		.byte	0x52
 9840 1a52 01       		.uleb128 0x1
 9841 1a53 30       		.byte	0x30
 9842 1a54 1F       		.uleb128 0x1f
 9843 1a55 01       		.uleb128 0x1
 9844 1a56 53       		.byte	0x53
 9845 1a57 02       		.uleb128 0x2
 9846 1a58 91       		.byte	0x91
 9847 1a59 6C       		.sleb128 -20
 9848 1a5a 1F       		.uleb128 0x1f
 9849 1a5b 02       		.uleb128 0x2
 9850 1a5c 7D       		.byte	0x7d
 9851 1a5d 00       		.sleb128 0
 9852 1a5e 01       		.uleb128 0x1
 9853 1a5f 32       		.byte	0x32
 9854 1a60 00       		.byte	0
 9855 1a61 1E       		.uleb128 0x1e
 9856 1a62 EA000000 		.4byte	.LVL515
 9857 1a66 C1300000 		.4byte	0x30c1
 9858 1a6a 1F       		.uleb128 0x1f
 9859 1a6b 01       		.uleb128 0x1
 9860 1a6c 50       		.byte	0x50
 9861 1a6d 02       		.uleb128 0x2
 9862 1a6e 91       		.byte	0x91
 9863 1a6f 68       		.sleb128 -24
 9864 1a70 1F       		.uleb128 0x1f
 9865 1a71 01       		.uleb128 0x1
 9866 1a72 51       		.byte	0x51
 9867 1a73 02       		.uleb128 0x2
 9868 1a74 91       		.byte	0x91
 9869 1a75 6C       		.sleb128 -20
 9870 1a76 1F       		.uleb128 0x1f
 9871 1a77 01       		.uleb128 0x1
 9872 1a78 52       		.byte	0x52
 9873 1a79 02       		.uleb128 0x2
 9874 1a7a 91       		.byte	0x91
 9875 1a7b 64       		.sleb128 -28
 9876 1a7c 1F       		.uleb128 0x1f
 9877 1a7d 01       		.uleb128 0x1
ARM GAS  C:\Users\user\AppData\Local\Temp\cc6TIdBD.s 			page 204


 9878 1a7e 53       		.byte	0x53
 9879 1a7f 01       		.uleb128 0x1
 9880 1a80 32       		.byte	0x32
 9881 1a81 00       		.byte	0
 9882 1a82 00       		.byte	0
 9883 1a83 21       		.uleb128 0x21
 9884 1a84 2A080000 		.4byte	.LASF96
 9885 1a88 01       		.byte	0x1
 9886 1a89 5A02     		.2byte	0x25a
 9887 1a8b 00000000 		.4byte	.LFB151
 9888 1a8f 94010000 		.4byte	.LFE151-.LFB151
 9889 1a93 01       		.uleb128 0x1
 9890 1a94 9C       		.byte	0x9c
 9891 1a95 A81C0000 		.4byte	0x1ca8
 9892 1a99 17       		.uleb128 0x17
 9893 1a9a 6C7000   		.ascii	"lp\000"
 9894 1a9d 01       		.byte	0x1
 9895 1a9e 5A02     		.2byte	0x25a
 9896 1aa0 FE050000 		.4byte	0x5fe
 9897 1aa4 17110000 		.4byte	.LLST134
 9898 1aa8 17       		.uleb128 0x17
 9899 1aa9 7800     		.ascii	"x\000"
 9900 1aab 01       		.byte	0x1
 9901 1aac 5A02     		.2byte	0x25a
 9902 1aae 53070000 		.4byte	0x753
 9903 1ab2 43110000 		.4byte	.LLST135
 9904 1ab6 17       		.uleb128 0x17
 9905 1ab7 7500     		.ascii	"u\000"
 9906 1ab9 01       		.byte	0x1
 9907 1aba 5A02     		.2byte	0x25a
 9908 1abc 25000000 		.4byte	0x25
 9909 1ac0 6F110000 		.4byte	.LLST136
 9910 1ac4 17       		.uleb128 0x17
 9911 1ac5 7A00     		.ascii	"z\000"
 9912 1ac7 01       		.byte	0x1
 9913 1ac8 5A02     		.2byte	0x25a
 9914 1aca 21050000 		.4byte	0x521
 9915 1ace 9D110000 		.4byte	.LLST137
 9916 1ad2 18       		.uleb128 0x18
 9917 1ad3 717300   		.ascii	"qs\000"
 9918 1ad6 01       		.byte	0x1
 9919 1ad7 5C02     		.2byte	0x25c
 9920 1ad9 25000000 		.4byte	0x25
 9921 1add C9110000 		.4byte	.LLST138
 9922 1ae1 19       		.uleb128 0x19
 9923 1ae2 787100   		.ascii	"xq\000"
 9924 1ae5 01       		.byte	0x1
 9925 1ae6 5D02     		.2byte	0x25d
 9926 1ae8 E5030000 		.4byte	0x3e5
 9927 1aec 02       		.uleb128 0x2
 9928 1aed 91       		.byte	0x91
 9929 1aee 5C       		.sleb128 -36
 9930 1aef 19       		.uleb128 0x19
 9931 1af0 42757100 		.ascii	"Buq\000"
 9932 1af4 01       		.byte	0x1
 9933 1af5 5D02     		.2byte	0x25d
 9934 1af7 E5030000 		.4byte	0x3e5
ARM GAS  C:\Users\user\AppData\Local\Temp\cc6TIdBD.s 			page 205


 9935 1afb 02       		.uleb128 0x2
 9936 1afc 91       		.byte	0x91
 9937 1afd 58       		.sleb128 -40
 9938 1afe 25       		.uleb128 0x25
 9939 1aff 4D010000 		.4byte	.LASF94
 9940 1b03 01       		.byte	0x1
 9941 1b04 5E02     		.2byte	0x25e
 9942 1b06 FE000000 		.4byte	0xfe
 9943 1b0a 02       		.uleb128 0x2
 9944 1b0b 91       		.byte	0x91
 9945 1b0c 54       		.sleb128 -44
 9946 1b0d 1A       		.uleb128 0x1a
 9947 1b0e 757100   		.ascii	"uq\000"
 9948 1b11 01       		.byte	0x1
 9949 1b12 6202     		.2byte	0x262
 9950 1b14 E6000000 		.4byte	0xe6
 9951 1b18 1A       		.uleb128 0x1a
 9952 1b19 41783000 		.ascii	"Ax0\000"
 9953 1b1d 01       		.byte	0x1
 9954 1b1e 6802     		.2byte	0x268
 9955 1b20 E6000000 		.4byte	0xe6
 9956 1b24 1A       		.uleb128 0x1a
 9957 1b25 41783100 		.ascii	"Ax1\000"
 9958 1b29 01       		.byte	0x1
 9959 1b2a 6C02     		.2byte	0x26c
 9960 1b2c E6000000 		.4byte	0xe6
 9961 1b30 1B       		.uleb128 0x1b
 9962 1b31 D0040000 		.4byte	0x4d0
 9963 1b35 1C000000 		.4byte	.LBB348
 9964 1b39 2E000000 		.4byte	.LBE348-.LBB348
 9965 1b3d 01       		.byte	0x1
 9966 1b3e 6002     		.2byte	0x260
 9967 1b40 4E1B0000 		.4byte	0x1b4e
 9968 1b44 1C       		.uleb128 0x1c
 9969 1b45 E0040000 		.4byte	0x4e0
 9970 1b49 DC110000 		.4byte	.LLST139
 9971 1b4d 00       		.byte	0
 9972 1b4e 1B       		.uleb128 0x1b
 9973 1b4f D0040000 		.4byte	0x4d0
 9974 1b53 58000000 		.4byte	.LBB350
 9975 1b57 2E000000 		.4byte	.LBE350-.LBB350
 9976 1b5b 01       		.byte	0x1
 9977 1b5c 6102     		.2byte	0x261
 9978 1b5e 6C1B0000 		.4byte	0x1b6c
 9979 1b62 1C       		.uleb128 0x1c
 9980 1b63 E0040000 		.4byte	0x4e0
 9981 1b67 FA110000 		.4byte	.LLST140
 9982 1b6b 00       		.byte	0
 9983 1b6c 1B       		.uleb128 0x1b
 9984 1b6d D0040000 		.4byte	0x4d0
 9985 1b71 94000000 		.4byte	.LBB352
 9986 1b75 2E000000 		.4byte	.LBE352-.LBB352
 9987 1b79 01       		.byte	0x1
 9988 1b7a 6202     		.2byte	0x262
 9989 1b7c 8A1B0000 		.4byte	0x1b8a
 9990 1b80 1C       		.uleb128 0x1c
 9991 1b81 E0040000 		.4byte	0x4e0
ARM GAS  C:\Users\user\AppData\Local\Temp\cc6TIdBD.s 			page 206


 9992 1b85 18120000 		.4byte	.LLST141
 9993 1b89 00       		.byte	0
 9994 1b8a 1B       		.uleb128 0x1b
 9995 1b8b B6040000 		.4byte	0x4b6
 9996 1b8f E6000000 		.4byte	.LBB354
 9997 1b93 16000000 		.4byte	.LBE354-.LBB354
 9998 1b97 01       		.byte	0x1
 9999 1b98 6802     		.2byte	0x268
 10000 1b9a A81B0000 		.4byte	0x1ba8
 10001 1b9e 1C       		.uleb128 0x1c
 10002 1b9f C6040000 		.4byte	0x4c6
 10003 1ba3 36120000 		.4byte	.LLST142
 10004 1ba7 00       		.byte	0
 10005 1ba8 1B       		.uleb128 0x1b
 10006 1ba9 B6040000 		.4byte	0x4b6
 10007 1bad 02010000 		.4byte	.LBB356
 10008 1bb1 16000000 		.4byte	.LBE356-.LBB356
 10009 1bb5 01       		.byte	0x1
 10010 1bb6 6902     		.2byte	0x269
 10011 1bb8 C61B0000 		.4byte	0x1bc6
 10012 1bbc 1C       		.uleb128 0x1c
 10013 1bbd C6040000 		.4byte	0x4c6
 10014 1bc1 49120000 		.4byte	.LLST143
 10015 1bc5 00       		.byte	0
 10016 1bc6 1B       		.uleb128 0x1b
 10017 1bc7 9C040000 		.4byte	0x49c
 10018 1bcb 18010000 		.4byte	.LBB358
 10019 1bcf 0C000000 		.4byte	.LBE358-.LBB358
 10020 1bd3 01       		.byte	0x1
 10021 1bd4 6902     		.2byte	0x269
 10022 1bd6 E01B0000 		.4byte	0x1be0
 10023 1bda 1D       		.uleb128 0x1d
 10024 1bdb AC040000 		.4byte	0x4ac
 10025 1bdf 00       		.byte	0
 10026 1be0 1B       		.uleb128 0x1b
 10027 1be1 B6040000 		.4byte	0x4b6
 10028 1be5 42010000 		.4byte	.LBB360
 10029 1be9 16000000 		.4byte	.LBE360-.LBB360
 10030 1bed 01       		.byte	0x1
 10031 1bee 6C02     		.2byte	0x26c
 10032 1bf0 FE1B0000 		.4byte	0x1bfe
 10033 1bf4 1C       		.uleb128 0x1c
 10034 1bf5 C6040000 		.4byte	0x4c6
 10035 1bf9 5C120000 		.4byte	.LLST144
 10036 1bfd 00       		.byte	0
 10037 1bfe 1B       		.uleb128 0x1b
 10038 1bff B6040000 		.4byte	0x4b6
 10039 1c03 5E010000 		.4byte	.LBB362
 10040 1c07 16000000 		.4byte	.LBE362-.LBB362
 10041 1c0b 01       		.byte	0x1
 10042 1c0c 6D02     		.2byte	0x26d
 10043 1c0e 1C1C0000 		.4byte	0x1c1c
 10044 1c12 1C       		.uleb128 0x1c
 10045 1c13 C6040000 		.4byte	0x4c6
 10046 1c17 6F120000 		.4byte	.LLST145
 10047 1c1b 00       		.byte	0
 10048 1c1c 1B       		.uleb128 0x1b
ARM GAS  C:\Users\user\AppData\Local\Temp\cc6TIdBD.s 			page 207


 10049 1c1d 9C040000 		.4byte	0x49c
 10050 1c21 74010000 		.4byte	.LBB364
 10051 1c25 0C000000 		.4byte	.LBE364-.LBB364
 10052 1c29 01       		.byte	0x1
 10053 1c2a 6D02     		.2byte	0x26d
 10054 1c2c 361C0000 		.4byte	0x1c36
 10055 1c30 1D       		.uleb128 0x1d
 10056 1c31 AC040000 		.4byte	0x4ac
 10057 1c35 00       		.byte	0
 10058 1c36 26       		.uleb128 0x26
 10059 1c37 D2000000 		.4byte	.LVL549
 10060 1c3b B5300000 		.4byte	0x30b5
 10061 1c3f 5D1C0000 		.4byte	0x1c5d
 10062 1c43 1F       		.uleb128 0x1f
 10063 1c44 01       		.uleb128 0x1
 10064 1c45 50       		.byte	0x50
 10065 1c46 03       		.uleb128 0x3
 10066 1c47 76       		.byte	0x76
 10067 1c48 8002     		.sleb128 256
 10068 1c4a 1F       		.uleb128 0x1f
 10069 1c4b 01       		.uleb128 0x1
 10070 1c4c 52       		.byte	0x52
 10071 1c4d 01       		.uleb128 0x1
 10072 1c4e 30       		.byte	0x30
 10073 1c4f 1F       		.uleb128 0x1f
 10074 1c50 01       		.uleb128 0x1
 10075 1c51 53       		.byte	0x53
 10076 1c52 02       		.uleb128 0x2
 10077 1c53 91       		.byte	0x91
 10078 1c54 58       		.sleb128 -40
 10079 1c55 1F       		.uleb128 0x1f
 10080 1c56 02       		.uleb128 0x2
 10081 1c57 7D       		.byte	0x7d
 10082 1c58 00       		.sleb128 0
 10083 1c59 02       		.uleb128 0x2
 10084 1c5a 77       		.byte	0x77
 10085 1c5b 00       		.sleb128 0
 10086 1c5c 00       		.byte	0
 10087 1c5d 26       		.uleb128 0x26
 10088 1c5e E0000000 		.4byte	.LVL550
 10089 1c62 A9300000 		.4byte	0x30a9
 10090 1c66 841C0000 		.4byte	0x1c84
 10091 1c6a 1F       		.uleb128 0x1f
 10092 1c6b 01       		.uleb128 0x1
 10093 1c6c 50       		.byte	0x50
 10094 1c6d 03       		.uleb128 0x3
 10095 1c6e 76       		.byte	0x76
 10096 1c6f FC01     		.sleb128 252
 10097 1c71 1F       		.uleb128 0x1f
 10098 1c72 01       		.uleb128 0x1
 10099 1c73 51       		.byte	0x51
 10100 1c74 02       		.uleb128 0x2
 10101 1c75 91       		.byte	0x91
 10102 1c76 5C       		.sleb128 -36
 10103 1c77 1F       		.uleb128 0x1f
 10104 1c78 01       		.uleb128 0x1
 10105 1c79 52       		.byte	0x52
ARM GAS  C:\Users\user\AppData\Local\Temp\cc6TIdBD.s 			page 208


 10106 1c7a 02       		.uleb128 0x2
 10107 1c7b 77       		.byte	0x77
 10108 1c7c 00       		.sleb128 0
 10109 1c7d 1F       		.uleb128 0x1f
 10110 1c7e 01       		.uleb128 0x1
 10111 1c7f 53       		.byte	0x53
 10112 1c80 02       		.uleb128 0x2
 10113 1c81 91       		.byte	0x91
 10114 1c82 54       		.sleb128 -44
 10115 1c83 00       		.byte	0
 10116 1c84 1E       		.uleb128 0x1e
 10117 1c85 3C010000 		.4byte	.LVL558
 10118 1c89 A9300000 		.4byte	0x30a9
 10119 1c8d 1F       		.uleb128 0x1f
 10120 1c8e 01       		.uleb128 0x1
 10121 1c8f 50       		.byte	0x50
 10122 1c90 03       		.uleb128 0x3
 10123 1c91 76       		.byte	0x76
 10124 1c92 FE01     		.sleb128 254
 10125 1c94 1F       		.uleb128 0x1f
 10126 1c95 01       		.uleb128 0x1
 10127 1c96 51       		.byte	0x51
 10128 1c97 02       		.uleb128 0x2
 10129 1c98 91       		.byte	0x91
 10130 1c99 5C       		.sleb128 -36
 10131 1c9a 1F       		.uleb128 0x1f
 10132 1c9b 01       		.uleb128 0x1
 10133 1c9c 52       		.byte	0x52
 10134 1c9d 02       		.uleb128 0x2
 10135 1c9e 77       		.byte	0x77
 10136 1c9f 00       		.sleb128 0
 10137 1ca0 1F       		.uleb128 0x1f
 10138 1ca1 01       		.uleb128 0x1
 10139 1ca2 53       		.byte	0x53
 10140 1ca3 02       		.uleb128 0x2
 10141 1ca4 91       		.byte	0x91
 10142 1ca5 54       		.sleb128 -44
 10143 1ca6 00       		.byte	0
 10144 1ca7 00       		.byte	0
 10145 1ca8 21       		.uleb128 0x21
 10146 1ca9 23050000 		.4byte	.LASF97
 10147 1cad 01       		.byte	0x1
 10148 1cae 8302     		.2byte	0x283
 10149 1cb0 00000000 		.4byte	.LFB153
 10150 1cb4 40010000 		.4byte	.LFE153-.LFB153
 10151 1cb8 01       		.uleb128 0x1
 10152 1cb9 9C       		.byte	0x9c
 10153 1cba 8D1E0000 		.4byte	0x1e8d
 10154 1cbe 17       		.uleb128 0x17
 10155 1cbf 6C7000   		.ascii	"lp\000"
 10156 1cc2 01       		.byte	0x1
 10157 1cc3 8302     		.2byte	0x283
 10158 1cc5 FE050000 		.4byte	0x5fe
 10159 1cc9 82120000 		.4byte	.LLST146
 10160 1ccd 17       		.uleb128 0x17
 10161 1cce 7900     		.ascii	"y\000"
 10162 1cd0 01       		.byte	0x1
ARM GAS  C:\Users\user\AppData\Local\Temp\cc6TIdBD.s 			page 209


 10163 1cd1 8302     		.2byte	0x283
 10164 1cd3 25000000 		.4byte	0x25
 10165 1cd7 AE120000 		.4byte	.LLST147
 10166 1cdb 22       		.uleb128 0x22
 10167 1cdc 4F070000 		.4byte	.LASF74
 10168 1ce0 01       		.byte	0x1
 10169 1ce1 8302     		.2byte	0x283
 10170 1ce3 25000000 		.4byte	0x25
 10171 1ce7 DC120000 		.4byte	.LLST148
 10172 1ceb 17       		.uleb128 0x17
 10173 1cec 755F6B00 		.ascii	"u_k\000"
 10174 1cf0 01       		.byte	0x1
 10175 1cf1 8302     		.2byte	0x283
 10176 1cf3 25000000 		.4byte	0x25
 10177 1cf7 FF120000 		.4byte	.LLST149
 10178 1cfb 18       		.uleb128 0x18
 10179 1cfc 717300   		.ascii	"qs\000"
 10180 1cff 01       		.byte	0x1
 10181 1d00 8502     		.2byte	0x285
 10182 1d02 25000000 		.4byte	0x25
 10183 1d06 2D130000 		.4byte	.LLST150
 10184 1d0a 23       		.uleb128 0x23
 10185 1d0b 0B030000 		.4byte	.LASF75
 10186 1d0f 01       		.byte	0x1
 10187 1d10 8702     		.2byte	0x287
 10188 1d12 25000000 		.4byte	0x25
 10189 1d16 40130000 		.4byte	.LLST151
 10190 1d1a 24       		.uleb128 0x24
 10191 1d1b 5D080000 		.4byte	.LASF76
 10192 1d1f 01       		.byte	0x1
 10193 1d20 8802     		.2byte	0x288
 10194 1d22 E6000000 		.4byte	0xe6
 10195 1d26 19       		.uleb128 0x19
 10196 1d27 7A00     		.ascii	"z\000"
 10197 1d29 01       		.byte	0x1
 10198 1d2a 8A02     		.2byte	0x28a
 10199 1d2c 85030000 		.4byte	0x385
 10200 1d30 02       		.uleb128 0x2
 10201 1d31 91       		.byte	0x91
 10202 1d32 60       		.sleb128 -32
 10203 1d33 25       		.uleb128 0x25
 10204 1d34 45070000 		.4byte	.LASF77
 10205 1d38 01       		.byte	0x1
 10206 1d39 8D02     		.2byte	0x28d
 10207 1d3b E5030000 		.4byte	0x3e5
 10208 1d3f 02       		.uleb128 0x2
 10209 1d40 91       		.byte	0x91
 10210 1d41 5C       		.sleb128 -36
 10211 1d42 19       		.uleb128 0x19
 10212 1d43 7A7100   		.ascii	"zq\000"
 10213 1d46 01       		.byte	0x1
 10214 1d47 9002     		.2byte	0x290
 10215 1d49 E5030000 		.4byte	0x3e5
 10216 1d4d 02       		.uleb128 0x2
 10217 1d4e 91       		.byte	0x91
 10218 1d4f 58       		.sleb128 -40
 10219 1d50 25       		.uleb128 0x25
ARM GAS  C:\Users\user\AppData\Local\Temp\cc6TIdBD.s 			page 210


 10220 1d51 51050000 		.4byte	.LASF79
 10221 1d55 01       		.byte	0x1
 10222 1d56 9302     		.2byte	0x293
 10223 1d58 E5030000 		.4byte	0x3e5
 10224 1d5c 02       		.uleb128 0x2
 10225 1d5d 91       		.byte	0x91
 10226 1d5e 54       		.sleb128 -44
 10227 1d5f 1B       		.uleb128 0x1b
 10228 1d60 D0040000 		.4byte	0x4d0
 10229 1d64 2A000000 		.4byte	.LBB366
 10230 1d68 32000000 		.4byte	.LBE366-.LBB366
 10231 1d6c 01       		.byte	0x1
 10232 1d6d 8802     		.2byte	0x288
 10233 1d6f 7D1D0000 		.4byte	0x1d7d
 10234 1d73 1C       		.uleb128 0x1c
 10235 1d74 E0040000 		.4byte	0x4e0
 10236 1d78 53130000 		.4byte	.LLST152
 10237 1d7c 00       		.byte	0
 10238 1d7d 1B       		.uleb128 0x1b
 10239 1d7e D0040000 		.4byte	0x4d0
 10240 1d82 84000000 		.4byte	.LBB368
 10241 1d86 2E000000 		.4byte	.LBE368-.LBB368
 10242 1d8a 01       		.byte	0x1
 10243 1d8b 9102     		.2byte	0x291
 10244 1d8d 9B1D0000 		.4byte	0x1d9b
 10245 1d91 1C       		.uleb128 0x1c
 10246 1d92 E0040000 		.4byte	0x4e0
 10247 1d96 87130000 		.4byte	.LLST153
 10248 1d9a 00       		.byte	0
 10249 1d9b 1B       		.uleb128 0x1b
 10250 1d9c D0040000 		.4byte	0x4d0
 10251 1da0 C0000000 		.4byte	.LBB370
 10252 1da4 2E000000 		.4byte	.LBE370-.LBB370
 10253 1da8 01       		.byte	0x1
 10254 1da9 9202     		.2byte	0x292
 10255 1dab B91D0000 		.4byte	0x1db9
 10256 1daf 1C       		.uleb128 0x1c
 10257 1db0 E0040000 		.4byte	0x4e0
 10258 1db4 A5130000 		.4byte	.LLST154
 10259 1db8 00       		.byte	0
 10260 1db9 1B       		.uleb128 0x1b
 10261 1dba 9C040000 		.4byte	0x49c
 10262 1dbe FE000000 		.4byte	.LBB372
 10263 1dc2 10000000 		.4byte	.LBE372-.LBB372
 10264 1dc6 01       		.byte	0x1
 10265 1dc7 9602     		.2byte	0x296
 10266 1dc9 D71D0000 		.4byte	0x1dd7
 10267 1dcd 1C       		.uleb128 0x1c
 10268 1dce AC040000 		.4byte	0x4ac
 10269 1dd2 C3130000 		.4byte	.LLST155
 10270 1dd6 00       		.byte	0
 10271 1dd7 1B       		.uleb128 0x1b
 10272 1dd8 9C040000 		.4byte	0x49c
 10273 1ddc 1A010000 		.4byte	.LBB374
 10274 1de0 10000000 		.4byte	.LBE374-.LBB374
 10275 1de4 01       		.byte	0x1
 10276 1de5 9702     		.2byte	0x297
ARM GAS  C:\Users\user\AppData\Local\Temp\cc6TIdBD.s 			page 211


 10277 1de7 F51D0000 		.4byte	0x1df5
 10278 1deb 1C       		.uleb128 0x1c
 10279 1dec AC040000 		.4byte	0x4ac
 10280 1df0 D7130000 		.4byte	.LLST156
 10281 1df4 00       		.byte	0
 10282 1df5 26       		.uleb128 0x26
 10283 1df6 1A000000 		.4byte	.LVL570
 10284 1dfa 63170000 		.4byte	0x1763
 10285 1dfe 181E0000 		.4byte	0x1e18
 10286 1e02 1F       		.uleb128 0x1f
 10287 1e03 01       		.uleb128 0x1
 10288 1e04 50       		.byte	0x50
 10289 1e05 02       		.uleb128 0x2
 10290 1e06 74       		.byte	0x74
 10291 1e07 00       		.sleb128 0
 10292 1e08 1F       		.uleb128 0x1f
 10293 1e09 01       		.uleb128 0x1
 10294 1e0a 51       		.byte	0x51
 10295 1e0b 02       		.uleb128 0x2
 10296 1e0c 76       		.byte	0x76
 10297 1e0d 00       		.sleb128 0
 10298 1e0e 1F       		.uleb128 0x1f
 10299 1e0f 01       		.uleb128 0x1
 10300 1e10 52       		.byte	0x52
 10301 1e11 05       		.uleb128 0x5
 10302 1e12 F3       		.byte	0xf3
 10303 1e13 03       		.uleb128 0x3
 10304 1e14 F5       		.byte	0xf5
 10305 1e15 02       		.uleb128 0x2
 10306 1e16 25       		.uleb128 0x25
 10307 1e17 00       		.byte	0
 10308 1e18 26       		.uleb128 0x26
 10309 1e19 68000000 		.4byte	.LVL583
 10310 1e1d 831A0000 		.4byte	0x1a83
 10311 1e21 3F1E0000 		.4byte	0x1e3f
 10312 1e25 1F       		.uleb128 0x1f
 10313 1e26 01       		.uleb128 0x1
 10314 1e27 50       		.byte	0x50
 10315 1e28 02       		.uleb128 0x2
 10316 1e29 74       		.byte	0x74
 10317 1e2a 00       		.sleb128 0
 10318 1e2b 1F       		.uleb128 0x1f
 10319 1e2c 01       		.uleb128 0x1
 10320 1e2d 51       		.byte	0x51
 10321 1e2e 02       		.uleb128 0x2
 10322 1e2f 76       		.byte	0x76
 10323 1e30 00       		.sleb128 0
 10324 1e31 1F       		.uleb128 0x1f
 10325 1e32 01       		.uleb128 0x1
 10326 1e33 52       		.byte	0x52
 10327 1e34 03       		.uleb128 0x3
 10328 1e35 F5       		.byte	0xf5
 10329 1e36 07       		.uleb128 0x7
 10330 1e37 25       		.uleb128 0x25
 10331 1e38 1F       		.uleb128 0x1f
 10332 1e39 01       		.uleb128 0x1
 10333 1e3a 53       		.byte	0x53
ARM GAS  C:\Users\user\AppData\Local\Temp\cc6TIdBD.s 			page 212


 10334 1e3b 02       		.uleb128 0x2
 10335 1e3c 91       		.byte	0x91
 10336 1e3d 60       		.sleb128 -32
 10337 1e3e 00       		.byte	0
 10338 1e3f 26       		.uleb128 0x26
 10339 1e40 7A000000 		.4byte	.LVL584
 10340 1e44 B5300000 		.4byte	0x30b5
 10341 1e48 6B1E0000 		.4byte	0x1e6b
 10342 1e4c 1F       		.uleb128 0x1f
 10343 1e4d 01       		.uleb128 0x1
 10344 1e4e 50       		.byte	0x50
 10345 1e4f 03       		.uleb128 0x3
 10346 1e50 74       		.byte	0x74
 10347 1e51 8602     		.sleb128 262
 10348 1e53 1F       		.uleb128 0x1f
 10349 1e54 01       		.uleb128 0x1
 10350 1e55 51       		.byte	0x51
 10351 1e56 02       		.uleb128 0x2
 10352 1e57 78       		.byte	0x78
 10353 1e58 00       		.sleb128 0
 10354 1e59 1F       		.uleb128 0x1f
 10355 1e5a 01       		.uleb128 0x1
 10356 1e5b 52       		.byte	0x52
 10357 1e5c 01       		.uleb128 0x1
 10358 1e5d 30       		.byte	0x30
 10359 1e5e 1F       		.uleb128 0x1f
 10360 1e5f 01       		.uleb128 0x1
 10361 1e60 53       		.byte	0x53
 10362 1e61 02       		.uleb128 0x2
 10363 1e62 91       		.byte	0x91
 10364 1e63 5C       		.sleb128 -36
 10365 1e64 1F       		.uleb128 0x1f
 10366 1e65 02       		.uleb128 0x2
 10367 1e66 7D       		.byte	0x7d
 10368 1e67 00       		.sleb128 0
 10369 1e68 01       		.uleb128 0x1
 10370 1e69 32       		.byte	0x32
 10371 1e6a 00       		.byte	0
 10372 1e6b 1E       		.uleb128 0x1e
 10373 1e6c FE000000 		.4byte	.LVL599
 10374 1e70 C1300000 		.4byte	0x30c1
 10375 1e74 1F       		.uleb128 0x1f
 10376 1e75 01       		.uleb128 0x1
 10377 1e76 50       		.byte	0x50
 10378 1e77 02       		.uleb128 0x2
 10379 1e78 91       		.byte	0x91
 10380 1e79 58       		.sleb128 -40
 10381 1e7a 1F       		.uleb128 0x1f
 10382 1e7b 01       		.uleb128 0x1
 10383 1e7c 51       		.byte	0x51
 10384 1e7d 02       		.uleb128 0x2
 10385 1e7e 91       		.byte	0x91
 10386 1e7f 5C       		.sleb128 -36
 10387 1e80 1F       		.uleb128 0x1f
 10388 1e81 01       		.uleb128 0x1
 10389 1e82 52       		.byte	0x52
 10390 1e83 02       		.uleb128 0x2
ARM GAS  C:\Users\user\AppData\Local\Temp\cc6TIdBD.s 			page 213


 10391 1e84 91       		.byte	0x91
 10392 1e85 54       		.sleb128 -44
 10393 1e86 1F       		.uleb128 0x1f
 10394 1e87 01       		.uleb128 0x1
 10395 1e88 53       		.byte	0x53
 10396 1e89 01       		.uleb128 0x1
 10397 1e8a 32       		.byte	0x32
 10398 1e8b 00       		.byte	0
 10399 1e8c 00       		.byte	0
 10400 1e8d 27       		.uleb128 0x27
 10401 1e8e 00000000 		.4byte	.LASF98
 10402 1e92 01       		.byte	0x1
 10403 1e93 AE02     		.2byte	0x2ae
 10404 1e95 00000000 		.4byte	.LFB155
 10405 1e99 12000000 		.4byte	.LFE155-.LFB155
 10406 1e9d 01       		.uleb128 0x1
 10407 1e9e 9C       		.byte	0x9c
 10408 1e9f F11E0000 		.4byte	0x1ef1
 10409 1ea3 17       		.uleb128 0x17
 10410 1ea4 6C7000   		.ascii	"lp\000"
 10411 1ea7 01       		.byte	0x1
 10412 1ea8 AE02     		.2byte	0x2ae
 10413 1eaa FE050000 		.4byte	0x5fe
 10414 1eae EB130000 		.4byte	.LLST157
 10415 1eb2 17       		.uleb128 0x17
 10416 1eb3 755F6B00 		.ascii	"u_k\000"
 10417 1eb7 01       		.byte	0x1
 10418 1eb8 AE02     		.2byte	0x2ae
 10419 1eba 25000000 		.4byte	0x25
 10420 1ebe 0C140000 		.4byte	.LLST158
 10421 1ec2 1E       		.uleb128 0x1e
 10422 1ec3 10000000 		.4byte	.LVL610
 10423 1ec7 831A0000 		.4byte	0x1a83
 10424 1ecb 1F       		.uleb128 0x1f
 10425 1ecc 01       		.uleb128 0x1
 10426 1ecd 50       		.byte	0x50
 10427 1ece 03       		.uleb128 0x3
 10428 1ecf F3       		.byte	0xf3
 10429 1ed0 01       		.uleb128 0x1
 10430 1ed1 50       		.byte	0x50
 10431 1ed2 1F       		.uleb128 0x1f
 10432 1ed3 01       		.uleb128 0x1
 10433 1ed4 51       		.byte	0x51
 10434 1ed5 06       		.uleb128 0x6
 10435 1ed6 F3       		.byte	0xf3
 10436 1ed7 01       		.uleb128 0x1
 10437 1ed8 50       		.byte	0x50
 10438 1ed9 23       		.byte	0x23
 10439 1eda 8001     		.uleb128 0x80
 10440 1edc 1F       		.uleb128 0x1f
 10441 1edd 01       		.uleb128 0x1
 10442 1ede 52       		.byte	0x52
 10443 1edf 05       		.uleb128 0x5
 10444 1ee0 F3       		.byte	0xf3
 10445 1ee1 03       		.uleb128 0x3
 10446 1ee2 F5       		.byte	0xf5
 10447 1ee3 01       		.uleb128 0x1
ARM GAS  C:\Users\user\AppData\Local\Temp\cc6TIdBD.s 			page 214


 10448 1ee4 25       		.uleb128 0x25
 10449 1ee5 1F       		.uleb128 0x1f
 10450 1ee6 01       		.uleb128 0x1
 10451 1ee7 53       		.byte	0x53
 10452 1ee8 06       		.uleb128 0x6
 10453 1ee9 F3       		.byte	0xf3
 10454 1eea 01       		.uleb128 0x1
 10455 1eeb 50       		.byte	0x50
 10456 1eec 23       		.byte	0x23
 10457 1eed 8801     		.uleb128 0x88
 10458 1eef 00       		.byte	0
 10459 1ef0 00       		.byte	0
 10460 1ef1 16       		.uleb128 0x16
 10461 1ef2 C9040000 		.4byte	.LASF99
 10462 1ef6 01       		.byte	0x1
 10463 1ef7 7002     		.2byte	0x270
 10464 1ef9 25000000 		.4byte	0x25
 10465 1efd 00000000 		.4byte	.LFB152
 10466 1f01 38010000 		.4byte	.LFE152-.LFB152
 10467 1f05 01       		.uleb128 0x1
 10468 1f06 9C       		.byte	0x9c
 10469 1f07 4E200000 		.4byte	0x204e
 10470 1f0b 17       		.uleb128 0x17
 10471 1f0c 6C7000   		.ascii	"lp\000"
 10472 1f0f 01       		.byte	0x1
 10473 1f10 7002     		.2byte	0x270
 10474 1f12 FE050000 		.4byte	0x5fe
 10475 1f16 3A140000 		.4byte	.LLST159
 10476 1f1a 18       		.uleb128 0x18
 10477 1f1b 717300   		.ascii	"qs\000"
 10478 1f1e 01       		.byte	0x1
 10479 1f1f 7202     		.2byte	0x272
 10480 1f21 25000000 		.4byte	0x25
 10481 1f25 66140000 		.4byte	.LLST160
 10482 1f29 25       		.uleb128 0x25
 10483 1f2a 51050000 		.4byte	.LASF79
 10484 1f2e 01       		.byte	0x1
 10485 1f2f 7302     		.2byte	0x273
 10486 1f31 E5030000 		.4byte	0x3e5
 10487 1f35 02       		.uleb128 0x2
 10488 1f36 91       		.byte	0x91
 10489 1f37 6C       		.sleb128 -20
 10490 1f38 25       		.uleb128 0x25
 10491 1f39 4D010000 		.4byte	.LASF94
 10492 1f3d 01       		.byte	0x1
 10493 1f3e 7402     		.2byte	0x274
 10494 1f40 FE000000 		.4byte	0xfe
 10495 1f44 02       		.uleb128 0x2
 10496 1f45 91       		.byte	0x91
 10497 1f46 68       		.sleb128 -24
 10498 1f47 1A       		.uleb128 0x1a
 10499 1f48 6B7800   		.ascii	"kx\000"
 10500 1f4b 01       		.byte	0x1
 10501 1f4c 7A02     		.2byte	0x27a
 10502 1f4e E6000000 		.4byte	0xe6
 10503 1f52 23       		.uleb128 0x23
 10504 1f53 9A020000 		.4byte	.LASF85
ARM GAS  C:\Users\user\AppData\Local\Temp\cc6TIdBD.s 			page 215


 10505 1f57 01       		.byte	0x1
 10506 1f58 7C02     		.2byte	0x27c
 10507 1f5a 25000000 		.4byte	0x25
 10508 1f5e 79140000 		.4byte	.LLST161
 10509 1f62 24       		.uleb128 0x24
 10510 1f63 C9020000 		.4byte	.LASF86
 10511 1f67 01       		.byte	0x1
 10512 1f68 7E02     		.2byte	0x27e
 10513 1f6a E6000000 		.4byte	0xe6
 10514 1f6e 1B       		.uleb128 0x1b
 10515 1f6f D0040000 		.4byte	0x4d0
 10516 1f73 16000000 		.4byte	.LBB376
 10517 1f77 2E000000 		.4byte	.LBE376-.LBB376
 10518 1f7b 01       		.byte	0x1
 10519 1f7c 7602     		.2byte	0x276
 10520 1f7e 8C1F0000 		.4byte	0x1f8c
 10521 1f82 1C       		.uleb128 0x1c
 10522 1f83 E0040000 		.4byte	0x4e0
 10523 1f87 8C140000 		.4byte	.LLST162
 10524 1f8b 00       		.byte	0
 10525 1f8c 1B       		.uleb128 0x1b
 10526 1f8d D0040000 		.4byte	0x4d0
 10527 1f91 54000000 		.4byte	.LBB378
 10528 1f95 2E000000 		.4byte	.LBE378-.LBB378
 10529 1f99 01       		.byte	0x1
 10530 1f9a 7702     		.2byte	0x277
 10531 1f9c AA1F0000 		.4byte	0x1faa
 10532 1fa0 1C       		.uleb128 0x1c
 10533 1fa1 E0040000 		.4byte	0x4e0
 10534 1fa5 AA140000 		.4byte	.LLST163
 10535 1fa9 00       		.byte	0
 10536 1faa 1B       		.uleb128 0x1b
 10537 1fab B6040000 		.4byte	0x4b6
 10538 1faf 9A000000 		.4byte	.LBB380
 10539 1fb3 16000000 		.4byte	.LBE380-.LBB380
 10540 1fb7 01       		.byte	0x1
 10541 1fb8 7A02     		.2byte	0x27a
 10542 1fba C81F0000 		.4byte	0x1fc8
 10543 1fbe 1C       		.uleb128 0x1c
 10544 1fbf C6040000 		.4byte	0x4c6
 10545 1fc3 C8140000 		.4byte	.LLST164
 10546 1fc7 00       		.byte	0
 10547 1fc8 1B       		.uleb128 0x1b
 10548 1fc9 D0040000 		.4byte	0x4d0
 10549 1fcd D6000000 		.4byte	.LBB382
 10550 1fd1 2E000000 		.4byte	.LBE382-.LBB382
 10551 1fd5 01       		.byte	0x1
 10552 1fd6 7E02     		.2byte	0x27e
 10553 1fd8 E61F0000 		.4byte	0x1fe6
 10554 1fdc 1C       		.uleb128 0x1c
 10555 1fdd E0040000 		.4byte	0x4e0
 10556 1fe1 DB140000 		.4byte	.LLST165
 10557 1fe5 00       		.byte	0
 10558 1fe6 1B       		.uleb128 0x1b
 10559 1fe7 B6040000 		.4byte	0x4b6
 10560 1feb 06010000 		.4byte	.LBB384
 10561 1fef 16000000 		.4byte	.LBE384-.LBB384
ARM GAS  C:\Users\user\AppData\Local\Temp\cc6TIdBD.s 			page 216


 10562 1ff3 01       		.byte	0x1
 10563 1ff4 8002     		.2byte	0x280
 10564 1ff6 04200000 		.4byte	0x2004
 10565 1ffa 1C       		.uleb128 0x1c
 10566 1ffb C6040000 		.4byte	0x4c6
 10567 1fff F9140000 		.4byte	.LLST166
 10568 2003 00       		.byte	0
 10569 2004 1B       		.uleb128 0x1b
 10570 2005 9C040000 		.4byte	0x49c
 10571 2009 1C010000 		.4byte	.LBB386
 10572 200d 0C000000 		.4byte	.LBE386-.LBB386
 10573 2011 01       		.byte	0x1
 10574 2012 8002     		.2byte	0x280
 10575 2014 1E200000 		.4byte	0x201e
 10576 2018 1D       		.uleb128 0x1d
 10577 2019 AC040000 		.4byte	0x4ac
 10578 201d 00       		.byte	0
 10579 201e 26       		.uleb128 0x26
 10580 201f 94000000 		.4byte	.LVL628
 10581 2023 A9300000 		.4byte	0x30a9
 10582 2027 44200000 		.4byte	0x2044
 10583 202b 1F       		.uleb128 0x1f
 10584 202c 01       		.uleb128 0x1
 10585 202d 50       		.byte	0x50
 10586 202e 03       		.uleb128 0x3
 10587 202f 74       		.byte	0x74
 10588 2030 8402     		.sleb128 260
 10589 2032 1F       		.uleb128 0x1f
 10590 2033 01       		.uleb128 0x1
 10591 2034 51       		.byte	0x51
 10592 2035 02       		.uleb128 0x2
 10593 2036 91       		.byte	0x91
 10594 2037 6C       		.sleb128 -20
 10595 2038 1F       		.uleb128 0x1f
 10596 2039 01       		.uleb128 0x1
 10597 203a 52       		.byte	0x52
 10598 203b 01       		.uleb128 0x1
 10599 203c 32       		.byte	0x32
 10600 203d 1F       		.uleb128 0x1f
 10601 203e 01       		.uleb128 0x1
 10602 203f 53       		.byte	0x53
 10603 2040 02       		.uleb128 0x2
 10604 2041 7D       		.byte	0x7d
 10605 2042 00       		.sleb128 0
 10606 2043 00       		.byte	0
 10607 2044 28       		.uleb128 0x28
 10608 2045 B6000000 		.4byte	.LVL631
 10609 2049 91050000 		.4byte	0x591
 10610 204d 00       		.byte	0
 10611 204e 16       		.uleb128 0x16
 10612 204f AE020000 		.4byte	.LASF100
 10613 2053 01       		.byte	0x1
 10614 2054 1701     		.2byte	0x117
 10615 2056 25000000 		.4byte	0x25
 10616 205a 00000000 		.4byte	.LFB132
 10617 205e 2A000000 		.4byte	.LFE132-.LFB132
 10618 2062 01       		.uleb128 0x1
ARM GAS  C:\Users\user\AppData\Local\Temp\cc6TIdBD.s 			page 217


 10619 2063 9C       		.byte	0x9c
 10620 2064 C6200000 		.4byte	0x20c6
 10621 2068 17       		.uleb128 0x17
 10622 2069 6C7000   		.ascii	"lp\000"
 10623 206c 01       		.byte	0x1
 10624 206d 1701     		.2byte	0x117
 10625 206f FE050000 		.4byte	0x5fe
 10626 2073 0C150000 		.4byte	.LLST167
 10627 2077 17       		.uleb128 0x17
 10628 2078 7800     		.ascii	"x\000"
 10629 207a 01       		.byte	0x1
 10630 207b 1701     		.2byte	0x117
 10631 207d 53070000 		.4byte	0x753
 10632 2081 2A150000 		.4byte	.LLST168
 10633 2085 17       		.uleb128 0x17
 10634 2086 7500     		.ascii	"u\000"
 10635 2088 01       		.byte	0x1
 10636 2089 1701     		.2byte	0x117
 10637 208b 25000000 		.4byte	0x25
 10638 208f 4B150000 		.4byte	.LLST169
 10639 2093 19       		.uleb128 0x19
 10640 2094 6F757400 		.ascii	"out\000"
 10641 2098 01       		.byte	0x1
 10642 2099 1901     		.2byte	0x119
 10643 209b 25000000 		.4byte	0x25
 10644 209f 02       		.uleb128 0x2
 10645 20a0 91       		.byte	0x91
 10646 20a1 6C       		.sleb128 -20
 10647 20a2 1E       		.uleb128 0x1e
 10648 20a3 18000000 		.4byte	.LVL650
 10649 20a7 CD300000 		.4byte	0x30cd
 10650 20ab 1F       		.uleb128 0x1f
 10651 20ac 01       		.uleb128 0x1
 10652 20ad 50       		.byte	0x50
 10653 20ae 03       		.uleb128 0x3
 10654 20af 74       		.byte	0x74
 10655 20b0 E000     		.sleb128 96
 10656 20b2 1F       		.uleb128 0x1f
 10657 20b3 01       		.uleb128 0x1
 10658 20b4 51       		.byte	0x51
 10659 20b5 03       		.uleb128 0x3
 10660 20b6 F3       		.byte	0xf3
 10661 20b7 01       		.uleb128 0x1
 10662 20b8 51       		.byte	0x51
 10663 20b9 1F       		.uleb128 0x1f
 10664 20ba 01       		.uleb128 0x1
 10665 20bb 52       		.byte	0x52
 10666 20bc 01       		.uleb128 0x1
 10667 20bd 32       		.byte	0x32
 10668 20be 1F       		.uleb128 0x1f
 10669 20bf 01       		.uleb128 0x1
 10670 20c0 53       		.byte	0x53
 10671 20c1 02       		.uleb128 0x2
 10672 20c2 91       		.byte	0x91
 10673 20c3 6C       		.sleb128 -20
 10674 20c4 00       		.byte	0
 10675 20c5 00       		.byte	0
ARM GAS  C:\Users\user\AppData\Local\Temp\cc6TIdBD.s 			page 218


 10676 20c6 21       		.uleb128 0x21
 10677 20c7 B1010000 		.4byte	.LASF101
 10678 20cb 01       		.byte	0x1
 10679 20cc 3F01     		.2byte	0x13f
 10680 20ce 00000000 		.4byte	.LFB136
 10681 20d2 3A000000 		.4byte	.LFE136-.LFB136
 10682 20d6 01       		.uleb128 0x1
 10683 20d7 9C       		.byte	0x9c
 10684 20d8 8E210000 		.4byte	0x218e
 10685 20dc 17       		.uleb128 0x17
 10686 20dd 6C7000   		.ascii	"lp\000"
 10687 20e0 01       		.byte	0x1
 10688 20e1 3F01     		.2byte	0x13f
 10689 20e3 FE050000 		.4byte	0x5fe
 10690 20e7 69150000 		.4byte	.LLST170
 10691 20eb 17       		.uleb128 0x17
 10692 20ec 7900     		.ascii	"y\000"
 10693 20ee 01       		.byte	0x1
 10694 20ef 3F01     		.2byte	0x13f
 10695 20f1 25000000 		.4byte	0x25
 10696 20f5 87150000 		.4byte	.LLST171
 10697 20f9 22       		.uleb128 0x22
 10698 20fa 4F070000 		.4byte	.LASF74
 10699 20fe 01       		.byte	0x1
 10700 20ff 3F01     		.2byte	0x13f
 10701 2101 25000000 		.4byte	0x25
 10702 2105 A5150000 		.4byte	.LLST172
 10703 2109 23       		.uleb128 0x23
 10704 210a 0B030000 		.4byte	.LASF75
 10705 210e 01       		.byte	0x1
 10706 210f 4101     		.2byte	0x141
 10707 2111 25000000 		.4byte	0x25
 10708 2115 C8150000 		.4byte	.LLST173
 10709 2119 25       		.uleb128 0x25
 10710 211a 45070000 		.4byte	.LASF77
 10711 211e 01       		.byte	0x1
 10712 211f 4201     		.2byte	0x142
 10713 2121 85030000 		.4byte	0x385
 10714 2125 02       		.uleb128 0x2
 10715 2126 91       		.byte	0x91
 10716 2127 68       		.sleb128 -24
 10717 2128 26       		.uleb128 0x26
 10718 2129 12000000 		.4byte	.LVL655
 10719 212d 4E200000 		.4byte	0x204e
 10720 2131 4B210000 		.4byte	0x214b
 10721 2135 1F       		.uleb128 0x1f
 10722 2136 01       		.uleb128 0x1
 10723 2137 50       		.byte	0x50
 10724 2138 02       		.uleb128 0x2
 10725 2139 74       		.byte	0x74
 10726 213a 00       		.sleb128 0
 10727 213b 1F       		.uleb128 0x1f
 10728 213c 01       		.uleb128 0x1
 10729 213d 51       		.byte	0x51
 10730 213e 02       		.uleb128 0x2
 10731 213f 75       		.byte	0x75
 10732 2140 00       		.sleb128 0
ARM GAS  C:\Users\user\AppData\Local\Temp\cc6TIdBD.s 			page 219


 10733 2141 1F       		.uleb128 0x1f
 10734 2142 01       		.uleb128 0x1
 10735 2143 52       		.byte	0x52
 10736 2144 05       		.uleb128 0x5
 10737 2145 F3       		.byte	0xf3
 10738 2146 03       		.uleb128 0x3
 10739 2147 F5       		.byte	0xf5
 10740 2148 02       		.uleb128 0x2
 10741 2149 25       		.uleb128 0x25
 10742 214a 00       		.byte	0
 10743 214b 26       		.uleb128 0x26
 10744 214c 28000000 		.4byte	.LVL658
 10745 2150 D9300000 		.4byte	0x30d9
 10746 2154 6B210000 		.4byte	0x216b
 10747 2158 1F       		.uleb128 0x1f
 10748 2159 01       		.uleb128 0x1
 10749 215a 50       		.byte	0x50
 10750 215b 03       		.uleb128 0x3
 10751 215c 74       		.byte	0x74
 10752 215d EC00     		.sleb128 108
 10753 215f 1F       		.uleb128 0x1f
 10754 2160 01       		.uleb128 0x1
 10755 2161 52       		.byte	0x52
 10756 2162 02       		.uleb128 0x2
 10757 2163 7D       		.byte	0x7d
 10758 2164 00       		.sleb128 0
 10759 2165 1F       		.uleb128 0x1f
 10760 2166 01       		.uleb128 0x1
 10761 2167 53       		.byte	0x53
 10762 2168 01       		.uleb128 0x1
 10763 2169 32       		.byte	0x32
 10764 216a 00       		.byte	0
 10765 216b 1E       		.uleb128 0x1e
 10766 216c 36000000 		.4byte	.LVL659
 10767 2170 E5300000 		.4byte	0x30e5
 10768 2174 1F       		.uleb128 0x1f
 10769 2175 01       		.uleb128 0x1
 10770 2176 50       		.byte	0x50
 10771 2177 02       		.uleb128 0x2
 10772 2178 75       		.byte	0x75
 10773 2179 00       		.sleb128 0
 10774 217a 1F       		.uleb128 0x1f
 10775 217b 01       		.uleb128 0x1
 10776 217c 51       		.byte	0x51
 10777 217d 02       		.uleb128 0x2
 10778 217e 7D       		.byte	0x7d
 10779 217f 00       		.sleb128 0
 10780 2180 1F       		.uleb128 0x1f
 10781 2181 01       		.uleb128 0x1
 10782 2182 52       		.byte	0x52
 10783 2183 03       		.uleb128 0x3
 10784 2184 74       		.byte	0x74
 10785 2185 8001     		.sleb128 128
 10786 2187 1F       		.uleb128 0x1f
 10787 2188 01       		.uleb128 0x1
 10788 2189 53       		.byte	0x53
 10789 218a 01       		.uleb128 0x1
ARM GAS  C:\Users\user\AppData\Local\Temp\cc6TIdBD.s 			page 220


 10790 218b 32       		.byte	0x32
 10791 218c 00       		.byte	0
 10792 218d 00       		.byte	0
 10793 218e 27       		.uleb128 0x27
 10794 218f 75080000 		.4byte	.LASF102
 10795 2193 01       		.byte	0x1
 10796 2194 BF02     		.2byte	0x2bf
 10797 2196 00000000 		.4byte	.LFB157
 10798 219a 30000000 		.4byte	.LFE157-.LFB157
 10799 219e 01       		.uleb128 0x1
 10800 219f 9C       		.byte	0x9c
 10801 21a0 14220000 		.4byte	0x2214
 10802 21a4 17       		.uleb128 0x17
 10803 21a5 6C7000   		.ascii	"lp\000"
 10804 21a8 01       		.byte	0x1
 10805 21a9 BF02     		.2byte	0x2bf
 10806 21ab FE050000 		.4byte	0x5fe
 10807 21af E6150000 		.4byte	.LLST174
 10808 21b3 17       		.uleb128 0x17
 10809 21b4 7900     		.ascii	"y\000"
 10810 21b6 01       		.byte	0x1
 10811 21b7 BF02     		.2byte	0x2bf
 10812 21b9 25000000 		.4byte	0x25
 10813 21bd 52160000 		.4byte	.LLST175
 10814 21c1 22       		.uleb128 0x22
 10815 21c2 4F070000 		.4byte	.LASF74
 10816 21c6 01       		.byte	0x1
 10817 21c7 BF02     		.2byte	0x2bf
 10818 21c9 25000000 		.4byte	0x25
 10819 21cd C6160000 		.4byte	.LLST176
 10820 21d1 26       		.uleb128 0x26
 10821 21d2 16000000 		.4byte	.LVL661
 10822 21d6 5E070000 		.4byte	0x75e
 10823 21da F8210000 		.4byte	0x21f8
 10824 21de 1F       		.uleb128 0x1f
 10825 21df 01       		.uleb128 0x1
 10826 21e0 50       		.byte	0x50
 10827 21e1 03       		.uleb128 0x3
 10828 21e2 F3       		.byte	0xf3
 10829 21e3 01       		.uleb128 0x1
 10830 21e4 50       		.byte	0x50
 10831 21e5 1F       		.uleb128 0x1f
 10832 21e6 01       		.uleb128 0x1
 10833 21e7 51       		.byte	0x51
 10834 21e8 05       		.uleb128 0x5
 10835 21e9 F3       		.byte	0xf3
 10836 21ea 03       		.uleb128 0x3
 10837 21eb F5       		.byte	0xf5
 10838 21ec 01       		.uleb128 0x1
 10839 21ed 25       		.uleb128 0x25
 10840 21ee 1F       		.uleb128 0x1f
 10841 21ef 01       		.uleb128 0x1
 10842 21f0 52       		.byte	0x52
 10843 21f1 05       		.uleb128 0x5
 10844 21f2 F3       		.byte	0xf3
 10845 21f3 03       		.uleb128 0x3
 10846 21f4 F5       		.byte	0xf5
ARM GAS  C:\Users\user\AppData\Local\Temp\cc6TIdBD.s 			page 221


 10847 21f5 02       		.uleb128 0x2
 10848 21f6 25       		.uleb128 0x25
 10849 21f7 00       		.byte	0
 10850 21f8 28       		.uleb128 0x28
 10851 21f9 1C000000 		.4byte	.LVL663
 10852 21fd FB0F0000 		.4byte	0xffb
 10853 2201 28       		.uleb128 0x28
 10854 2202 22000000 		.4byte	.LVL665
 10855 2206 E6180000 		.4byte	0x18e6
 10856 220a 28       		.uleb128 0x28
 10857 220b 28000000 		.4byte	.LVL667
 10858 220f C6200000 		.4byte	0x20c6
 10859 2213 00       		.byte	0
 10860 2214 21       		.uleb128 0x21
 10861 2215 4C040000 		.4byte	.LASF103
 10862 2219 01       		.byte	0x1
 10863 221a 1F01     		.2byte	0x11f
 10864 221c 00000000 		.4byte	.LFB133
 10865 2220 48000000 		.4byte	.LFE133-.LFB133
 10866 2224 01       		.uleb128 0x1
 10867 2225 9C       		.byte	0x9c
 10868 2226 AC220000 		.4byte	0x22ac
 10869 222a 17       		.uleb128 0x17
 10870 222b 6C7000   		.ascii	"lp\000"
 10871 222e 01       		.byte	0x1
 10872 222f 1F01     		.2byte	0x11f
 10873 2231 FE050000 		.4byte	0x5fe
 10874 2235 3A170000 		.4byte	.LLST177
 10875 2239 17       		.uleb128 0x17
 10876 223a 7800     		.ascii	"x\000"
 10877 223c 01       		.byte	0x1
 10878 223d 1F01     		.2byte	0x11f
 10879 223f 53070000 		.4byte	0x753
 10880 2243 58170000 		.4byte	.LLST178
 10881 2247 17       		.uleb128 0x17
 10882 2248 7500     		.ascii	"u\000"
 10883 224a 01       		.byte	0x1
 10884 224b 1F01     		.2byte	0x11f
 10885 224d 25000000 		.4byte	0x25
 10886 2251 76170000 		.4byte	.LLST179
 10887 2255 17       		.uleb128 0x17
 10888 2256 7A00     		.ascii	"z\000"
 10889 2258 01       		.byte	0x1
 10890 2259 1F01     		.2byte	0x11f
 10891 225b 21050000 		.4byte	0x521
 10892 225f 94170000 		.4byte	.LLST180
 10893 2263 26       		.uleb128 0x26
 10894 2264 12000000 		.4byte	.LVL671
 10895 2268 CD300000 		.4byte	0x30cd
 10896 226c 89220000 		.4byte	0x2289
 10897 2270 1F       		.uleb128 0x1f
 10898 2271 01       		.uleb128 0x1
 10899 2272 50       		.byte	0x50
 10900 2273 03       		.uleb128 0x3
 10901 2274 75       		.byte	0x75
 10902 2275 C800     		.sleb128 72
 10903 2277 1F       		.uleb128 0x1f
ARM GAS  C:\Users\user\AppData\Local\Temp\cc6TIdBD.s 			page 222


 10904 2278 01       		.uleb128 0x1
 10905 2279 51       		.byte	0x51
 10906 227a 02       		.uleb128 0x2
 10907 227b 77       		.byte	0x77
 10908 227c 00       		.sleb128 0
 10909 227d 1F       		.uleb128 0x1f
 10910 227e 01       		.uleb128 0x1
 10911 227f 52       		.byte	0x52
 10912 2280 01       		.uleb128 0x1
 10913 2281 32       		.byte	0x32
 10914 2282 1F       		.uleb128 0x1f
 10915 2283 01       		.uleb128 0x1
 10916 2284 53       		.byte	0x53
 10917 2285 02       		.uleb128 0x2
 10918 2286 74       		.byte	0x74
 10919 2287 00       		.sleb128 0
 10920 2288 00       		.byte	0
 10921 2289 1E       		.uleb128 0x1e
 10922 228a 34000000 		.4byte	.LVL674
 10923 228e CD300000 		.4byte	0x30cd
 10924 2292 1F       		.uleb128 0x1f
 10925 2293 01       		.uleb128 0x1
 10926 2294 50       		.byte	0x50
 10927 2295 03       		.uleb128 0x3
 10928 2296 75       		.byte	0x75
 10929 2297 D000     		.sleb128 80
 10930 2299 1F       		.uleb128 0x1f
 10931 229a 01       		.uleb128 0x1
 10932 229b 51       		.byte	0x51
 10933 229c 02       		.uleb128 0x2
 10934 229d 77       		.byte	0x77
 10935 229e 00       		.sleb128 0
 10936 229f 1F       		.uleb128 0x1f
 10937 22a0 01       		.uleb128 0x1
 10938 22a1 52       		.byte	0x52
 10939 22a2 01       		.uleb128 0x1
 10940 22a3 32       		.byte	0x32
 10941 22a4 1F       		.uleb128 0x1f
 10942 22a5 01       		.uleb128 0x1
 10943 22a6 53       		.byte	0x53
 10944 22a7 02       		.uleb128 0x2
 10945 22a8 74       		.byte	0x74
 10946 22a9 04       		.sleb128 4
 10947 22aa 00       		.byte	0
 10948 22ab 00       		.byte	0
 10949 22ac 21       		.uleb128 0x21
 10950 22ad 48080000 		.4byte	.LASF104
 10951 22b1 01       		.byte	0x1
 10952 22b2 3501     		.2byte	0x135
 10953 22b4 00000000 		.4byte	.LFB135
 10954 22b8 48000000 		.4byte	.LFE135-.LFB135
 10955 22bc 01       		.uleb128 0x1
 10956 22bd 9C       		.byte	0x9c
 10957 22be BE230000 		.4byte	0x23be
 10958 22c2 17       		.uleb128 0x17
 10959 22c3 6C7000   		.ascii	"lp\000"
 10960 22c6 01       		.byte	0x1
ARM GAS  C:\Users\user\AppData\Local\Temp\cc6TIdBD.s 			page 223


 10961 22c7 3501     		.2byte	0x135
 10962 22c9 FE050000 		.4byte	0x5fe
 10963 22cd B2170000 		.4byte	.LLST181
 10964 22d1 17       		.uleb128 0x17
 10965 22d2 7900     		.ascii	"y\000"
 10966 22d4 01       		.byte	0x1
 10967 22d5 3501     		.2byte	0x135
 10968 22d7 25000000 		.4byte	0x25
 10969 22db D0170000 		.4byte	.LLST182
 10970 22df 22       		.uleb128 0x22
 10971 22e0 4F070000 		.4byte	.LASF74
 10972 22e4 01       		.byte	0x1
 10973 22e5 3501     		.2byte	0x135
 10974 22e7 25000000 		.4byte	0x25
 10975 22eb FE170000 		.4byte	.LLST183
 10976 22ef 17       		.uleb128 0x17
 10977 22f0 755F6B00 		.ascii	"u_k\000"
 10978 22f4 01       		.byte	0x1
 10979 22f5 3501     		.2byte	0x135
 10980 22f7 25000000 		.4byte	0x25
 10981 22fb 21180000 		.4byte	.LLST184
 10982 22ff 23       		.uleb128 0x23
 10983 2300 0B030000 		.4byte	.LASF75
 10984 2304 01       		.byte	0x1
 10985 2305 3701     		.2byte	0x137
 10986 2307 25000000 		.4byte	0x25
 10987 230b 3F180000 		.4byte	.LLST185
 10988 230f 19       		.uleb128 0x19
 10989 2310 7A00     		.ascii	"z\000"
 10990 2312 01       		.byte	0x1
 10991 2313 3801     		.2byte	0x138
 10992 2315 85030000 		.4byte	0x385
 10993 2319 02       		.uleb128 0x2
 10994 231a 91       		.byte	0x91
 10995 231b 60       		.sleb128 -32
 10996 231c 25       		.uleb128 0x25
 10997 231d 45070000 		.4byte	.LASF77
 10998 2321 01       		.byte	0x1
 10999 2322 3801     		.2byte	0x138
 11000 2324 85030000 		.4byte	0x385
 11001 2328 02       		.uleb128 0x2
 11002 2329 91       		.byte	0x91
 11003 232a 58       		.sleb128 -40
 11004 232b 26       		.uleb128 0x26
 11005 232c 14000000 		.4byte	.LVL679
 11006 2330 4E200000 		.4byte	0x204e
 11007 2334 4E230000 		.4byte	0x234e
 11008 2338 1F       		.uleb128 0x1f
 11009 2339 01       		.uleb128 0x1
 11010 233a 50       		.byte	0x50
 11011 233b 02       		.uleb128 0x2
 11012 233c 75       		.byte	0x75
 11013 233d 00       		.sleb128 0
 11014 233e 1F       		.uleb128 0x1f
 11015 233f 01       		.uleb128 0x1
 11016 2340 51       		.byte	0x51
 11017 2341 02       		.uleb128 0x2
ARM GAS  C:\Users\user\AppData\Local\Temp\cc6TIdBD.s 			page 224


 11018 2342 74       		.byte	0x74
 11019 2343 00       		.sleb128 0
 11020 2344 1F       		.uleb128 0x1f
 11021 2345 01       		.uleb128 0x1
 11022 2346 52       		.byte	0x52
 11023 2347 05       		.uleb128 0x5
 11024 2348 F3       		.byte	0xf3
 11025 2349 03       		.uleb128 0x3
 11026 234a F5       		.byte	0xf5
 11027 234b 02       		.uleb128 0x2
 11028 234c 25       		.uleb128 0x25
 11029 234d 00       		.byte	0
 11030 234e 26       		.uleb128 0x26
 11031 234f 2A000000 		.4byte	.LVL683
 11032 2353 14220000 		.4byte	0x2214
 11033 2357 75230000 		.4byte	0x2375
 11034 235b 1F       		.uleb128 0x1f
 11035 235c 01       		.uleb128 0x1
 11036 235d 50       		.byte	0x50
 11037 235e 02       		.uleb128 0x2
 11038 235f 75       		.byte	0x75
 11039 2360 00       		.sleb128 0
 11040 2361 1F       		.uleb128 0x1f
 11041 2362 01       		.uleb128 0x1
 11042 2363 51       		.byte	0x51
 11043 2364 02       		.uleb128 0x2
 11044 2365 74       		.byte	0x74
 11045 2366 00       		.sleb128 0
 11046 2367 1F       		.uleb128 0x1f
 11047 2368 01       		.uleb128 0x1
 11048 2369 52       		.byte	0x52
 11049 236a 03       		.uleb128 0x3
 11050 236b F5       		.byte	0xf5
 11051 236c 07       		.uleb128 0x7
 11052 236d 25       		.uleb128 0x25
 11053 236e 1F       		.uleb128 0x1f
 11054 236f 01       		.uleb128 0x1
 11055 2370 53       		.byte	0x53
 11056 2371 02       		.uleb128 0x2
 11057 2372 91       		.byte	0x91
 11058 2373 60       		.sleb128 -32
 11059 2374 00       		.byte	0
 11060 2375 26       		.uleb128 0x26
 11061 2376 38000000 		.4byte	.LVL684
 11062 237a D9300000 		.4byte	0x30d9
 11063 237e 9C230000 		.4byte	0x239c
 11064 2382 1F       		.uleb128 0x1f
 11065 2383 01       		.uleb128 0x1
 11066 2384 50       		.byte	0x50
 11067 2385 03       		.uleb128 0x3
 11068 2386 75       		.byte	0x75
 11069 2387 EC00     		.sleb128 108
 11070 2389 1F       		.uleb128 0x1f
 11071 238a 01       		.uleb128 0x1
 11072 238b 51       		.byte	0x51
 11073 238c 03       		.uleb128 0x3
 11074 238d F5       		.byte	0xf5
ARM GAS  C:\Users\user\AppData\Local\Temp\cc6TIdBD.s 			page 225


 11075 238e 06       		.uleb128 0x6
 11076 238f 25       		.uleb128 0x25
 11077 2390 1F       		.uleb128 0x1f
 11078 2391 01       		.uleb128 0x1
 11079 2392 52       		.byte	0x52
 11080 2393 02       		.uleb128 0x2
 11081 2394 7D       		.byte	0x7d
 11082 2395 00       		.sleb128 0
 11083 2396 1F       		.uleb128 0x1f
 11084 2397 01       		.uleb128 0x1
 11085 2398 53       		.byte	0x53
 11086 2399 01       		.uleb128 0x1
 11087 239a 32       		.byte	0x32
 11088 239b 00       		.byte	0
 11089 239c 1E       		.uleb128 0x1e
 11090 239d 44000000 		.4byte	.LVL685
 11091 23a1 E5300000 		.4byte	0x30e5
 11092 23a5 1F       		.uleb128 0x1f
 11093 23a6 01       		.uleb128 0x1
 11094 23a7 50       		.byte	0x50
 11095 23a8 02       		.uleb128 0x2
 11096 23a9 91       		.byte	0x91
 11097 23aa 60       		.sleb128 -32
 11098 23ab 1F       		.uleb128 0x1f
 11099 23ac 01       		.uleb128 0x1
 11100 23ad 51       		.byte	0x51
 11101 23ae 02       		.uleb128 0x2
 11102 23af 7D       		.byte	0x7d
 11103 23b0 00       		.sleb128 0
 11104 23b1 1F       		.uleb128 0x1f
 11105 23b2 01       		.uleb128 0x1
 11106 23b3 52       		.byte	0x52
 11107 23b4 02       		.uleb128 0x2
 11108 23b5 74       		.byte	0x74
 11109 23b6 00       		.sleb128 0
 11110 23b7 1F       		.uleb128 0x1f
 11111 23b8 01       		.uleb128 0x1
 11112 23b9 53       		.byte	0x53
 11113 23ba 01       		.uleb128 0x1
 11114 23bb 32       		.byte	0x32
 11115 23bc 00       		.byte	0
 11116 23bd 00       		.byte	0
 11117 23be 27       		.uleb128 0x27
 11118 23bf 32050000 		.4byte	.LASF105
 11119 23c3 01       		.byte	0x1
 11120 23c4 B602     		.2byte	0x2b6
 11121 23c6 00000000 		.4byte	.LFB156
 11122 23ca 30000000 		.4byte	.LFE156-.LFB156
 11123 23ce 01       		.uleb128 0x1
 11124 23cf 9C       		.byte	0x9c
 11125 23d0 5D240000 		.4byte	0x245d
 11126 23d4 17       		.uleb128 0x17
 11127 23d5 6C7000   		.ascii	"lp\000"
 11128 23d8 01       		.byte	0x1
 11129 23d9 B602     		.2byte	0x2b6
 11130 23db FE050000 		.4byte	0x5fe
 11131 23df 5D180000 		.4byte	.LLST186
ARM GAS  C:\Users\user\AppData\Local\Temp\cc6TIdBD.s 			page 226


 11132 23e3 17       		.uleb128 0x17
 11133 23e4 7900     		.ascii	"y\000"
 11134 23e6 01       		.byte	0x1
 11135 23e7 B602     		.2byte	0x2b6
 11136 23e9 25000000 		.4byte	0x25
 11137 23ed C9180000 		.4byte	.LLST187
 11138 23f1 22       		.uleb128 0x22
 11139 23f2 4F070000 		.4byte	.LASF74
 11140 23f6 01       		.byte	0x1
 11141 23f7 B602     		.2byte	0x2b6
 11142 23f9 25000000 		.4byte	0x25
 11143 23fd 3D190000 		.4byte	.LLST188
 11144 2401 17       		.uleb128 0x17
 11145 2402 755F6B00 		.ascii	"u_k\000"
 11146 2406 01       		.byte	0x1
 11147 2407 B602     		.2byte	0x2b6
 11148 2409 25000000 		.4byte	0x25
 11149 240d B1190000 		.4byte	.LLST189
 11150 2411 26       		.uleb128 0x26
 11151 2412 16000000 		.4byte	.LVL687
 11152 2416 EC0A0000 		.4byte	0xaec
 11153 241a 41240000 		.4byte	0x2441
 11154 241e 1F       		.uleb128 0x1f
 11155 241f 01       		.uleb128 0x1
 11156 2420 50       		.byte	0x50
 11157 2421 03       		.uleb128 0x3
 11158 2422 F3       		.byte	0xf3
 11159 2423 01       		.uleb128 0x1
 11160 2424 50       		.byte	0x50
 11161 2425 1F       		.uleb128 0x1f
 11162 2426 01       		.uleb128 0x1
 11163 2427 51       		.byte	0x51
 11164 2428 05       		.uleb128 0x5
 11165 2429 F3       		.byte	0xf3
 11166 242a 03       		.uleb128 0x3
 11167 242b F5       		.byte	0xf5
 11168 242c 01       		.uleb128 0x1
 11169 242d 25       		.uleb128 0x25
 11170 242e 1F       		.uleb128 0x1f
 11171 242f 01       		.uleb128 0x1
 11172 2430 52       		.byte	0x52
 11173 2431 05       		.uleb128 0x5
 11174 2432 F3       		.byte	0xf3
 11175 2433 03       		.uleb128 0x3
 11176 2434 F5       		.byte	0xf5
 11177 2435 02       		.uleb128 0x2
 11178 2436 25       		.uleb128 0x25
 11179 2437 1F       		.uleb128 0x1f
 11180 2438 01       		.uleb128 0x1
 11181 2439 53       		.byte	0x53
 11182 243a 05       		.uleb128 0x5
 11183 243b F3       		.byte	0xf3
 11184 243c 03       		.uleb128 0x3
 11185 243d F5       		.byte	0xf5
 11186 243e 03       		.uleb128 0x3
 11187 243f 25       		.uleb128 0x25
 11188 2440 00       		.byte	0
ARM GAS  C:\Users\user\AppData\Local\Temp\cc6TIdBD.s 			page 227


 11189 2441 28       		.uleb128 0x28
 11190 2442 1C000000 		.4byte	.LVL689
 11191 2446 BD130000 		.4byte	0x13bd
 11192 244a 28       		.uleb128 0x28
 11193 244b 22000000 		.4byte	.LVL691
 11194 244f A81C0000 		.4byte	0x1ca8
 11195 2453 28       		.uleb128 0x28
 11196 2454 28000000 		.4byte	.LVL693
 11197 2458 AC220000 		.4byte	0x22ac
 11198 245c 00       		.byte	0
 11199 245d 27       		.uleb128 0x27
 11200 245e 60000000 		.4byte	.LASF106
 11201 2462 01       		.byte	0x1
 11202 2463 4801     		.2byte	0x148
 11203 2465 00000000 		.4byte	.LFB137
 11204 2469 12000000 		.4byte	.LFE137-.LFB137
 11205 246d 01       		.uleb128 0x1
 11206 246e 9C       		.byte	0x9c
 11207 246f C1240000 		.4byte	0x24c1
 11208 2473 17       		.uleb128 0x17
 11209 2474 6C7000   		.ascii	"lp\000"
 11210 2477 01       		.byte	0x1
 11211 2478 4801     		.2byte	0x148
 11212 247a FE050000 		.4byte	0x5fe
 11213 247e 251A0000 		.4byte	.LLST190
 11214 2482 17       		.uleb128 0x17
 11215 2483 755F6B00 		.ascii	"u_k\000"
 11216 2487 01       		.byte	0x1
 11217 2488 4801     		.2byte	0x148
 11218 248a 25000000 		.4byte	0x25
 11219 248e 461A0000 		.4byte	.LLST191
 11220 2492 1E       		.uleb128 0x1e
 11221 2493 10000000 		.4byte	.LVL696
 11222 2497 14220000 		.4byte	0x2214
 11223 249b 1F       		.uleb128 0x1f
 11224 249c 01       		.uleb128 0x1
 11225 249d 50       		.byte	0x50
 11226 249e 03       		.uleb128 0x3
 11227 249f F3       		.byte	0xf3
 11228 24a0 01       		.uleb128 0x1
 11229 24a1 50       		.byte	0x50
 11230 24a2 1F       		.uleb128 0x1f
 11231 24a3 01       		.uleb128 0x1
 11232 24a4 51       		.byte	0x51
 11233 24a5 06       		.uleb128 0x6
 11234 24a6 F3       		.byte	0xf3
 11235 24a7 01       		.uleb128 0x1
 11236 24a8 50       		.byte	0x50
 11237 24a9 23       		.byte	0x23
 11238 24aa 8001     		.uleb128 0x80
 11239 24ac 1F       		.uleb128 0x1f
 11240 24ad 01       		.uleb128 0x1
 11241 24ae 52       		.byte	0x52
 11242 24af 05       		.uleb128 0x5
 11243 24b0 F3       		.byte	0xf3
 11244 24b1 03       		.uleb128 0x3
 11245 24b2 F5       		.byte	0xf5
ARM GAS  C:\Users\user\AppData\Local\Temp\cc6TIdBD.s 			page 228


 11246 24b3 01       		.uleb128 0x1
 11247 24b4 25       		.uleb128 0x25
 11248 24b5 1F       		.uleb128 0x1f
 11249 24b6 01       		.uleb128 0x1
 11250 24b7 53       		.byte	0x53
 11251 24b8 06       		.uleb128 0x6
 11252 24b9 F3       		.byte	0xf3
 11253 24ba 01       		.uleb128 0x1
 11254 24bb 50       		.byte	0x50
 11255 24bc 23       		.byte	0x23
 11256 24bd 8801     		.uleb128 0x88
 11257 24bf 00       		.byte	0
 11258 24c0 00       		.byte	0
 11259 24c1 27       		.uleb128 0x27
 11260 24c2 85080000 		.4byte	.LASF107
 11261 24c6 01       		.byte	0x1
 11262 24c7 C802     		.2byte	0x2c8
 11263 24c9 00000000 		.4byte	.LFB158
 11264 24cd 30000000 		.4byte	.LFE158-.LFB158
 11265 24d1 01       		.uleb128 0x1
 11266 24d2 9C       		.byte	0x9c
 11267 24d3 30250000 		.4byte	0x2530
 11268 24d7 17       		.uleb128 0x17
 11269 24d8 6C7000   		.ascii	"lp\000"
 11270 24db 01       		.byte	0x1
 11271 24dc C802     		.2byte	0x2c8
 11272 24de FE050000 		.4byte	0x5fe
 11273 24e2 741A0000 		.4byte	.LLST192
 11274 24e6 17       		.uleb128 0x17
 11275 24e7 755F6B00 		.ascii	"u_k\000"
 11276 24eb 01       		.byte	0x1
 11277 24ec C802     		.2byte	0x2c8
 11278 24ee 25000000 		.4byte	0x25
 11279 24f2 E01A0000 		.4byte	.LLST193
 11280 24f6 26       		.uleb128 0x26
 11281 24f7 16000000 		.4byte	.LVL698
 11282 24fb D10C0000 		.4byte	0xcd1
 11283 24ff 14250000 		.4byte	0x2514
 11284 2503 1F       		.uleb128 0x1f
 11285 2504 01       		.uleb128 0x1
 11286 2505 50       		.byte	0x50
 11287 2506 03       		.uleb128 0x3
 11288 2507 F3       		.byte	0xf3
 11289 2508 01       		.uleb128 0x1
 11290 2509 50       		.byte	0x50
 11291 250a 1F       		.uleb128 0x1f
 11292 250b 01       		.uleb128 0x1
 11293 250c 51       		.byte	0x51
 11294 250d 05       		.uleb128 0x5
 11295 250e F3       		.byte	0xf3
 11296 250f 03       		.uleb128 0x3
 11297 2510 F5       		.byte	0xf5
 11298 2511 01       		.uleb128 0x1
 11299 2512 25       		.uleb128 0x25
 11300 2513 00       		.byte	0
 11301 2514 28       		.uleb128 0x28
 11302 2515 1C000000 		.4byte	.LVL700
ARM GAS  C:\Users\user\AppData\Local\Temp\cc6TIdBD.s 			page 229


 11303 2519 A2150000 		.4byte	0x15a2
 11304 251d 28       		.uleb128 0x28
 11305 251e 22000000 		.4byte	.LVL702
 11306 2522 8D1E0000 		.4byte	0x1e8d
 11307 2526 28       		.uleb128 0x28
 11308 2527 28000000 		.4byte	.LVL704
 11309 252b 5D240000 		.4byte	0x245d
 11310 252f 00       		.byte	0
 11311 2530 16       		.uleb128 0x16
 11312 2531 60040000 		.4byte	.LASF108
 11313 2535 01       		.byte	0x1
 11314 2536 2801     		.2byte	0x128
 11315 2538 25000000 		.4byte	0x25
 11316 253c 00000000 		.4byte	.LFB134
 11317 2540 42000000 		.4byte	.LFE134-.LFB134
 11318 2544 01       		.uleb128 0x1
 11319 2545 9C       		.byte	0x9c
 11320 2546 A8250000 		.4byte	0x25a8
 11321 254a 17       		.uleb128 0x17
 11322 254b 6C7000   		.ascii	"lp\000"
 11323 254e 01       		.byte	0x1
 11324 254f 2801     		.2byte	0x128
 11325 2551 FE050000 		.4byte	0x5fe
 11326 2555 541B0000 		.4byte	.LLST194
 11327 2559 19       		.uleb128 0x19
 11328 255a 6B7800   		.ascii	"kx\000"
 11329 255d 01       		.byte	0x1
 11330 255e 2A01     		.2byte	0x12a
 11331 2560 25000000 		.4byte	0x25
 11332 2564 02       		.uleb128 0x2
 11333 2565 91       		.byte	0x91
 11334 2566 74       		.sleb128 -12
 11335 2567 23       		.uleb128 0x23
 11336 2568 1C080000 		.4byte	.LASF109
 11337 256c 01       		.byte	0x1
 11338 256d 2C01     		.2byte	0x12c
 11339 256f 25000000 		.4byte	0x25
 11340 2573 721B0000 		.4byte	.LLST195
 11341 2577 26       		.uleb128 0x26
 11342 2578 1A000000 		.4byte	.LVL707
 11343 257c CD300000 		.4byte	0x30cd
 11344 2580 9E250000 		.4byte	0x259e
 11345 2584 1F       		.uleb128 0x1f
 11346 2585 01       		.uleb128 0x1
 11347 2586 50       		.byte	0x50
 11348 2587 03       		.uleb128 0x3
 11349 2588 74       		.byte	0x74
 11350 2589 F400     		.sleb128 116
 11351 258b 1F       		.uleb128 0x1f
 11352 258c 01       		.uleb128 0x1
 11353 258d 51       		.byte	0x51
 11354 258e 03       		.uleb128 0x3
 11355 258f 74       		.byte	0x74
 11356 2590 8001     		.sleb128 128
 11357 2592 1F       		.uleb128 0x1f
 11358 2593 01       		.uleb128 0x1
 11359 2594 52       		.byte	0x52
ARM GAS  C:\Users\user\AppData\Local\Temp\cc6TIdBD.s 			page 230


 11360 2595 01       		.uleb128 0x1
 11361 2596 32       		.byte	0x32
 11362 2597 1F       		.uleb128 0x1f
 11363 2598 01       		.uleb128 0x1
 11364 2599 53       		.byte	0x53
 11365 259a 02       		.uleb128 0x2
 11366 259b 91       		.byte	0x91
 11367 259c 74       		.sleb128 -12
 11368 259d 00       		.byte	0
 11369 259e 28       		.uleb128 0x28
 11370 259f 20000000 		.4byte	.LVL708
 11371 25a3 91050000 		.4byte	0x591
 11372 25a7 00       		.byte	0
 11373 25a8 29       		.uleb128 0x29
 11374 25a9 37040000 		.4byte	.LASF110
 11375 25ad 01       		.byte	0x1
 11376 25ae D102     		.2byte	0x2d1
 11377 25b0 25000000 		.4byte	0x25
 11378 25b4 00000000 		.4byte	.LFB159
 11379 25b8 30000000 		.4byte	.LFE159-.LFB159
 11380 25bc 01       		.uleb128 0x1
 11381 25bd 9C       		.byte	0x9c
 11382 25be 02260000 		.4byte	0x2602
 11383 25c2 17       		.uleb128 0x17
 11384 25c3 6C7000   		.ascii	"lp\000"
 11385 25c6 01       		.byte	0x1
 11386 25c7 D102     		.2byte	0x2d1
 11387 25c9 FE050000 		.4byte	0x5fe
 11388 25cd 851B0000 		.4byte	.LLST196
 11389 25d1 26       		.uleb128 0x26
 11390 25d2 16000000 		.4byte	.LVL713
 11391 25d6 350D0000 		.4byte	0xd35
 11392 25da E6250000 		.4byte	0x25e6
 11393 25de 1F       		.uleb128 0x1f
 11394 25df 01       		.uleb128 0x1
 11395 25e0 50       		.byte	0x50
 11396 25e1 03       		.uleb128 0x3
 11397 25e2 F3       		.byte	0xf3
 11398 25e3 01       		.uleb128 0x1
 11399 25e4 50       		.byte	0x50
 11400 25e5 00       		.byte	0
 11401 25e6 28       		.uleb128 0x28
 11402 25e7 1C000000 		.4byte	.LVL715
 11403 25eb 06160000 		.4byte	0x1606
 11404 25ef 28       		.uleb128 0x28
 11405 25f0 22000000 		.4byte	.LVL717
 11406 25f4 F11E0000 		.4byte	0x1ef1
 11407 25f8 28       		.uleb128 0x28
 11408 25f9 28000000 		.4byte	.LVL719
 11409 25fd 30250000 		.4byte	0x2530
 11410 2601 00       		.byte	0
 11411 2602 16       		.uleb128 0x16
 11412 2603 C0040000 		.4byte	.LASF111
 11413 2607 01       		.byte	0x1
 11414 2608 E402     		.2byte	0x2e4
 11415 260a 25000000 		.4byte	0x25
 11416 260e 00000000 		.4byte	.LFB160
ARM GAS  C:\Users\user\AppData\Local\Temp\cc6TIdBD.s 			page 231


 11417 2612 F4010000 		.4byte	.LFE160-.LFB160
 11418 2616 01       		.uleb128 0x1
 11419 2617 9C       		.byte	0x9c
 11420 2618 3F280000 		.4byte	0x283f
 11421 261c 17       		.uleb128 0x17
 11422 261d 6C7000   		.ascii	"lp\000"
 11423 2620 01       		.byte	0x1
 11424 2621 E402     		.2byte	0x2e4
 11425 2623 FE050000 		.4byte	0x5fe
 11426 2627 F11B0000 		.4byte	.LLST197
 11427 262b 17       		.uleb128 0x17
 11428 262c 7900     		.ascii	"y\000"
 11429 262e 01       		.byte	0x1
 11430 262f E402     		.2byte	0x2e4
 11431 2631 25000000 		.4byte	0x25
 11432 2635 1D1C0000 		.4byte	.LLST198
 11433 2639 18       		.uleb128 0x18
 11434 263a 7500     		.ascii	"u\000"
 11435 263c 01       		.byte	0x1
 11436 263d E602     		.2byte	0x2e6
 11437 263f 25000000 		.4byte	0x25
 11438 2643 9D1C0000 		.4byte	.LLST199
 11439 2647 23       		.uleb128 0x23
 11440 2648 4F070000 		.4byte	.LASF74
 11441 264c 01       		.byte	0x1
 11442 264d E702     		.2byte	0x2e7
 11443 264f 25000000 		.4byte	0x25
 11444 2653 421D0000 		.4byte	.LLST200
 11445 2657 23       		.uleb128 0x23
 11446 2658 4E000000 		.4byte	.LASF112
 11447 265c 01       		.byte	0x1
 11448 265d E802     		.2byte	0x2e8
 11449 265f 25000000 		.4byte	0x25
 11450 2663 601D0000 		.4byte	.LLST201
 11451 2667 2A       		.uleb128 0x2a
 11452 2668 72000000 		.4byte	.LBB388
 11453 266c 50000000 		.4byte	.LBE388-.LBB388
 11454 2670 F5260000 		.4byte	0x26f5
 11455 2674 18       		.uleb128 0x18
 11456 2675 6C6F00   		.ascii	"lo\000"
 11457 2678 01       		.byte	0x1
 11458 2679 FB02     		.2byte	0x2fb
 11459 267b 25000000 		.4byte	0x25
 11460 267f 941D0000 		.4byte	.LLST202
 11461 2683 18       		.uleb128 0x18
 11462 2684 686900   		.ascii	"hi\000"
 11463 2687 01       		.byte	0x1
 11464 2688 FB02     		.2byte	0x2fb
 11465 268a 25000000 		.4byte	0x25
 11466 268e A71D0000 		.4byte	.LLST203
 11467 2692 1B       		.uleb128 0x1b
 11468 2693 EA040000 		.4byte	0x4ea
 11469 2697 82000000 		.4byte	.LBB389
 11470 269b 34000000 		.4byte	.LBE389-.LBB389
 11471 269f 01       		.byte	0x1
 11472 26a0 FF02     		.2byte	0x2ff
 11473 26a2 D5260000 		.4byte	0x26d5
ARM GAS  C:\Users\user\AppData\Local\Temp\cc6TIdBD.s 			page 232


 11474 26a6 1C       		.uleb128 0x1c
 11475 26a7 00050000 		.4byte	0x500
 11476 26ab BA1D0000 		.4byte	.LLST204
 11477 26af 1C       		.uleb128 0x1c
 11478 26b0 F6040000 		.4byte	0x4f6
 11479 26b4 D21D0000 		.4byte	.LLST205
 11480 26b8 2B       		.uleb128 0x2b
 11481 26b9 82000000 		.4byte	.LBB390
 11482 26bd 34000000 		.4byte	.LBE390-.LBB390
 11483 26c1 2C       		.uleb128 0x2c
 11484 26c2 0A050000 		.4byte	0x50a
 11485 26c6 EA1D0000 		.4byte	.LLST206
 11486 26ca 2C       		.uleb128 0x2c
 11487 26cb 15050000 		.4byte	0x515
 11488 26cf FD1D0000 		.4byte	.LLST207
 11489 26d3 00       		.byte	0
 11490 26d4 00       		.byte	0
 11491 26d5 1E       		.uleb128 0x1e
 11492 26d6 C0000000 		.4byte	.LVL743
 11493 26da 27050000 		.4byte	0x527
 11494 26de 1F       		.uleb128 0x1f
 11495 26df 01       		.uleb128 0x1
 11496 26e0 50       		.byte	0x50
 11497 26e1 03       		.uleb128 0x3
 11498 26e2 F5       		.byte	0xf5
 11499 26e3 05       		.uleb128 0x5
 11500 26e4 25       		.uleb128 0x25
 11501 26e5 1F       		.uleb128 0x1f
 11502 26e6 01       		.uleb128 0x1
 11503 26e7 51       		.byte	0x51
 11504 26e8 03       		.uleb128 0x3
 11505 26e9 F5       		.byte	0xf5
 11506 26ea 08       		.uleb128 0x8
 11507 26eb 25       		.uleb128 0x25
 11508 26ec 1F       		.uleb128 0x1f
 11509 26ed 01       		.uleb128 0x1
 11510 26ee 52       		.byte	0x52
 11511 26ef 03       		.uleb128 0x3
 11512 26f0 F5       		.byte	0xf5
 11513 26f1 09       		.uleb128 0x9
 11514 26f2 25       		.uleb128 0x25
 11515 26f3 00       		.byte	0
 11516 26f4 00       		.byte	0
 11517 26f5 2A       		.uleb128 0x2a
 11518 26f6 3A010000 		.4byte	.LBB391
 11519 26fa 4C000000 		.4byte	.LBE391-.LBB391
 11520 26fe 83270000 		.4byte	0x2783
 11521 2702 18       		.uleb128 0x18
 11522 2703 6C6F00   		.ascii	"lo\000"
 11523 2706 01       		.byte	0x1
 11524 2707 1703     		.2byte	0x317
 11525 2709 25000000 		.4byte	0x25
 11526 270d 101E0000 		.4byte	.LLST208
 11527 2711 18       		.uleb128 0x18
 11528 2712 686900   		.ascii	"hi\000"
 11529 2715 01       		.byte	0x1
 11530 2716 1703     		.2byte	0x317
ARM GAS  C:\Users\user\AppData\Local\Temp\cc6TIdBD.s 			page 233


 11531 2718 25000000 		.4byte	0x25
 11532 271c 231E0000 		.4byte	.LLST209
 11533 2720 1B       		.uleb128 0x1b
 11534 2721 EA040000 		.4byte	0x4ea
 11535 2725 46010000 		.4byte	.LBB392
 11536 2729 34000000 		.4byte	.LBE392-.LBB392
 11537 272d 01       		.byte	0x1
 11538 272e 1803     		.2byte	0x318
 11539 2730 63270000 		.4byte	0x2763
 11540 2734 1C       		.uleb128 0x1c
 11541 2735 00050000 		.4byte	0x500
 11542 2739 361E0000 		.4byte	.LLST210
 11543 273d 1C       		.uleb128 0x1c
 11544 273e F6040000 		.4byte	0x4f6
 11545 2742 4E1E0000 		.4byte	.LLST211
 11546 2746 2B       		.uleb128 0x2b
 11547 2747 46010000 		.4byte	.LBB393
 11548 274b 34000000 		.4byte	.LBE393-.LBB393
 11549 274f 2C       		.uleb128 0x2c
 11550 2750 0A050000 		.4byte	0x50a
 11551 2754 661E0000 		.4byte	.LLST212
 11552 2758 2C       		.uleb128 0x2c
 11553 2759 15050000 		.4byte	0x515
 11554 275d 791E0000 		.4byte	.LLST213
 11555 2761 00       		.byte	0
 11556 2762 00       		.byte	0
 11557 2763 1E       		.uleb128 0x1e
 11558 2764 84010000 		.4byte	.LVL768
 11559 2768 27050000 		.4byte	0x527
 11560 276c 1F       		.uleb128 0x1f
 11561 276d 01       		.uleb128 0x1
 11562 276e 50       		.byte	0x50
 11563 276f 03       		.uleb128 0x3
 11564 2770 F5       		.byte	0xf5
 11565 2771 05       		.uleb128 0x5
 11566 2772 25       		.uleb128 0x25
 11567 2773 1F       		.uleb128 0x1f
 11568 2774 01       		.uleb128 0x1
 11569 2775 51       		.byte	0x51
 11570 2776 03       		.uleb128 0x3
 11571 2777 F5       		.byte	0xf5
 11572 2778 06       		.uleb128 0x6
 11573 2779 25       		.uleb128 0x25
 11574 277a 1F       		.uleb128 0x1f
 11575 277b 01       		.uleb128 0x1
 11576 277c 52       		.byte	0x52
 11577 277d 03       		.uleb128 0x3
 11578 277e F5       		.byte	0xf5
 11579 277f 07       		.uleb128 0x7
 11580 2780 25       		.uleb128 0x25
 11581 2781 00       		.byte	0
 11582 2782 00       		.byte	0
 11583 2783 26       		.uleb128 0x26
 11584 2784 34000000 		.4byte	.LVL725
 11585 2788 B8050000 		.4byte	0x5b8
 11586 278c 97270000 		.4byte	0x2797
 11587 2790 1F       		.uleb128 0x1f
ARM GAS  C:\Users\user\AppData\Local\Temp\cc6TIdBD.s 			page 234


 11588 2791 01       		.uleb128 0x1
 11589 2792 50       		.byte	0x50
 11590 2793 02       		.uleb128 0x2
 11591 2794 74       		.byte	0x74
 11592 2795 00       		.sleb128 0
 11593 2796 00       		.byte	0
 11594 2797 28       		.uleb128 0x28
 11595 2798 50000000 		.4byte	.LVL729
 11596 279c 91050000 		.4byte	0x591
 11597 27a0 26       		.uleb128 0x26
 11598 27a1 70000000 		.4byte	.LVL732
 11599 27a5 A8250000 		.4byte	0x25a8
 11600 27a9 B4270000 		.4byte	0x27b4
 11601 27ad 1F       		.uleb128 0x1f
 11602 27ae 01       		.uleb128 0x1
 11603 27af 50       		.byte	0x50
 11604 27b0 02       		.uleb128 0x2
 11605 27b1 74       		.byte	0x74
 11606 27b2 00       		.sleb128 0
 11607 27b3 00       		.byte	0
 11608 27b4 28       		.uleb128 0x28
 11609 27b5 C8000000 		.4byte	.LVL746
 11610 27b9 91050000 		.4byte	0x591
 11611 27bd 26       		.uleb128 0x26
 11612 27be 00010000 		.4byte	.LVL751
 11613 27c2 BE230000 		.4byte	0x23be
 11614 27c6 E6270000 		.4byte	0x27e6
 11615 27ca 1F       		.uleb128 0x1f
 11616 27cb 01       		.uleb128 0x1
 11617 27cc 50       		.byte	0x50
 11618 27cd 02       		.uleb128 0x2
 11619 27ce 74       		.byte	0x74
 11620 27cf 00       		.sleb128 0
 11621 27d0 1F       		.uleb128 0x1f
 11622 27d1 01       		.uleb128 0x1
 11623 27d2 51       		.byte	0x51
 11624 27d3 03       		.uleb128 0x3
 11625 27d4 F5       		.byte	0xf5
 11626 27d5 06       		.uleb128 0x6
 11627 27d6 25       		.uleb128 0x25
 11628 27d7 1F       		.uleb128 0x1f
 11629 27d8 01       		.uleb128 0x1
 11630 27d9 52       		.byte	0x52
 11631 27da 03       		.uleb128 0x3
 11632 27db F5       		.byte	0xf5
 11633 27dc 07       		.uleb128 0x7
 11634 27dd 25       		.uleb128 0x25
 11635 27de 1F       		.uleb128 0x1f
 11636 27df 01       		.uleb128 0x1
 11637 27e0 53       		.byte	0x53
 11638 27e1 03       		.uleb128 0x3
 11639 27e2 F5       		.byte	0xf5
 11640 27e3 08       		.uleb128 0x8
 11641 27e4 25       		.uleb128 0x25
 11642 27e5 00       		.byte	0
 11643 27e6 26       		.uleb128 0x26
 11644 27e7 12010000 		.4byte	.LVL753
ARM GAS  C:\Users\user\AppData\Local\Temp\cc6TIdBD.s 			page 235


 11645 27eb 8E210000 		.4byte	0x218e
 11646 27ef 01280000 		.4byte	0x2801
 11647 27f3 1F       		.uleb128 0x1f
 11648 27f4 01       		.uleb128 0x1
 11649 27f5 50       		.byte	0x50
 11650 27f6 02       		.uleb128 0x2
 11651 27f7 74       		.byte	0x74
 11652 27f8 00       		.sleb128 0
 11653 27f9 1F       		.uleb128 0x1f
 11654 27fa 01       		.uleb128 0x1
 11655 27fb 52       		.byte	0x52
 11656 27fc 03       		.uleb128 0x3
 11657 27fd F5       		.byte	0xf5
 11658 27fe 07       		.uleb128 0x7
 11659 27ff 25       		.uleb128 0x25
 11660 2800 00       		.byte	0
 11661 2801 28       		.uleb128 0x28
 11662 2802 18010000 		.4byte	.LVL754
 11663 2806 91050000 		.4byte	0x591
 11664 280a 26       		.uleb128 0x26
 11665 280b 38010000 		.4byte	.LVL757
 11666 280f A8250000 		.4byte	0x25a8
 11667 2813 1E280000 		.4byte	0x281e
 11668 2817 1F       		.uleb128 0x1f
 11669 2818 01       		.uleb128 0x1
 11670 2819 50       		.byte	0x50
 11671 281a 02       		.uleb128 0x2
 11672 281b 74       		.byte	0x74
 11673 281c 00       		.sleb128 0
 11674 281d 00       		.byte	0
 11675 281e 28       		.uleb128 0x28
 11676 281f 8C010000 		.4byte	.LVL771
 11677 2823 91050000 		.4byte	0x591
 11678 2827 1E       		.uleb128 0x1e
 11679 2828 BE010000 		.4byte	.LVL776
 11680 282c C1240000 		.4byte	0x24c1
 11681 2830 1F       		.uleb128 0x1f
 11682 2831 01       		.uleb128 0x1
 11683 2832 50       		.byte	0x50
 11684 2833 02       		.uleb128 0x2
 11685 2834 74       		.byte	0x74
 11686 2835 00       		.sleb128 0
 11687 2836 1F       		.uleb128 0x1f
 11688 2837 01       		.uleb128 0x1
 11689 2838 51       		.byte	0x51
 11690 2839 03       		.uleb128 0x3
 11691 283a F5       		.byte	0xf5
 11692 283b 06       		.uleb128 0x6
 11693 283c 25       		.uleb128 0x25
 11694 283d 00       		.byte	0
 11695 283e 00       		.byte	0
 11696 283f 2D       		.uleb128 0x2d
 11697 2840 86030000 		.4byte	.LASF113
 11698 2844 01       		.byte	0x1
 11699 2845 3503     		.2byte	0x335
 11700 2847 00000000 		.4byte	.LFB161
 11701 284b 64000000 		.4byte	.LFE161-.LFB161
ARM GAS  C:\Users\user\AppData\Local\Temp\cc6TIdBD.s 			page 236


 11702 284f 01       		.uleb128 0x1
 11703 2850 9C       		.byte	0x9c
 11704 2851 83280000 		.4byte	0x2883
 11705 2855 18       		.uleb128 0x18
 11706 2856 7000     		.ascii	"p\000"
 11707 2858 01       		.byte	0x1
 11708 2859 3703     		.2byte	0x337
 11709 285b 22010000 		.4byte	0x122
 11710 285f 8C1E0000 		.4byte	.LLST214
 11711 2863 1E       		.uleb128 0x1e
 11712 2864 0E000000 		.4byte	.LVL782
 11713 2868 F1300000 		.4byte	0x30f1
 11714 286c 1F       		.uleb128 0x1f
 11715 286d 01       		.uleb128 0x1
 11716 286e 50       		.byte	0x50
 11717 286f 05       		.uleb128 0x5
 11718 2870 03       		.byte	0x3
 11719 2871 04000000 		.4byte	.LANCHOR0+4
 11720 2875 1F       		.uleb128 0x1f
 11721 2876 01       		.uleb128 0x1
 11722 2877 51       		.byte	0x51
 11723 2878 01       		.uleb128 0x1
 11724 2879 30       		.byte	0x30
 11725 287a 1F       		.uleb128 0x1f
 11726 287b 01       		.uleb128 0x1
 11727 287c 52       		.byte	0x52
 11728 287d 03       		.uleb128 0x3
 11729 287e 0A       		.byte	0xa
 11730 287f 1802     		.2byte	0x218
 11731 2881 00       		.byte	0
 11732 2882 00       		.byte	0
 11733 2883 2D       		.uleb128 0x2d
 11734 2884 07020000 		.4byte	.LASF114
 11735 2888 01       		.byte	0x1
 11736 2889 4A03     		.2byte	0x34a
 11737 288b 00000000 		.4byte	.LFB162
 11738 288f 1C000000 		.4byte	.LFE162-.LFB162
 11739 2893 01       		.uleb128 0x1
 11740 2894 9C       		.byte	0x9c
 11741 2895 BA280000 		.4byte	0x28ba
 11742 2899 22       		.uleb128 0x22
 11743 289a 0C080000 		.4byte	.LASF115
 11744 289e 01       		.byte	0x1
 11745 289f 4A03     		.2byte	0x34a
 11746 28a1 22010000 		.4byte	0x122
 11747 28a5 B61E0000 		.4byte	.LLST215
 11748 28a9 22       		.uleb128 0x22
 11749 28aa B5060000 		.4byte	.LASF32
 11750 28ae 01       		.byte	0x1
 11751 28af 4A03     		.2byte	0x34a
 11752 28b1 22010000 		.4byte	0x122
 11753 28b5 D71E0000 		.4byte	.LLST216
 11754 28b9 00       		.byte	0
 11755 28ba 2E       		.uleb128 0x2e
 11756 28bb 07070000 		.4byte	.LASF116
 11757 28bf 01       		.byte	0x1
 11758 28c0 5703     		.2byte	0x357
ARM GAS  C:\Users\user\AppData\Local\Temp\cc6TIdBD.s 			page 237


 11759 28c2 00000000 		.4byte	.LFB163
 11760 28c6 EC040000 		.4byte	.LFE163-.LFB163
 11761 28ca 01       		.uleb128 0x1
 11762 28cb 9C       		.byte	0x9c
 11763 28cc 472C0000 		.4byte	0x2c47
 11764 28d0 22       		.uleb128 0x22
 11765 28d1 0C080000 		.4byte	.LASF115
 11766 28d5 01       		.byte	0x1
 11767 28d6 5703     		.2byte	0x357
 11768 28d8 22010000 		.4byte	0x122
 11769 28dc F51E0000 		.4byte	.LLST217
 11770 28e0 17       		.uleb128 0x17
 11771 28e1 6300     		.ascii	"c\000"
 11772 28e3 01       		.byte	0x1
 11773 28e4 5703     		.2byte	0x357
 11774 28e6 53070000 		.4byte	0x753
 11775 28ea 211F0000 		.4byte	.LLST218
 11776 28ee 17       		.uleb128 0x17
 11777 28ef 6E00     		.ascii	"n\000"
 11778 28f1 01       		.byte	0x1
 11779 28f2 5703     		.2byte	0x357
 11780 28f4 2E010000 		.4byte	0x12e
 11781 28f8 8A1F0000 		.4byte	.LLST219
 11782 28fc 18       		.uleb128 0x18
 11783 28fd 6C7000   		.ascii	"lp\000"
 11784 2900 01       		.byte	0x1
 11785 2901 5C03     		.2byte	0x35c
 11786 2903 FE050000 		.4byte	0x5fe
 11787 2907 B61F0000 		.4byte	.LLST220
 11788 290b 2A       		.uleb128 0x2a
 11789 290c 20000000 		.4byte	.LBB394
 11790 2910 6A000000 		.4byte	.LBE394-.LBB394
 11791 2914 51290000 		.4byte	0x2951
 11792 2918 18       		.uleb128 0x18
 11793 2919 4E7600   		.ascii	"Nv\000"
 11794 291c 01       		.byte	0x1
 11795 291d 6003     		.2byte	0x360
 11796 291f 3A010000 		.4byte	0x13a
 11797 2923 1A200000 		.4byte	.LLST221
 11798 2927 18       		.uleb128 0x18
 11799 2928 667300   		.ascii	"fs\000"
 11800 292b 01       		.byte	0x1
 11801 292c 6403     		.2byte	0x364
 11802 292e 25000000 		.4byte	0x25
 11803 2932 38200000 		.4byte	.LLST222
 11804 2936 2B       		.uleb128 0x2b
 11805 2937 5C000000 		.4byte	.LBB395
 11806 293b 2E000000 		.4byte	.LBE395-.LBB395
 11807 293f 23       		.uleb128 0x23
 11808 2940 93000000 		.4byte	.LASF117
 11809 2944 01       		.byte	0x1
 11810 2945 6703     		.2byte	0x367
 11811 2947 3A010000 		.4byte	0x13a
 11812 294b 4B200000 		.4byte	.LLST223
 11813 294f 00       		.byte	0
 11814 2950 00       		.byte	0
 11815 2951 2F       		.uleb128 0x2f
ARM GAS  C:\Users\user\AppData\Local\Temp\cc6TIdBD.s 			page 238


 11816 2952 00000000 		.4byte	.Ldebug_ranges0+0
 11817 2956 8C290000 		.4byte	0x298c
 11818 295a 18       		.uleb128 0x18
 11819 295b 6900     		.ascii	"i\000"
 11820 295d 01       		.byte	0x1
 11821 295e 7A03     		.2byte	0x37a
 11822 2960 22010000 		.4byte	0x122
 11823 2964 6B200000 		.4byte	.LLST224
 11824 2968 18       		.uleb128 0x18
 11825 2969 613000   		.ascii	"a0\000"
 11826 296c 01       		.byte	0x1
 11827 296d 7F03     		.2byte	0x37f
 11828 296f 25000000 		.4byte	0x25
 11829 2973 94200000 		.4byte	.LLST225
 11830 2977 30       		.uleb128 0x30
 11831 2978 18000000 		.4byte	.Ldebug_ranges0+0x18
 11832 297c 18       		.uleb128 0x18
 11833 297d 6A00     		.ascii	"j\000"
 11834 297f 01       		.byte	0x1
 11835 2980 8103     		.2byte	0x381
 11836 2982 22010000 		.4byte	0x122
 11837 2986 A7200000 		.4byte	.LLST226
 11838 298a 00       		.byte	0
 11839 298b 00       		.byte	0
 11840 298c 1B       		.uleb128 0x1b
 11841 298d 34040000 		.4byte	0x434
 11842 2991 A8020000 		.4byte	.LBB400
 11843 2995 30000000 		.4byte	.LBE400-.LBB400
 11844 2999 01       		.byte	0x1
 11845 299a A103     		.2byte	0x3a1
 11846 299c AA290000 		.4byte	0x29aa
 11847 29a0 1C       		.uleb128 0x1c
 11848 29a1 44040000 		.4byte	0x444
 11849 29a5 E6200000 		.4byte	.LLST227
 11850 29a9 00       		.byte	0
 11851 29aa 1B       		.uleb128 0x1b
 11852 29ab 34040000 		.4byte	0x434
 11853 29af EA020000 		.4byte	.LBB402
 11854 29b3 4A000000 		.4byte	.LBE402-.LBB402
 11855 29b7 01       		.byte	0x1
 11856 29b8 A203     		.2byte	0x3a2
 11857 29ba C8290000 		.4byte	0x29c8
 11858 29be 1C       		.uleb128 0x1c
 11859 29bf 44040000 		.4byte	0x444
 11860 29c3 F9200000 		.4byte	.LLST228
 11861 29c7 00       		.byte	0
 11862 29c8 1B       		.uleb128 0x1b
 11863 29c9 82040000 		.4byte	0x482
 11864 29cd 8E030000 		.4byte	.LBB404
 11865 29d1 30000000 		.4byte	.LBE404-.LBB404
 11866 29d5 01       		.byte	0x1
 11867 29d6 A903     		.2byte	0x3a9
 11868 29d8 E6290000 		.4byte	0x29e6
 11869 29dc 1C       		.uleb128 0x1c
 11870 29dd 92040000 		.4byte	0x492
 11871 29e1 0C210000 		.4byte	.LLST229
 11872 29e5 00       		.byte	0
ARM GAS  C:\Users\user\AppData\Local\Temp\cc6TIdBD.s 			page 239


 11873 29e6 1B       		.uleb128 0x1b
 11874 29e7 82040000 		.4byte	0x482
 11875 29eb D0030000 		.4byte	.LBB406
 11876 29ef 30000000 		.4byte	.LBE406-.LBB406
 11877 29f3 01       		.byte	0x1
 11878 29f4 AA03     		.2byte	0x3aa
 11879 29f6 042A0000 		.4byte	0x2a04
 11880 29fa 1C       		.uleb128 0x1c
 11881 29fb 92040000 		.4byte	0x492
 11882 29ff 1F210000 		.4byte	.LLST230
 11883 2a03 00       		.byte	0
 11884 2a04 1B       		.uleb128 0x1b
 11885 2a05 D0040000 		.4byte	0x4d0
 11886 2a09 56040000 		.4byte	.LBB408
 11887 2a0d 30000000 		.4byte	.LBE408-.LBB408
 11888 2a11 01       		.byte	0x1
 11889 2a12 B103     		.2byte	0x3b1
 11890 2a14 222A0000 		.4byte	0x2a22
 11891 2a18 1C       		.uleb128 0x1c
 11892 2a19 E0040000 		.4byte	0x4e0
 11893 2a1d 32210000 		.4byte	.LLST231
 11894 2a21 00       		.byte	0
 11895 2a22 1B       		.uleb128 0x1b
 11896 2a23 D0040000 		.4byte	0x4d0
 11897 2a27 98040000 		.4byte	.LBB410
 11898 2a2b 30000000 		.4byte	.LBE410-.LBB410
 11899 2a2f 01       		.byte	0x1
 11900 2a30 B203     		.2byte	0x3b2
 11901 2a32 402A0000 		.4byte	0x2a40
 11902 2a36 1C       		.uleb128 0x1c
 11903 2a37 E0040000 		.4byte	0x4e0
 11904 2a3b 45210000 		.4byte	.LLST232
 11905 2a3f 00       		.byte	0
 11906 2a40 28       		.uleb128 0x28
 11907 2a41 B2010000 		.4byte	.LVL831
 11908 2a45 6A050000 		.4byte	0x56a
 11909 2a49 26       		.uleb128 0x26
 11910 2a4a 4C020000 		.4byte	.LVL832
 11911 2a4e FA300000 		.4byte	0x30fa
 11912 2a52 6E2A0000 		.4byte	0x2a6e
 11913 2a56 1F       		.uleb128 0x1f
 11914 2a57 01       		.uleb128 0x1
 11915 2a58 50       		.byte	0x50
 11916 2a59 02       		.uleb128 0x2
 11917 2a5a 79       		.byte	0x79
 11918 2a5b 00       		.sleb128 0
 11919 2a5c 1F       		.uleb128 0x1f
 11920 2a5d 01       		.uleb128 0x1
 11921 2a5e 51       		.byte	0x51
 11922 2a5f 08       		.uleb128 0x8
 11923 2a60 76       		.byte	0x76
 11924 2a61 00       		.sleb128 0
 11925 2a62 75       		.byte	0x75
 11926 2a63 00       		.sleb128 0
 11927 2a64 22       		.byte	0x22
 11928 2a65 23       		.byte	0x23
 11929 2a66 A801     		.uleb128 0xa8
ARM GAS  C:\Users\user\AppData\Local\Temp\cc6TIdBD.s 			page 240


 11930 2a68 1F       		.uleb128 0x1f
 11931 2a69 01       		.uleb128 0x1
 11932 2a6a 52       		.byte	0x52
 11933 2a6b 01       		.uleb128 0x1
 11934 2a6c 34       		.byte	0x34
 11935 2a6d 00       		.byte	0
 11936 2a6e 26       		.uleb128 0x26
 11937 2a6f 60020000 		.4byte	.LVL833
 11938 2a73 FA300000 		.4byte	0x30fa
 11939 2a77 932A0000 		.4byte	0x2a93
 11940 2a7b 1F       		.uleb128 0x1f
 11941 2a7c 01       		.uleb128 0x1
 11942 2a7d 50       		.byte	0x50
 11943 2a7e 02       		.uleb128 0x2
 11944 2a7f 78       		.byte	0x78
 11945 2a80 00       		.sleb128 0
 11946 2a81 1F       		.uleb128 0x1f
 11947 2a82 01       		.uleb128 0x1
 11948 2a83 51       		.byte	0x51
 11949 2a84 08       		.uleb128 0x8
 11950 2a85 76       		.byte	0x76
 11951 2a86 00       		.sleb128 0
 11952 2a87 75       		.byte	0x75
 11953 2a88 00       		.sleb128 0
 11954 2a89 22       		.byte	0x22
 11955 2a8a 23       		.byte	0x23
 11956 2a8b B801     		.uleb128 0xb8
 11957 2a8d 1F       		.uleb128 0x1f
 11958 2a8e 01       		.uleb128 0x1
 11959 2a8f 52       		.byte	0x52
 11960 2a90 01       		.uleb128 0x1
 11961 2a91 32       		.byte	0x32
 11962 2a92 00       		.byte	0
 11963 2a93 26       		.uleb128 0x26
 11964 2a94 74020000 		.4byte	.LVL835
 11965 2a98 FA300000 		.4byte	0x30fa
 11966 2a9c B82A0000 		.4byte	0x2ab8
 11967 2aa0 1F       		.uleb128 0x1f
 11968 2aa1 01       		.uleb128 0x1
 11969 2aa2 50       		.byte	0x50
 11970 2aa3 02       		.uleb128 0x2
 11971 2aa4 77       		.byte	0x77
 11972 2aa5 00       		.sleb128 0
 11973 2aa6 1F       		.uleb128 0x1f
 11974 2aa7 01       		.uleb128 0x1
 11975 2aa8 51       		.byte	0x51
 11976 2aa9 08       		.uleb128 0x8
 11977 2aaa 76       		.byte	0x76
 11978 2aab 00       		.sleb128 0
 11979 2aac 75       		.byte	0x75
 11980 2aad 00       		.sleb128 0
 11981 2aae 22       		.byte	0x22
 11982 2aaf 23       		.byte	0x23
 11983 2ab0 C001     		.uleb128 0xc0
 11984 2ab2 1F       		.uleb128 0x1f
 11985 2ab3 01       		.uleb128 0x1
 11986 2ab4 52       		.byte	0x52
ARM GAS  C:\Users\user\AppData\Local\Temp\cc6TIdBD.s 			page 241


 11987 2ab5 01       		.uleb128 0x1
 11988 2ab6 32       		.byte	0x32
 11989 2ab7 00       		.byte	0
 11990 2ab8 26       		.uleb128 0x26
 11991 2ab9 8C020000 		.4byte	.LVL836
 11992 2abd FA300000 		.4byte	0x30fa
 11993 2ac1 DE2A0000 		.4byte	0x2ade
 11994 2ac5 1F       		.uleb128 0x1f
 11995 2ac6 01       		.uleb128 0x1
 11996 2ac7 50       		.byte	0x50
 11997 2ac8 03       		.uleb128 0x3
 11998 2ac9 7D       		.byte	0x7d
 11999 2aca 00       		.sleb128 0
 12000 2acb 06       		.byte	0x6
 12001 2acc 1F       		.uleb128 0x1f
 12002 2acd 01       		.uleb128 0x1
 12003 2ace 51       		.byte	0x51
 12004 2acf 08       		.uleb128 0x8
 12005 2ad0 76       		.byte	0x76
 12006 2ad1 00       		.sleb128 0
 12007 2ad2 75       		.byte	0x75
 12008 2ad3 00       		.sleb128 0
 12009 2ad4 22       		.byte	0x22
 12010 2ad5 23       		.byte	0x23
 12011 2ad6 C801     		.uleb128 0xc8
 12012 2ad8 1F       		.uleb128 0x1f
 12013 2ad9 01       		.uleb128 0x1
 12014 2ada 52       		.byte	0x52
 12015 2adb 01       		.uleb128 0x1
 12016 2adc 32       		.byte	0x32
 12017 2add 00       		.byte	0
 12018 2ade 26       		.uleb128 0x26
 12019 2adf A4020000 		.4byte	.LVL837
 12020 2ae3 FA300000 		.4byte	0x30fa
 12021 2ae7 042B0000 		.4byte	0x2b04
 12022 2aeb 1F       		.uleb128 0x1f
 12023 2aec 01       		.uleb128 0x1
 12024 2aed 50       		.byte	0x50
 12025 2aee 03       		.uleb128 0x3
 12026 2aef 91       		.byte	0x91
 12027 2af0 54       		.sleb128 -44
 12028 2af1 06       		.byte	0x6
 12029 2af2 1F       		.uleb128 0x1f
 12030 2af3 01       		.uleb128 0x1
 12031 2af4 51       		.byte	0x51
 12032 2af5 08       		.uleb128 0x8
 12033 2af6 76       		.byte	0x76
 12034 2af7 00       		.sleb128 0
 12035 2af8 75       		.byte	0x75
 12036 2af9 00       		.sleb128 0
 12037 2afa 22       		.byte	0x22
 12038 2afb 23       		.byte	0x23
 12039 2afc D001     		.uleb128 0xd0
 12040 2afe 1F       		.uleb128 0x1f
 12041 2aff 01       		.uleb128 0x1
 12042 2b00 52       		.byte	0x52
 12043 2b01 01       		.uleb128 0x1
ARM GAS  C:\Users\user\AppData\Local\Temp\cc6TIdBD.s 			page 242


 12044 2b02 32       		.byte	0x32
 12045 2b03 00       		.byte	0
 12046 2b04 26       		.uleb128 0x26
 12047 2b05 56030000 		.4byte	.LVL850
 12048 2b09 06310000 		.4byte	0x3106
 12049 2b0d 292B0000 		.4byte	0x2b29
 12050 2b11 1F       		.uleb128 0x1f
 12051 2b12 01       		.uleb128 0x1
 12052 2b13 50       		.byte	0x50
 12053 2b14 02       		.uleb128 0x2
 12054 2b15 79       		.byte	0x79
 12055 2b16 00       		.sleb128 0
 12056 2b17 1F       		.uleb128 0x1f
 12057 2b18 01       		.uleb128 0x1
 12058 2b19 51       		.byte	0x51
 12059 2b1a 08       		.uleb128 0x8
 12060 2b1b 76       		.byte	0x76
 12061 2b1c 00       		.sleb128 0
 12062 2b1d 75       		.byte	0x75
 12063 2b1e 00       		.sleb128 0
 12064 2b1f 22       		.byte	0x22
 12065 2b20 23       		.byte	0x23
 12066 2b21 E001     		.uleb128 0xe0
 12067 2b23 1F       		.uleb128 0x1f
 12068 2b24 01       		.uleb128 0x1
 12069 2b25 52       		.byte	0x52
 12070 2b26 01       		.uleb128 0x1
 12071 2b27 34       		.byte	0x34
 12072 2b28 00       		.byte	0
 12073 2b29 26       		.uleb128 0x26
 12074 2b2a 66030000 		.4byte	.LVL851
 12075 2b2e 06310000 		.4byte	0x3106
 12076 2b32 482B0000 		.4byte	0x2b48
 12077 2b36 1F       		.uleb128 0x1f
 12078 2b37 01       		.uleb128 0x1
 12079 2b38 50       		.byte	0x50
 12080 2b39 02       		.uleb128 0x2
 12081 2b3a 78       		.byte	0x78
 12082 2b3b 00       		.sleb128 0
 12083 2b3c 1F       		.uleb128 0x1f
 12084 2b3d 01       		.uleb128 0x1
 12085 2b3e 51       		.byte	0x51
 12086 2b3f 02       		.uleb128 0x2
 12087 2b40 7A       		.byte	0x7a
 12088 2b41 00       		.sleb128 0
 12089 2b42 1F       		.uleb128 0x1f
 12090 2b43 01       		.uleb128 0x1
 12091 2b44 52       		.byte	0x52
 12092 2b45 01       		.uleb128 0x1
 12093 2b46 32       		.byte	0x32
 12094 2b47 00       		.byte	0
 12095 2b48 26       		.uleb128 0x26
 12096 2b49 72030000 		.4byte	.LVL852
 12097 2b4d 06310000 		.4byte	0x3106
 12098 2b51 672B0000 		.4byte	0x2b67
 12099 2b55 1F       		.uleb128 0x1f
 12100 2b56 01       		.uleb128 0x1
ARM GAS  C:\Users\user\AppData\Local\Temp\cc6TIdBD.s 			page 243


 12101 2b57 50       		.byte	0x50
 12102 2b58 02       		.uleb128 0x2
 12103 2b59 77       		.byte	0x77
 12104 2b5a 00       		.sleb128 0
 12105 2b5b 1F       		.uleb128 0x1f
 12106 2b5c 01       		.uleb128 0x1
 12107 2b5d 51       		.byte	0x51
 12108 2b5e 02       		.uleb128 0x2
 12109 2b5f 7A       		.byte	0x7a
 12110 2b60 04       		.sleb128 4
 12111 2b61 1F       		.uleb128 0x1f
 12112 2b62 01       		.uleb128 0x1
 12113 2b63 52       		.byte	0x52
 12114 2b64 01       		.uleb128 0x1
 12115 2b65 32       		.byte	0x32
 12116 2b66 00       		.byte	0
 12117 2b67 26       		.uleb128 0x26
 12118 2b68 80030000 		.4byte	.LVL853
 12119 2b6c 06310000 		.4byte	0x3106
 12120 2b70 872B0000 		.4byte	0x2b87
 12121 2b74 1F       		.uleb128 0x1f
 12122 2b75 01       		.uleb128 0x1
 12123 2b76 50       		.byte	0x50
 12124 2b77 03       		.uleb128 0x3
 12125 2b78 7D       		.byte	0x7d
 12126 2b79 00       		.sleb128 0
 12127 2b7a 06       		.byte	0x6
 12128 2b7b 1F       		.uleb128 0x1f
 12129 2b7c 01       		.uleb128 0x1
 12130 2b7d 51       		.byte	0x51
 12131 2b7e 02       		.uleb128 0x2
 12132 2b7f 76       		.byte	0x76
 12133 2b80 00       		.sleb128 0
 12134 2b81 1F       		.uleb128 0x1f
 12135 2b82 01       		.uleb128 0x1
 12136 2b83 52       		.byte	0x52
 12137 2b84 01       		.uleb128 0x1
 12138 2b85 32       		.byte	0x32
 12139 2b86 00       		.byte	0
 12140 2b87 26       		.uleb128 0x26
 12141 2b88 8A030000 		.4byte	.LVL854
 12142 2b8c 06310000 		.4byte	0x3106
 12143 2b90 A72B0000 		.4byte	0x2ba7
 12144 2b94 1F       		.uleb128 0x1f
 12145 2b95 01       		.uleb128 0x1
 12146 2b96 50       		.byte	0x50
 12147 2b97 03       		.uleb128 0x3
 12148 2b98 91       		.byte	0x91
 12149 2b99 54       		.sleb128 -44
 12150 2b9a 06       		.byte	0x6
 12151 2b9b 1F       		.uleb128 0x1f
 12152 2b9c 01       		.uleb128 0x1
 12153 2b9d 51       		.byte	0x51
 12154 2b9e 02       		.uleb128 0x2
 12155 2b9f 76       		.byte	0x76
 12156 2ba0 04       		.sleb128 4
 12157 2ba1 1F       		.uleb128 0x1f
ARM GAS  C:\Users\user\AppData\Local\Temp\cc6TIdBD.s 			page 244


 12158 2ba2 01       		.uleb128 0x1
 12159 2ba3 52       		.byte	0x52
 12160 2ba4 01       		.uleb128 0x1
 12161 2ba5 32       		.byte	0x32
 12162 2ba6 00       		.byte	0
 12163 2ba7 26       		.uleb128 0x26
 12164 2ba8 24040000 		.4byte	.LVL867
 12165 2bac 12310000 		.4byte	0x3112
 12166 2bb0 CC2B0000 		.4byte	0x2bcc
 12167 2bb4 1F       		.uleb128 0x1f
 12168 2bb5 01       		.uleb128 0x1
 12169 2bb6 50       		.byte	0x50
 12170 2bb7 02       		.uleb128 0x2
 12171 2bb8 79       		.byte	0x79
 12172 2bb9 00       		.sleb128 0
 12173 2bba 1F       		.uleb128 0x1f
 12174 2bbb 01       		.uleb128 0x1
 12175 2bbc 51       		.byte	0x51
 12176 2bbd 08       		.uleb128 0x8
 12177 2bbe 76       		.byte	0x76
 12178 2bbf 00       		.sleb128 0
 12179 2bc0 75       		.byte	0x75
 12180 2bc1 00       		.sleb128 0
 12181 2bc2 22       		.byte	0x22
 12182 2bc3 23       		.byte	0x23
 12183 2bc4 FC01     		.uleb128 0xfc
 12184 2bc6 1F       		.uleb128 0x1f
 12185 2bc7 01       		.uleb128 0x1
 12186 2bc8 52       		.byte	0x52
 12187 2bc9 01       		.uleb128 0x1
 12188 2bca 34       		.byte	0x34
 12189 2bcb 00       		.byte	0
 12190 2bcc 26       		.uleb128 0x26
 12191 2bcd 34040000 		.4byte	.LVL868
 12192 2bd1 12310000 		.4byte	0x3112
 12193 2bd5 EB2B0000 		.4byte	0x2beb
 12194 2bd9 1F       		.uleb128 0x1f
 12195 2bda 01       		.uleb128 0x1
 12196 2bdb 50       		.byte	0x50
 12197 2bdc 02       		.uleb128 0x2
 12198 2bdd 78       		.byte	0x78
 12199 2bde 00       		.sleb128 0
 12200 2bdf 1F       		.uleb128 0x1f
 12201 2be0 01       		.uleb128 0x1
 12202 2be1 51       		.byte	0x51
 12203 2be2 02       		.uleb128 0x2
 12204 2be3 76       		.byte	0x76
 12205 2be4 00       		.sleb128 0
 12206 2be5 1F       		.uleb128 0x1f
 12207 2be6 01       		.uleb128 0x1
 12208 2be7 52       		.byte	0x52
 12209 2be8 01       		.uleb128 0x1
 12210 2be9 32       		.byte	0x32
 12211 2bea 00       		.byte	0
 12212 2beb 26       		.uleb128 0x26
 12213 2bec 3E040000 		.4byte	.LVL869
 12214 2bf0 12310000 		.4byte	0x3112
ARM GAS  C:\Users\user\AppData\Local\Temp\cc6TIdBD.s 			page 245


 12215 2bf4 0A2C0000 		.4byte	0x2c0a
 12216 2bf8 1F       		.uleb128 0x1f
 12217 2bf9 01       		.uleb128 0x1
 12218 2bfa 50       		.byte	0x50
 12219 2bfb 02       		.uleb128 0x2
 12220 2bfc 77       		.byte	0x77
 12221 2bfd 00       		.sleb128 0
 12222 2bfe 1F       		.uleb128 0x1f
 12223 2bff 01       		.uleb128 0x1
 12224 2c00 51       		.byte	0x51
 12225 2c01 02       		.uleb128 0x2
 12226 2c02 76       		.byte	0x76
 12227 2c03 02       		.sleb128 2
 12228 2c04 1F       		.uleb128 0x1f
 12229 2c05 01       		.uleb128 0x1
 12230 2c06 52       		.byte	0x52
 12231 2c07 01       		.uleb128 0x1
 12232 2c08 32       		.byte	0x32
 12233 2c09 00       		.byte	0
 12234 2c0a 26       		.uleb128 0x26
 12235 2c0b 48040000 		.4byte	.LVL870
 12236 2c0f 12310000 		.4byte	0x3112
 12237 2c13 2A2C0000 		.4byte	0x2c2a
 12238 2c17 1F       		.uleb128 0x1f
 12239 2c18 01       		.uleb128 0x1
 12240 2c19 50       		.byte	0x50
 12241 2c1a 03       		.uleb128 0x3
 12242 2c1b 7D       		.byte	0x7d
 12243 2c1c 00       		.sleb128 0
 12244 2c1d 06       		.byte	0x6
 12245 2c1e 1F       		.uleb128 0x1f
 12246 2c1f 01       		.uleb128 0x1
 12247 2c20 51       		.byte	0x51
 12248 2c21 02       		.uleb128 0x2
 12249 2c22 76       		.byte	0x76
 12250 2c23 04       		.sleb128 4
 12251 2c24 1F       		.uleb128 0x1f
 12252 2c25 01       		.uleb128 0x1
 12253 2c26 52       		.byte	0x52
 12254 2c27 01       		.uleb128 0x1
 12255 2c28 32       		.byte	0x32
 12256 2c29 00       		.byte	0
 12257 2c2a 1E       		.uleb128 0x1e
 12258 2c2b 52040000 		.4byte	.LVL871
 12259 2c2f 12310000 		.4byte	0x3112
 12260 2c33 1F       		.uleb128 0x1f
 12261 2c34 01       		.uleb128 0x1
 12262 2c35 50       		.byte	0x50
 12263 2c36 03       		.uleb128 0x3
 12264 2c37 91       		.byte	0x91
 12265 2c38 54       		.sleb128 -44
 12266 2c39 06       		.byte	0x6
 12267 2c3a 1F       		.uleb128 0x1f
 12268 2c3b 01       		.uleb128 0x1
 12269 2c3c 51       		.byte	0x51
 12270 2c3d 02       		.uleb128 0x2
 12271 2c3e 76       		.byte	0x76
ARM GAS  C:\Users\user\AppData\Local\Temp\cc6TIdBD.s 			page 246


 12272 2c3f 06       		.sleb128 6
 12273 2c40 1F       		.uleb128 0x1f
 12274 2c41 01       		.uleb128 0x1
 12275 2c42 52       		.byte	0x52
 12276 2c43 01       		.uleb128 0x1
 12277 2c44 32       		.byte	0x32
 12278 2c45 00       		.byte	0
 12279 2c46 00       		.byte	0
 12280 2c47 2D       		.uleb128 0x2d
 12281 2c48 4E060000 		.4byte	.LASF118
 12282 2c4c 01       		.byte	0x1
 12283 2c4d BA03     		.2byte	0x3ba
 12284 2c4f 00000000 		.4byte	.LFB164
 12285 2c53 10000000 		.4byte	.LFE164-.LFB164
 12286 2c57 01       		.uleb128 0x1
 12287 2c58 9C       		.byte	0x9c
 12288 2c59 6E2C0000 		.4byte	0x2c6e
 12289 2c5d 22       		.uleb128 0x22
 12290 2c5e F8040000 		.4byte	.LASF119
 12291 2c62 01       		.byte	0x1
 12292 2c63 BA03     		.2byte	0x3ba
 12293 2c65 22010000 		.4byte	0x122
 12294 2c69 58210000 		.4byte	.LLST233
 12295 2c6d 00       		.byte	0
 12296 2c6e 31       		.uleb128 0x31
 12297 2c6f A7040000 		.4byte	.LASF182
 12298 2c73 01       		.byte	0x1
 12299 2c74 C003     		.2byte	0x3c0
 12300 2c76 22010000 		.4byte	0x122
 12301 2c7a 00000000 		.4byte	.LFB165
 12302 2c7e 0C000000 		.4byte	.LFE165-.LFB165
 12303 2c82 01       		.uleb128 0x1
 12304 2c83 9C       		.byte	0x9c
 12305 2c84 2D       		.uleb128 0x2d
 12306 2c85 BA060000 		.4byte	.LASF120
 12307 2c89 01       		.byte	0x1
 12308 2c8a C803     		.2byte	0x3c8
 12309 2c8c 00000000 		.4byte	.LFB166
 12310 2c90 7C000000 		.4byte	.LFE166-.LFB166
 12311 2c94 01       		.uleb128 0x1
 12312 2c95 9C       		.byte	0x9c
 12313 2c96 DF2C0000 		.4byte	0x2cdf
 12314 2c9a 22       		.uleb128 0x22
 12315 2c9b C5060000 		.4byte	.LASF121
 12316 2c9f 01       		.byte	0x1
 12317 2ca0 C803     		.2byte	0x3c8
 12318 2ca2 25000000 		.4byte	0x25
 12319 2ca6 76210000 		.4byte	.LLST234
 12320 2caa 18       		.uleb128 0x18
 12321 2cab 7000     		.ascii	"p\000"
 12322 2cad 01       		.byte	0x1
 12323 2cae CA03     		.2byte	0x3ca
 12324 2cb0 22010000 		.4byte	0x122
 12325 2cb4 99210000 		.4byte	.LLST235
 12326 2cb8 2A       		.uleb128 0x2a
 12327 2cb9 06000000 		.4byte	.LBB412
 12328 2cbd 42000000 		.4byte	.LBE412-.LBB412
ARM GAS  C:\Users\user\AppData\Local\Temp\cc6TIdBD.s 			page 247


 12329 2cc1 D52C0000 		.4byte	0x2cd5
 12330 2cc5 18       		.uleb128 0x18
 12331 2cc6 6C7000   		.ascii	"lp\000"
 12332 2cc9 01       		.byte	0x1
 12333 2cca CC03     		.2byte	0x3cc
 12334 2ccc FE050000 		.4byte	0x5fe
 12335 2cd0 C3210000 		.4byte	.LLST236
 12336 2cd4 00       		.byte	0
 12337 2cd5 28       		.uleb128 0x28
 12338 2cd6 60000000 		.4byte	.LVL893
 12339 2cda 1E310000 		.4byte	0x311e
 12340 2cde 00       		.byte	0
 12341 2cdf 2D       		.uleb128 0x2d
 12342 2ce0 38080000 		.4byte	.LASF122
 12343 2ce4 01       		.byte	0x1
 12344 2ce5 E703     		.2byte	0x3e7
 12345 2ce7 00000000 		.4byte	.LFB167
 12346 2ceb 14000000 		.4byte	.LFE167-.LFB167
 12347 2cef 01       		.uleb128 0x1
 12348 2cf0 9C       		.byte	0x9c
 12349 2cf1 FF2C0000 		.4byte	0x2cff
 12350 2cf5 28       		.uleb128 0x28
 12351 2cf6 0E000000 		.4byte	.LVL894
 12352 2cfa 29310000 		.4byte	0x3129
 12353 2cfe 00       		.byte	0
 12354 2cff 2D       		.uleb128 0x2d
 12355 2d00 D5040000 		.4byte	.LASF123
 12356 2d04 01       		.byte	0x1
 12357 2d05 F003     		.2byte	0x3f0
 12358 2d07 00000000 		.4byte	.LFB168
 12359 2d0b 0C000000 		.4byte	.LFE168-.LFB168
 12360 2d0f 01       		.uleb128 0x1
 12361 2d10 9C       		.byte	0x9c
 12362 2d11 242D0000 		.4byte	0x2d24
 12363 2d15 32       		.uleb128 0x32
 12364 2d16 C5060000 		.4byte	.LASF121
 12365 2d1a 01       		.byte	0x1
 12366 2d1b F003     		.2byte	0x3f0
 12367 2d1d 25000000 		.4byte	0x25
 12368 2d21 01       		.uleb128 0x1
 12369 2d22 50       		.byte	0x50
 12370 2d23 00       		.byte	0
 12371 2d24 2E       		.uleb128 0x2e
 12372 2d25 EB040000 		.4byte	.LASF124
 12373 2d29 01       		.byte	0x1
 12374 2d2a F803     		.2byte	0x3f8
 12375 2d2c 00000000 		.4byte	.LFB169
 12376 2d30 48000000 		.4byte	.LFE169-.LFB169
 12377 2d34 01       		.uleb128 0x1
 12378 2d35 9C       		.byte	0x9c
 12379 2d36 5B2D0000 		.4byte	0x2d5b
 12380 2d3a 22       		.uleb128 0x22
 12381 2d3b EC010000 		.4byte	.LASF125
 12382 2d3f 01       		.byte	0x1
 12383 2d40 F803     		.2byte	0x3f8
 12384 2d42 25000000 		.4byte	0x25
 12385 2d46 F9210000 		.4byte	.LLST237
ARM GAS  C:\Users\user\AppData\Local\Temp\cc6TIdBD.s 			page 248


 12386 2d4a 22       		.uleb128 0x22
 12387 2d4b 7F000000 		.4byte	.LASF126
 12388 2d4f 01       		.byte	0x1
 12389 2d50 F803     		.2byte	0x3f8
 12390 2d52 25000000 		.4byte	0x25
 12391 2d56 27220000 		.4byte	.LLST238
 12392 2d5a 00       		.byte	0
 12393 2d5b 2E       		.uleb128 0x2e
 12394 2d5c B2030000 		.4byte	.LASF127
 12395 2d60 01       		.byte	0x1
 12396 2d61 0504     		.2byte	0x405
 12397 2d63 00000000 		.4byte	.LFB170
 12398 2d67 A0010000 		.4byte	.LFE170-.LFB170
 12399 2d6b 01       		.uleb128 0x1
 12400 2d6c 9C       		.byte	0x9c
 12401 2d6d ED2E0000 		.4byte	0x2eed
 12402 2d71 25       		.uleb128 0x25
 12403 2d72 39010000 		.4byte	.LASF128
 12404 2d76 01       		.byte	0x1
 12405 2d77 0704     		.2byte	0x407
 12406 2d79 52010000 		.4byte	0x152
 12407 2d7d 02       		.uleb128 0x2
 12408 2d7e 91       		.byte	0x91
 12409 2d7f 64       		.sleb128 -28
 12410 2d80 25       		.uleb128 0x25
 12411 2d81 C8010000 		.4byte	.LASF129
 12412 2d85 01       		.byte	0x1
 12413 2d86 0804     		.2byte	0x408
 12414 2d88 46010000 		.4byte	0x146
 12415 2d8c 02       		.uleb128 0x2
 12416 2d8d 91       		.byte	0x91
 12417 2d8e 62       		.sleb128 -30
 12418 2d8f 23       		.uleb128 0x23
 12419 2d90 59000000 		.4byte	.LASF130
 12420 2d94 01       		.byte	0x1
 12421 2d95 1104     		.2byte	0x411
 12422 2d97 25000000 		.4byte	0x25
 12423 2d9b 55220000 		.4byte	.LLST239
 12424 2d9f 18       		.uleb128 0x18
 12425 2da0 793100   		.ascii	"y1\000"
 12426 2da3 01       		.byte	0x1
 12427 2da4 1304     		.2byte	0x413
 12428 2da6 25000000 		.4byte	0x25
 12429 2daa 73220000 		.4byte	.LLST240
 12430 2dae 23       		.uleb128 0x23
 12431 2daf 83050000 		.4byte	.LASF131
 12432 2db3 01       		.byte	0x1
 12433 2db4 1604     		.2byte	0x416
 12434 2db6 25000000 		.4byte	0x25
 12435 2dba 91220000 		.4byte	.LLST241
 12436 2dbe 18       		.uleb128 0x18
 12437 2dbf 793200   		.ascii	"y2\000"
 12438 2dc2 01       		.byte	0x1
 12439 2dc3 1804     		.2byte	0x418
 12440 2dc5 25000000 		.4byte	0x25
 12441 2dc9 AF220000 		.4byte	.LLST242
 12442 2dcd 23       		.uleb128 0x23
ARM GAS  C:\Users\user\AppData\Local\Temp\cc6TIdBD.s 			page 249


 12443 2dce 42080000 		.4byte	.LASF132
 12444 2dd2 01       		.byte	0x1
 12445 2dd3 1A04     		.2byte	0x41a
 12446 2dd5 FE050000 		.4byte	0x5fe
 12447 2dd9 CD220000 		.4byte	.LLST243
 12448 2ddd 23       		.uleb128 0x23
 12449 2dde B4070000 		.4byte	.LASF133
 12450 2de2 01       		.byte	0x1
 12451 2de3 1B04     		.2byte	0x41b
 12452 2de5 FE050000 		.4byte	0x5fe
 12453 2de9 E5220000 		.4byte	.LLST244
 12454 2ded 18       		.uleb128 0x18
 12455 2dee 753100   		.ascii	"u1\000"
 12456 2df1 01       		.byte	0x1
 12457 2df2 1D04     		.2byte	0x41d
 12458 2df4 25000000 		.4byte	0x25
 12459 2df8 FD220000 		.4byte	.LLST245
 12460 2dfc 18       		.uleb128 0x18
 12461 2dfd 753200   		.ascii	"u2\000"
 12462 2e00 01       		.byte	0x1
 12463 2e01 1E04     		.2byte	0x41e
 12464 2e03 25000000 		.4byte	0x25
 12465 2e07 82230000 		.4byte	.LLST246
 12466 2e0b 2A       		.uleb128 0x2a
 12467 2e0c 30010000 		.4byte	.LBB413
 12468 2e10 44000000 		.4byte	.LBE413-.LBB413
 12469 2e14 3B2E0000 		.4byte	0x2e3b
 12470 2e18 23       		.uleb128 0x23
 12471 2e19 6D040000 		.4byte	.LASF134
 12472 2e1d 01       		.byte	0x1
 12473 2e1e 4304     		.2byte	0x443
 12474 2e20 22010000 		.4byte	0x122
 12475 2e24 C5230000 		.4byte	.LLST247
 12476 2e28 28       		.uleb128 0x28
 12477 2e29 34010000 		.4byte	.LVL945
 12478 2e2d 34310000 		.4byte	0x3134
 12479 2e31 28       		.uleb128 0x28
 12480 2e32 74010000 		.4byte	.LVL946
 12481 2e36 3F310000 		.4byte	0x313f
 12482 2e3a 00       		.byte	0
 12483 2e3b 28       		.uleb128 0x28
 12484 2e3c 10000000 		.4byte	.LVL903
 12485 2e40 29310000 		.4byte	0x3129
 12486 2e44 26       		.uleb128 0x26
 12487 2e45 1C000000 		.4byte	.LVL904
 12488 2e49 4A310000 		.4byte	0x314a
 12489 2e4d 5E2E0000 		.4byte	0x2e5e
 12490 2e51 1F       		.uleb128 0x1f
 12491 2e52 01       		.uleb128 0x1
 12492 2e53 50       		.byte	0x50
 12493 2e54 02       		.uleb128 0x2
 12494 2e55 91       		.byte	0x91
 12495 2e56 64       		.sleb128 -28
 12496 2e57 1F       		.uleb128 0x1f
 12497 2e58 01       		.uleb128 0x1
 12498 2e59 51       		.byte	0x51
 12499 2e5a 02       		.uleb128 0x2
ARM GAS  C:\Users\user\AppData\Local\Temp\cc6TIdBD.s 			page 250


 12500 2e5b 91       		.byte	0x91
 12501 2e5c 62       		.sleb128 -30
 12502 2e5d 00       		.byte	0
 12503 2e5e 26       		.uleb128 0x26
 12504 2e5f B8000000 		.4byte	.LVL926
 12505 2e63 02260000 		.4byte	0x2602
 12506 2e67 7A2E0000 		.4byte	0x2e7a
 12507 2e6b 1F       		.uleb128 0x1f
 12508 2e6c 01       		.uleb128 0x1
 12509 2e6d 50       		.byte	0x50
 12510 2e6e 03       		.uleb128 0x3
 12511 2e6f 74       		.byte	0x74
 12512 2e70 9002     		.sleb128 272
 12513 2e72 1F       		.uleb128 0x1f
 12514 2e73 01       		.uleb128 0x1
 12515 2e74 51       		.byte	0x51
 12516 2e75 03       		.uleb128 0x3
 12517 2e76 F5       		.byte	0xf5
 12518 2e77 06       		.uleb128 0x6
 12519 2e78 25       		.uleb128 0x25
 12520 2e79 00       		.byte	0
 12521 2e7a 26       		.uleb128 0x26
 12522 2e7b D2000000 		.4byte	.LVL928
 12523 2e7f 02260000 		.4byte	0x2602
 12524 2e83 982E0000 		.4byte	0x2e98
 12525 2e87 1F       		.uleb128 0x1f
 12526 2e88 01       		.uleb128 0x1
 12527 2e89 50       		.byte	0x50
 12528 2e8a 05       		.uleb128 0x5
 12529 2e8b 03       		.byte	0x3
 12530 2e8c 04000000 		.4byte	.LANCHOR0+4
 12531 2e90 1F       		.uleb128 0x1f
 12532 2e91 01       		.uleb128 0x1
 12533 2e92 51       		.byte	0x51
 12534 2e93 03       		.uleb128 0x3
 12535 2e94 F5       		.byte	0xf5
 12536 2e95 05       		.uleb128 0x5
 12537 2e96 25       		.uleb128 0x25
 12538 2e97 00       		.byte	0
 12539 2e98 26       		.uleb128 0x26
 12540 2e99 E8000000 		.4byte	.LVL930
 12541 2e9d 27050000 		.4byte	0x527
 12542 2ea1 AD2E0000 		.4byte	0x2ead
 12543 2ea5 1F       		.uleb128 0x1f
 12544 2ea6 01       		.uleb128 0x1
 12545 2ea7 50       		.byte	0x50
 12546 2ea8 03       		.uleb128 0x3
 12547 2ea9 F5       		.byte	0xf5
 12548 2eaa 04       		.uleb128 0x4
 12549 2eab 25       		.uleb128 0x25
 12550 2eac 00       		.byte	0
 12551 2ead 28       		.uleb128 0x28
 12552 2eae EC000000 		.4byte	.LVL931
 12553 2eb2 55310000 		.4byte	0x3155
 12554 2eb6 28       		.uleb128 0x28
 12555 2eb7 F0000000 		.4byte	.LVL932
 12556 2ebb 60310000 		.4byte	0x3160
ARM GAS  C:\Users\user\AppData\Local\Temp\cc6TIdBD.s 			page 251


 12557 2ebf 28       		.uleb128 0x28
 12558 2ec0 FC000000 		.4byte	.LVL934
 12559 2ec4 27050000 		.4byte	0x527
 12560 2ec8 28       		.uleb128 0x28
 12561 2ec9 06010000 		.4byte	.LVL936
 12562 2ecd 60310000 		.4byte	0x3160
 12563 2ed1 28       		.uleb128 0x28
 12564 2ed2 1C010000 		.4byte	.LVL938
 12565 2ed6 27050000 		.4byte	0x527
 12566 2eda 28       		.uleb128 0x28
 12567 2edb 28010000 		.4byte	.LVL941
 12568 2edf 60310000 		.4byte	0x3160
 12569 2ee3 28       		.uleb128 0x28
 12570 2ee4 2E010000 		.4byte	.LVL943
 12571 2ee8 29310000 		.4byte	0x3129
 12572 2eec 00       		.byte	0
 12573 2eed 0C       		.uleb128 0xc
 12574 2eee F5030000 		.4byte	0x3f5
 12575 2ef2 FD2E0000 		.4byte	0x2efd
 12576 2ef6 0D       		.uleb128 0xd
 12577 2ef7 D1000000 		.4byte	0xd1
 12578 2efb 01       		.byte	0x1
 12579 2efc 00       		.byte	0
 12580 2efd 33       		.uleb128 0x33
 12581 2efe C2030000 		.4byte	.LASF135
 12582 2f02 01       		.byte	0x1
 12583 2f03 93       		.byte	0x93
 12584 2f04 ED2E0000 		.4byte	0x2eed
 12585 2f08 05       		.uleb128 0x5
 12586 2f09 03       		.byte	0x3
 12587 2f0a 04000000 		.4byte	g_lp
 12588 2f0e 33       		.uleb128 0x33
 12589 2f0f 73020000 		.4byte	.LASF136
 12590 2f13 01       		.byte	0x1
 12591 2f14 94       		.byte	0x94
 12592 2f15 25000000 		.4byte	0x25
 12593 2f19 05       		.uleb128 0x5
 12594 2f1a 03       		.byte	0x3
 12595 2f1b 08000000 		.4byte	g_Ts
 12596 2f1f 33       		.uleb128 0x33
 12597 2f20 43010000 		.4byte	.LASF137
 12598 2f24 01       		.byte	0x1
 12599 2f25 95       		.byte	0x95
 12600 2f26 22010000 		.4byte	0x122
 12601 2f2a 05       		.uleb128 0x5
 12602 2f2b 03       		.byte	0x3
 12603 2f2c 1C020000 		.4byte	g_running
 12604 2f30 33       		.uleb128 0x33
 12605 2f31 3B020000 		.4byte	.LASF138
 12606 2f35 01       		.byte	0x1
 12607 2f36 98       		.byte	0x98
 12608 2f37 22010000 		.4byte	0x122
 12609 2f3b 05       		.uleb128 0x5
 12610 2f3c 03       		.byte	0x3
 12611 2f3d 00000000 		.4byte	g_num_type
 12612 2f41 33       		.uleb128 0x33
 12613 2f42 1C030000 		.4byte	.LASF139
ARM GAS  C:\Users\user\AppData\Local\Temp\cc6TIdBD.s 			page 252


 12614 2f46 01       		.byte	0x1
 12615 2f47 9B       		.byte	0x9b
 12616 2f48 25000000 		.4byte	0x25
 12617 2f4c 05       		.uleb128 0x5
 12618 2f4d 03       		.byte	0x3
 12619 2f4e 20020000 		.4byte	g_y1_filt
 12620 2f52 33       		.uleb128 0x33
 12621 2f53 C7030000 		.4byte	.LASF140
 12622 2f57 01       		.byte	0x1
 12623 2f58 9C       		.byte	0x9c
 12624 2f59 25000000 		.4byte	0x25
 12625 2f5d 05       		.uleb128 0x5
 12626 2f5e 03       		.byte	0x3
 12627 2f5f 24020000 		.4byte	g_y2_filt
 12628 2f63 33       		.uleb128 0x33
 12629 2f64 69010000 		.4byte	.LASF141
 12630 2f68 01       		.byte	0x1
 12631 2f69 AE       		.byte	0xae
 12632 2f6a 25000000 		.4byte	0x25
 12633 2f6e 05       		.uleb128 0x5
 12634 2f6f 03       		.byte	0x3
 12635 2f70 00000000 		.4byte	g_sat_min
 12636 2f74 33       		.uleb128 0x33
 12637 2f75 0B010000 		.4byte	.LASF142
 12638 2f79 01       		.byte	0x1
 12639 2f7a AF       		.byte	0xaf
 12640 2f7b 25000000 		.4byte	0x25
 12641 2f7f 05       		.uleb128 0x5
 12642 2f80 03       		.byte	0x3
 12643 2f81 04000000 		.4byte	g_sat_max
 12644 2f85 34       		.uleb128 0x34
 12645 2f86 2C010000 		.4byte	.LASF143
 12646 2f8a 06       		.byte	0x6
 12647 2f8b 9606     		.2byte	0x696
 12648 2f8d 912F0000 		.4byte	0x2f91
 12649 2f91 06       		.uleb128 0x6
 12650 2f92 B4000000 		.4byte	0xb4
 12651 2f96 35       		.uleb128 0x35
 12652 2f97 89060000 		.4byte	.LASF144
 12653 2f9b 01       		.byte	0x1
 12654 2f9c 9F       		.byte	0x9f
 12655 2f9d A72F0000 		.4byte	0x2fa7
 12656 2fa1 05       		.uleb128 0x5
 12657 2fa2 03       		.byte	0x3
 12658 2fa3 00000000 		.4byte	ctrl_telem_u1
 12659 2fa7 06       		.uleb128 0x6
 12660 2fa8 25000000 		.4byte	0x25
 12661 2fac 35       		.uleb128 0x35
 12662 2fad 15050000 		.4byte	.LASF145
 12663 2fb1 01       		.byte	0x1
 12664 2fb2 A0       		.byte	0xa0
 12665 2fb3 A72F0000 		.4byte	0x2fa7
 12666 2fb7 05       		.uleb128 0x5
 12667 2fb8 03       		.byte	0x3
 12668 2fb9 00000000 		.4byte	ctrl_telem_y1
 12669 2fbd 35       		.uleb128 0x35
 12670 2fbe 15010000 		.4byte	.LASF146
ARM GAS  C:\Users\user\AppData\Local\Temp\cc6TIdBD.s 			page 253


 12671 2fc2 01       		.byte	0x1
 12672 2fc3 A1       		.byte	0xa1
 12673 2fc4 A72F0000 		.4byte	0x2fa7
 12674 2fc8 05       		.uleb128 0x5
 12675 2fc9 03       		.byte	0x3
 12676 2fca 00000000 		.4byte	ctrl_telem_u2
 12677 2fce 35       		.uleb128 0x35
 12678 2fcf F9060000 		.4byte	.LASF147
 12679 2fd3 01       		.byte	0x1
 12680 2fd4 A2       		.byte	0xa2
 12681 2fd5 A72F0000 		.4byte	0x2fa7
 12682 2fd9 05       		.uleb128 0x5
 12683 2fda 03       		.byte	0x3
 12684 2fdb 00000000 		.4byte	ctrl_telem_y2
 12685 2fdf 35       		.uleb128 0x35
 12686 2fe0 5A010000 		.4byte	.LASF148
 12687 2fe4 01       		.byte	0x1
 12688 2fe5 A3       		.byte	0xa3
 12689 2fe6 A72F0000 		.4byte	0x2fa7
 12690 2fea 05       		.uleb128 0x5
 12691 2feb 03       		.byte	0x3
 12692 2fec 00000000 		.4byte	ctrl_telem_x1i
 12693 2ff0 35       		.uleb128 0x35
 12694 2ff1 BA020000 		.4byte	.LASF149
 12695 2ff5 01       		.byte	0x1
 12696 2ff6 A4       		.byte	0xa4
 12697 2ff7 A72F0000 		.4byte	0x2fa7
 12698 2ffb 05       		.uleb128 0x5
 12699 2ffc 03       		.byte	0x3
 12700 2ffd 00000000 		.4byte	ctrl_telem_x2i
 12701 3001 35       		.uleb128 0x35
 12702 3002 8E010000 		.4byte	.LASF150
 12703 3006 01       		.byte	0x1
 12704 3007 A5       		.byte	0xa5
 12705 3008 A72F0000 		.4byte	0x2fa7
 12706 300c 05       		.uleb128 0x5
 12707 300d 03       		.byte	0x3
 12708 300e 00000000 		.4byte	ctrl_telem_x1o
 12709 3012 35       		.uleb128 0x35
 12710 3013 ED020000 		.4byte	.LASF151
 12711 3017 01       		.byte	0x1
 12712 3018 A6       		.byte	0xa6
 12713 3019 A72F0000 		.4byte	0x2fa7
 12714 301d 05       		.uleb128 0x5
 12715 301e 03       		.byte	0x3
 12716 301f 00000000 		.4byte	ctrl_telem_x2o
 12717 3023 35       		.uleb128 0x35
 12718 3024 5D050000 		.4byte	.LASF152
 12719 3028 01       		.byte	0x1
 12720 3029 A7       		.byte	0xa7
 12721 302a 5E010000 		.4byte	0x15e
 12722 302e 05       		.uleb128 0x5
 12723 302f 03       		.byte	0x3
 12724 3030 00000000 		.4byte	ctrl_telem_ready
 12725 3034 35       		.uleb128 0x35
 12726 3035 01050000 		.4byte	.LASF153
 12727 3039 01       		.byte	0x1
ARM GAS  C:\Users\user\AppData\Local\Temp\cc6TIdBD.s 			page 254


 12728 303a AA       		.byte	0xaa
 12729 303b 5E010000 		.4byte	0x15e
 12730 303f 05       		.uleb128 0x5
 12731 3040 03       		.byte	0x3
 12732 3041 00000000 		.4byte	ctrl_period_pending
 12733 3045 35       		.uleb128 0x35
 12734 3046 46020000 		.4byte	.LASF154
 12735 304a 01       		.byte	0x1
 12736 304b AB       		.byte	0xab
 12737 304c 63010000 		.4byte	0x163
 12738 3050 05       		.uleb128 0x5
 12739 3051 03       		.byte	0x3
 12740 3052 00000000 		.4byte	ctrl_period_ticks
 12741 3056 36       		.uleb128 0x36
 12742 3057 7F010000 		.4byte	.LASF155
 12743 305b 07       		.byte	0x7
 12744 305c 3A       		.byte	0x3a
 12745 305d 5E010000 		.4byte	0x15e
 12746 3061 37       		.uleb128 0x37
 12747 3062 89020000 		.4byte	.LASF156
 12748 3066 89020000 		.4byte	.LASF156
 12749 306a 04       		.byte	0x4
 12750 306b 6A0A     		.2byte	0xa6a
 12751 306d 37       		.uleb128 0x37
 12752 306e 78030000 		.4byte	.LASF157
 12753 3072 78030000 		.4byte	.LASF157
 12754 3076 04       		.byte	0x4
 12755 3077 010A     		.2byte	0xa01
 12756 3079 37       		.uleb128 0x37
 12757 307a 0A040000 		.4byte	.LASF158
 12758 307e 0A040000 		.4byte	.LASF158
 12759 3082 04       		.byte	0x4
 12760 3083 8C09     		.2byte	0x98c
 12761 3085 37       		.uleb128 0x37
 12762 3086 6B060000 		.4byte	.LASF159
 12763 308a 6B060000 		.4byte	.LASF159
 12764 308e 04       		.byte	0x4
 12765 308f 5C0A     		.2byte	0xa5c
 12766 3091 37       		.uleb128 0x37
 12767 3092 F3000000 		.4byte	.LASF160
 12768 3096 F3000000 		.4byte	.LASF160
 12769 309a 04       		.byte	0x4
 12770 309b F109     		.2byte	0x9f1
 12771 309d 37       		.uleb128 0x37
 12772 309e 2F020000 		.4byte	.LASF161
 12773 30a2 2F020000 		.4byte	.LASF161
 12774 30a6 04       		.byte	0x4
 12775 30a7 7E09     		.2byte	0x97e
 12776 30a9 37       		.uleb128 0x37
 12777 30aa 65080000 		.4byte	.LASF162
 12778 30ae 65080000 		.4byte	.LASF162
 12779 30b2 04       		.byte	0x4
 12780 30b3 4E0A     		.2byte	0xa4e
 12781 30b5 37       		.uleb128 0x37
 12782 30b6 6D070000 		.4byte	.LASF163
 12783 30ba 6D070000 		.4byte	.LASF163
 12784 30be 04       		.byte	0x4
ARM GAS  C:\Users\user\AppData\Local\Temp\cc6TIdBD.s 			page 255


 12785 30bf E109     		.2byte	0x9e1
 12786 30c1 37       		.uleb128 0x37
 12787 30c2 6E050000 		.4byte	.LASF164
 12788 30c6 6E050000 		.4byte	.LASF164
 12789 30ca 04       		.byte	0x4
 12790 30cb 7009     		.2byte	0x970
 12791 30cd 37       		.uleb128 0x37
 12792 30ce 78020000 		.4byte	.LASF165
 12793 30d2 78020000 		.4byte	.LASF165
 12794 30d6 04       		.byte	0x4
 12795 30d7 400A     		.2byte	0xa40
 12796 30d9 37       		.uleb128 0x37
 12797 30da 58030000 		.4byte	.LASF166
 12798 30de 58030000 		.4byte	.LASF166
 12799 30e2 04       		.byte	0x4
 12800 30e3 D209     		.2byte	0x9d2
 12801 30e5 37       		.uleb128 0x37
 12802 30e6 ED030000 		.4byte	.LASF167
 12803 30ea ED030000 		.4byte	.LASF167
 12804 30ee 04       		.byte	0x4
 12805 30ef 6209     		.2byte	0x962
 12806 30f1 38       		.uleb128 0x38
 12807 30f2 96070000 		.4byte	.LASF183
 12808 30f6 96070000 		.4byte	.LASF183
 12809 30fa 37       		.uleb128 0x37
 12810 30fb F9030000 		.4byte	.LASF168
 12811 30ff F9030000 		.4byte	.LASF168
 12812 3103 04       		.byte	0x4
 12813 3104 C619     		.2byte	0x19c6
 12814 3106 37       		.uleb128 0x37
 12815 3107 1E020000 		.4byte	.LASF169
 12816 310b 1E020000 		.4byte	.LASF169
 12817 310f 04       		.byte	0x4
 12818 3110 D219     		.2byte	0x19d2
 12819 3112 37       		.uleb128 0x37
 12820 3113 89040000 		.4byte	.LASF170
 12821 3117 89040000 		.4byte	.LASF170
 12822 311b 04       		.byte	0x4
 12823 311c DE19     		.2byte	0x19de
 12824 311e 39       		.uleb128 0x39
 12825 311f 25060000 		.4byte	.LASF171
 12826 3123 25060000 		.4byte	.LASF171
 12827 3127 08       		.byte	0x8
 12828 3128 3B       		.byte	0x3b
 12829 3129 39       		.uleb128 0x39
 12830 312a E2020000 		.4byte	.LASF172
 12831 312e E2020000 		.4byte	.LASF172
 12832 3132 09       		.byte	0x9
 12833 3133 33       		.byte	0x33
 12834 3134 39       		.uleb128 0x39
 12835 3135 90030000 		.4byte	.LASF173
 12836 3139 90030000 		.4byte	.LASF173
 12837 313d 0A       		.byte	0xa
 12838 313e 7D       		.byte	0x7d
 12839 313f 39       		.uleb128 0x39
 12840 3140 21000000 		.4byte	.LASF174
 12841 3144 21000000 		.4byte	.LASF174
ARM GAS  C:\Users\user\AppData\Local\Temp\cc6TIdBD.s 			page 256


 12842 3148 0A       		.byte	0xa
 12843 3149 7E       		.byte	0x7e
 12844 314a 39       		.uleb128 0x39
 12845 314b 8A050000 		.4byte	.LASF175
 12846 314f 8A050000 		.4byte	.LASF175
 12847 3153 08       		.byte	0x8
 12848 3154 36       		.byte	0x36
 12849 3155 39       		.uleb128 0x39
 12850 3156 3C060000 		.4byte	.LASF176
 12851 315a 3C060000 		.4byte	.LASF176
 12852 315e 09       		.byte	0x9
 12853 315f 34       		.byte	0x34
 12854 3160 39       		.uleb128 0x39
 12855 3161 99040000 		.4byte	.LASF177
 12856 3165 99040000 		.4byte	.LASF177
 12857 3169 09       		.byte	0x9
 12858 316a 31       		.byte	0x31
 12859 316b 00       		.byte	0
 12860              		.section	.debug_abbrev,"",%progbits
 12861              	.Ldebug_abbrev0:
 12862 0000 01       		.uleb128 0x1
 12863 0001 11       		.uleb128 0x11
 12864 0002 01       		.byte	0x1
 12865 0003 25       		.uleb128 0x25
 12866 0004 0E       		.uleb128 0xe
 12867 0005 13       		.uleb128 0x13
 12868 0006 0B       		.uleb128 0xb
 12869 0007 03       		.uleb128 0x3
 12870 0008 0E       		.uleb128 0xe
 12871 0009 1B       		.uleb128 0x1b
 12872 000a 0E       		.uleb128 0xe
 12873 000b 55       		.uleb128 0x55
 12874 000c 17       		.uleb128 0x17
 12875 000d 11       		.uleb128 0x11
 12876 000e 01       		.uleb128 0x1
 12877 000f 10       		.uleb128 0x10
 12878 0010 17       		.uleb128 0x17
 12879 0011 00       		.byte	0
 12880 0012 00       		.byte	0
 12881 0013 02       		.uleb128 0x2
 12882 0014 24       		.uleb128 0x24
 12883 0015 00       		.byte	0
 12884 0016 0B       		.uleb128 0xb
 12885 0017 0B       		.uleb128 0xb
 12886 0018 3E       		.uleb128 0x3e
 12887 0019 0B       		.uleb128 0xb
 12888 001a 03       		.uleb128 0x3
 12889 001b 0E       		.uleb128 0xe
 12890 001c 00       		.byte	0
 12891 001d 00       		.byte	0
 12892 001e 03       		.uleb128 0x3
 12893 001f 16       		.uleb128 0x16
 12894 0020 00       		.byte	0
 12895 0021 03       		.uleb128 0x3
 12896 0022 0E       		.uleb128 0xe
 12897 0023 3A       		.uleb128 0x3a
 12898 0024 0B       		.uleb128 0xb
ARM GAS  C:\Users\user\AppData\Local\Temp\cc6TIdBD.s 			page 257


 12899 0025 3B       		.uleb128 0x3b
 12900 0026 0B       		.uleb128 0xb
 12901 0027 49       		.uleb128 0x49
 12902 0028 13       		.uleb128 0x13
 12903 0029 00       		.byte	0
 12904 002a 00       		.byte	0
 12905 002b 04       		.uleb128 0x4
 12906 002c 24       		.uleb128 0x24
 12907 002d 00       		.byte	0
 12908 002e 0B       		.uleb128 0xb
 12909 002f 0B       		.uleb128 0xb
 12910 0030 3E       		.uleb128 0x3e
 12911 0031 0B       		.uleb128 0xb
 12912 0032 03       		.uleb128 0x3
 12913 0033 08       		.uleb128 0x8
 12914 0034 00       		.byte	0
 12915 0035 00       		.byte	0
 12916 0036 05       		.uleb128 0x5
 12917 0037 16       		.uleb128 0x16
 12918 0038 00       		.byte	0
 12919 0039 03       		.uleb128 0x3
 12920 003a 0E       		.uleb128 0xe
 12921 003b 3A       		.uleb128 0x3a
 12922 003c 0B       		.uleb128 0xb
 12923 003d 3B       		.uleb128 0x3b
 12924 003e 05       		.uleb128 0x5
 12925 003f 49       		.uleb128 0x49
 12926 0040 13       		.uleb128 0x13
 12927 0041 00       		.byte	0
 12928 0042 00       		.byte	0
 12929 0043 06       		.uleb128 0x6
 12930 0044 35       		.uleb128 0x35
 12931 0045 00       		.byte	0
 12932 0046 49       		.uleb128 0x49
 12933 0047 13       		.uleb128 0x13
 12934 0048 00       		.byte	0
 12935 0049 00       		.byte	0
 12936 004a 07       		.uleb128 0x7
 12937 004b 13       		.uleb128 0x13
 12938 004c 01       		.byte	0x1
 12939 004d 0B       		.uleb128 0xb
 12940 004e 05       		.uleb128 0x5
 12941 004f 3A       		.uleb128 0x3a
 12942 0050 0B       		.uleb128 0xb
 12943 0051 3B       		.uleb128 0x3b
 12944 0052 0B       		.uleb128 0xb
 12945 0053 01       		.uleb128 0x1
 12946 0054 13       		.uleb128 0x13
 12947 0055 00       		.byte	0
 12948 0056 00       		.byte	0
 12949 0057 08       		.uleb128 0x8
 12950 0058 0D       		.uleb128 0xd
 12951 0059 00       		.byte	0
 12952 005a 03       		.uleb128 0x3
 12953 005b 0E       		.uleb128 0xe
 12954 005c 3A       		.uleb128 0x3a
 12955 005d 0B       		.uleb128 0xb
ARM GAS  C:\Users\user\AppData\Local\Temp\cc6TIdBD.s 			page 258


 12956 005e 3B       		.uleb128 0x3b
 12957 005f 0B       		.uleb128 0xb
 12958 0060 49       		.uleb128 0x49
 12959 0061 13       		.uleb128 0x13
 12960 0062 38       		.uleb128 0x38
 12961 0063 0B       		.uleb128 0xb
 12962 0064 00       		.byte	0
 12963 0065 00       		.byte	0
 12964 0066 09       		.uleb128 0x9
 12965 0067 0D       		.uleb128 0xd
 12966 0068 00       		.byte	0
 12967 0069 03       		.uleb128 0x3
 12968 006a 08       		.uleb128 0x8
 12969 006b 3A       		.uleb128 0x3a
 12970 006c 0B       		.uleb128 0xb
 12971 006d 3B       		.uleb128 0x3b
 12972 006e 0B       		.uleb128 0xb
 12973 006f 49       		.uleb128 0x49
 12974 0070 13       		.uleb128 0x13
 12975 0071 38       		.uleb128 0x38
 12976 0072 0B       		.uleb128 0xb
 12977 0073 00       		.byte	0
 12978 0074 00       		.byte	0
 12979 0075 0A       		.uleb128 0xa
 12980 0076 0D       		.uleb128 0xd
 12981 0077 00       		.byte	0
 12982 0078 03       		.uleb128 0x3
 12983 0079 08       		.uleb128 0x8
 12984 007a 3A       		.uleb128 0x3a
 12985 007b 0B       		.uleb128 0xb
 12986 007c 3B       		.uleb128 0x3b
 12987 007d 0B       		.uleb128 0xb
 12988 007e 49       		.uleb128 0x49
 12989 007f 13       		.uleb128 0x13
 12990 0080 38       		.uleb128 0x38
 12991 0081 05       		.uleb128 0x5
 12992 0082 00       		.byte	0
 12993 0083 00       		.byte	0
 12994 0084 0B       		.uleb128 0xb
 12995 0085 0D       		.uleb128 0xd
 12996 0086 00       		.byte	0
 12997 0087 03       		.uleb128 0x3
 12998 0088 0E       		.uleb128 0xe
 12999 0089 3A       		.uleb128 0x3a
 13000 008a 0B       		.uleb128 0xb
 13001 008b 3B       		.uleb128 0x3b
 13002 008c 0B       		.uleb128 0xb
 13003 008d 49       		.uleb128 0x49
 13004 008e 13       		.uleb128 0x13
 13005 008f 38       		.uleb128 0x38
 13006 0090 05       		.uleb128 0x5
 13007 0091 00       		.byte	0
 13008 0092 00       		.byte	0
 13009 0093 0C       		.uleb128 0xc
 13010 0094 01       		.uleb128 0x1
 13011 0095 01       		.byte	0x1
 13012 0096 49       		.uleb128 0x49
ARM GAS  C:\Users\user\AppData\Local\Temp\cc6TIdBD.s 			page 259


 13013 0097 13       		.uleb128 0x13
 13014 0098 01       		.uleb128 0x1
 13015 0099 13       		.uleb128 0x13
 13016 009a 00       		.byte	0
 13017 009b 00       		.byte	0
 13018 009c 0D       		.uleb128 0xd
 13019 009d 21       		.uleb128 0x21
 13020 009e 00       		.byte	0
 13021 009f 49       		.uleb128 0x49
 13022 00a0 13       		.uleb128 0x13
 13023 00a1 2F       		.uleb128 0x2f
 13024 00a2 0B       		.uleb128 0xb
 13025 00a3 00       		.byte	0
 13026 00a4 00       		.byte	0
 13027 00a5 0E       		.uleb128 0xe
 13028 00a6 2E       		.uleb128 0x2e
 13029 00a7 01       		.byte	0x1
 13030 00a8 03       		.uleb128 0x3
 13031 00a9 0E       		.uleb128 0xe
 13032 00aa 3A       		.uleb128 0x3a
 13033 00ab 0B       		.uleb128 0xb
 13034 00ac 3B       		.uleb128 0x3b
 13035 00ad 0B       		.uleb128 0xb
 13036 00ae 27       		.uleb128 0x27
 13037 00af 19       		.uleb128 0x19
 13038 00b0 49       		.uleb128 0x49
 13039 00b1 13       		.uleb128 0x13
 13040 00b2 20       		.uleb128 0x20
 13041 00b3 0B       		.uleb128 0xb
 13042 00b4 01       		.uleb128 0x1
 13043 00b5 13       		.uleb128 0x13
 13044 00b6 00       		.byte	0
 13045 00b7 00       		.byte	0
 13046 00b8 0F       		.uleb128 0xf
 13047 00b9 05       		.uleb128 0x5
 13048 00ba 00       		.byte	0
 13049 00bb 03       		.uleb128 0x3
 13050 00bc 08       		.uleb128 0x8
 13051 00bd 3A       		.uleb128 0x3a
 13052 00be 0B       		.uleb128 0xb
 13053 00bf 3B       		.uleb128 0x3b
 13054 00c0 0B       		.uleb128 0xb
 13055 00c1 49       		.uleb128 0x49
 13056 00c2 13       		.uleb128 0x13
 13057 00c3 00       		.byte	0
 13058 00c4 00       		.byte	0
 13059 00c5 10       		.uleb128 0x10
 13060 00c6 2E       		.uleb128 0x2e
 13061 00c7 01       		.byte	0x1
 13062 00c8 03       		.uleb128 0x3
 13063 00c9 0E       		.uleb128 0xe
 13064 00ca 3A       		.uleb128 0x3a
 13065 00cb 0B       		.uleb128 0xb
 13066 00cc 3B       		.uleb128 0x3b
 13067 00cd 0B       		.uleb128 0xb
 13068 00ce 27       		.uleb128 0x27
 13069 00cf 19       		.uleb128 0x19
ARM GAS  C:\Users\user\AppData\Local\Temp\cc6TIdBD.s 			page 260


 13070 00d0 20       		.uleb128 0x20
 13071 00d1 0B       		.uleb128 0xb
 13072 00d2 01       		.uleb128 0x1
 13073 00d3 13       		.uleb128 0x13
 13074 00d4 00       		.byte	0
 13075 00d5 00       		.byte	0
 13076 00d6 11       		.uleb128 0x11
 13077 00d7 34       		.uleb128 0x34
 13078 00d8 00       		.byte	0
 13079 00d9 03       		.uleb128 0x3
 13080 00da 0E       		.uleb128 0xe
 13081 00db 3A       		.uleb128 0x3a
 13082 00dc 0B       		.uleb128 0xb
 13083 00dd 3B       		.uleb128 0x3b
 13084 00de 0B       		.uleb128 0xb
 13085 00df 49       		.uleb128 0x49
 13086 00e0 13       		.uleb128 0x13
 13087 00e1 00       		.byte	0
 13088 00e2 00       		.byte	0
 13089 00e3 12       		.uleb128 0x12
 13090 00e4 0F       		.uleb128 0xf
 13091 00e5 00       		.byte	0
 13092 00e6 0B       		.uleb128 0xb
 13093 00e7 0B       		.uleb128 0xb
 13094 00e8 49       		.uleb128 0x49
 13095 00e9 13       		.uleb128 0x13
 13096 00ea 00       		.byte	0
 13097 00eb 00       		.byte	0
 13098 00ec 13       		.uleb128 0x13
 13099 00ed 2E       		.uleb128 0x2e
 13100 00ee 01       		.byte	0x1
 13101 00ef 03       		.uleb128 0x3
 13102 00f0 0E       		.uleb128 0xe
 13103 00f1 3A       		.uleb128 0x3a
 13104 00f2 0B       		.uleb128 0xb
 13105 00f3 3B       		.uleb128 0x3b
 13106 00f4 0B       		.uleb128 0xb
 13107 00f5 27       		.uleb128 0x27
 13108 00f6 19       		.uleb128 0x19
 13109 00f7 49       		.uleb128 0x49
 13110 00f8 13       		.uleb128 0x13
 13111 00f9 11       		.uleb128 0x11
 13112 00fa 01       		.uleb128 0x1
 13113 00fb 12       		.uleb128 0x12
 13114 00fc 06       		.uleb128 0x6
 13115 00fd 40       		.uleb128 0x40
 13116 00fe 18       		.uleb128 0x18
 13117 00ff 9642     		.uleb128 0x2116
 13118 0101 19       		.uleb128 0x19
 13119 0102 01       		.uleb128 0x1
 13120 0103 13       		.uleb128 0x13
 13121 0104 00       		.byte	0
 13122 0105 00       		.byte	0
 13123 0106 14       		.uleb128 0x14
 13124 0107 05       		.uleb128 0x5
 13125 0108 00       		.byte	0
 13126 0109 03       		.uleb128 0x3
ARM GAS  C:\Users\user\AppData\Local\Temp\cc6TIdBD.s 			page 261


 13127 010a 08       		.uleb128 0x8
 13128 010b 3A       		.uleb128 0x3a
 13129 010c 0B       		.uleb128 0xb
 13130 010d 3B       		.uleb128 0x3b
 13131 010e 0B       		.uleb128 0xb
 13132 010f 49       		.uleb128 0x49
 13133 0110 13       		.uleb128 0x13
 13134 0111 02       		.uleb128 0x2
 13135 0112 17       		.uleb128 0x17
 13136 0113 00       		.byte	0
 13137 0114 00       		.byte	0
 13138 0115 15       		.uleb128 0x15
 13139 0116 2E       		.uleb128 0x2e
 13140 0117 01       		.byte	0x1
 13141 0118 03       		.uleb128 0x3
 13142 0119 0E       		.uleb128 0xe
 13143 011a 3A       		.uleb128 0x3a
 13144 011b 0B       		.uleb128 0xb
 13145 011c 3B       		.uleb128 0x3b
 13146 011d 0B       		.uleb128 0xb
 13147 011e 27       		.uleb128 0x27
 13148 011f 19       		.uleb128 0x19
 13149 0120 49       		.uleb128 0x49
 13150 0121 13       		.uleb128 0x13
 13151 0122 11       		.uleb128 0x11
 13152 0123 01       		.uleb128 0x1
 13153 0124 12       		.uleb128 0x12
 13154 0125 06       		.uleb128 0x6
 13155 0126 40       		.uleb128 0x40
 13156 0127 18       		.uleb128 0x18
 13157 0128 9742     		.uleb128 0x2117
 13158 012a 19       		.uleb128 0x19
 13159 012b 01       		.uleb128 0x1
 13160 012c 13       		.uleb128 0x13
 13161 012d 00       		.byte	0
 13162 012e 00       		.byte	0
 13163 012f 16       		.uleb128 0x16
 13164 0130 2E       		.uleb128 0x2e
 13165 0131 01       		.byte	0x1
 13166 0132 03       		.uleb128 0x3
 13167 0133 0E       		.uleb128 0xe
 13168 0134 3A       		.uleb128 0x3a
 13169 0135 0B       		.uleb128 0xb
 13170 0136 3B       		.uleb128 0x3b
 13171 0137 05       		.uleb128 0x5
 13172 0138 27       		.uleb128 0x27
 13173 0139 19       		.uleb128 0x19
 13174 013a 49       		.uleb128 0x49
 13175 013b 13       		.uleb128 0x13
 13176 013c 11       		.uleb128 0x11
 13177 013d 01       		.uleb128 0x1
 13178 013e 12       		.uleb128 0x12
 13179 013f 06       		.uleb128 0x6
 13180 0140 40       		.uleb128 0x40
 13181 0141 18       		.uleb128 0x18
 13182 0142 9642     		.uleb128 0x2116
 13183 0144 19       		.uleb128 0x19
ARM GAS  C:\Users\user\AppData\Local\Temp\cc6TIdBD.s 			page 262


 13184 0145 01       		.uleb128 0x1
 13185 0146 13       		.uleb128 0x13
 13186 0147 00       		.byte	0
 13187 0148 00       		.byte	0
 13188 0149 17       		.uleb128 0x17
 13189 014a 05       		.uleb128 0x5
 13190 014b 00       		.byte	0
 13191 014c 03       		.uleb128 0x3
 13192 014d 08       		.uleb128 0x8
 13193 014e 3A       		.uleb128 0x3a
 13194 014f 0B       		.uleb128 0xb
 13195 0150 3B       		.uleb128 0x3b
 13196 0151 05       		.uleb128 0x5
 13197 0152 49       		.uleb128 0x49
 13198 0153 13       		.uleb128 0x13
 13199 0154 02       		.uleb128 0x2
 13200 0155 17       		.uleb128 0x17
 13201 0156 00       		.byte	0
 13202 0157 00       		.byte	0
 13203 0158 18       		.uleb128 0x18
 13204 0159 34       		.uleb128 0x34
 13205 015a 00       		.byte	0
 13206 015b 03       		.uleb128 0x3
 13207 015c 08       		.uleb128 0x8
 13208 015d 3A       		.uleb128 0x3a
 13209 015e 0B       		.uleb128 0xb
 13210 015f 3B       		.uleb128 0x3b
 13211 0160 05       		.uleb128 0x5
 13212 0161 49       		.uleb128 0x49
 13213 0162 13       		.uleb128 0x13
 13214 0163 02       		.uleb128 0x2
 13215 0164 17       		.uleb128 0x17
 13216 0165 00       		.byte	0
 13217 0166 00       		.byte	0
 13218 0167 19       		.uleb128 0x19
 13219 0168 34       		.uleb128 0x34
 13220 0169 00       		.byte	0
 13221 016a 03       		.uleb128 0x3
 13222 016b 08       		.uleb128 0x8
 13223 016c 3A       		.uleb128 0x3a
 13224 016d 0B       		.uleb128 0xb
 13225 016e 3B       		.uleb128 0x3b
 13226 016f 05       		.uleb128 0x5
 13227 0170 49       		.uleb128 0x49
 13228 0171 13       		.uleb128 0x13
 13229 0172 02       		.uleb128 0x2
 13230 0173 18       		.uleb128 0x18
 13231 0174 00       		.byte	0
 13232 0175 00       		.byte	0
 13233 0176 1A       		.uleb128 0x1a
 13234 0177 34       		.uleb128 0x34
 13235 0178 00       		.byte	0
 13236 0179 03       		.uleb128 0x3
 13237 017a 08       		.uleb128 0x8
 13238 017b 3A       		.uleb128 0x3a
 13239 017c 0B       		.uleb128 0xb
 13240 017d 3B       		.uleb128 0x3b
ARM GAS  C:\Users\user\AppData\Local\Temp\cc6TIdBD.s 			page 263


 13241 017e 05       		.uleb128 0x5
 13242 017f 49       		.uleb128 0x49
 13243 0180 13       		.uleb128 0x13
 13244 0181 00       		.byte	0
 13245 0182 00       		.byte	0
 13246 0183 1B       		.uleb128 0x1b
 13247 0184 1D       		.uleb128 0x1d
 13248 0185 01       		.byte	0x1
 13249 0186 31       		.uleb128 0x31
 13250 0187 13       		.uleb128 0x13
 13251 0188 11       		.uleb128 0x11
 13252 0189 01       		.uleb128 0x1
 13253 018a 12       		.uleb128 0x12
 13254 018b 06       		.uleb128 0x6
 13255 018c 58       		.uleb128 0x58
 13256 018d 0B       		.uleb128 0xb
 13257 018e 59       		.uleb128 0x59
 13258 018f 05       		.uleb128 0x5
 13259 0190 01       		.uleb128 0x1
 13260 0191 13       		.uleb128 0x13
 13261 0192 00       		.byte	0
 13262 0193 00       		.byte	0
 13263 0194 1C       		.uleb128 0x1c
 13264 0195 05       		.uleb128 0x5
 13265 0196 00       		.byte	0
 13266 0197 31       		.uleb128 0x31
 13267 0198 13       		.uleb128 0x13
 13268 0199 02       		.uleb128 0x2
 13269 019a 17       		.uleb128 0x17
 13270 019b 00       		.byte	0
 13271 019c 00       		.byte	0
 13272 019d 1D       		.uleb128 0x1d
 13273 019e 05       		.uleb128 0x5
 13274 019f 00       		.byte	0
 13275 01a0 31       		.uleb128 0x31
 13276 01a1 13       		.uleb128 0x13
 13277 01a2 00       		.byte	0
 13278 01a3 00       		.byte	0
 13279 01a4 1E       		.uleb128 0x1e
 13280 01a5 898201   		.uleb128 0x4109
 13281 01a8 01       		.byte	0x1
 13282 01a9 11       		.uleb128 0x11
 13283 01aa 01       		.uleb128 0x1
 13284 01ab 31       		.uleb128 0x31
 13285 01ac 13       		.uleb128 0x13
 13286 01ad 00       		.byte	0
 13287 01ae 00       		.byte	0
 13288 01af 1F       		.uleb128 0x1f
 13289 01b0 8A8201   		.uleb128 0x410a
 13290 01b3 00       		.byte	0
 13291 01b4 02       		.uleb128 0x2
 13292 01b5 18       		.uleb128 0x18
 13293 01b6 9142     		.uleb128 0x2111
 13294 01b8 18       		.uleb128 0x18
 13295 01b9 00       		.byte	0
 13296 01ba 00       		.byte	0
 13297 01bb 20       		.uleb128 0x20
ARM GAS  C:\Users\user\AppData\Local\Temp\cc6TIdBD.s 			page 264


 13298 01bc 26       		.uleb128 0x26
 13299 01bd 00       		.byte	0
 13300 01be 49       		.uleb128 0x49
 13301 01bf 13       		.uleb128 0x13
 13302 01c0 00       		.byte	0
 13303 01c1 00       		.byte	0
 13304 01c2 21       		.uleb128 0x21
 13305 01c3 2E       		.uleb128 0x2e
 13306 01c4 01       		.byte	0x1
 13307 01c5 03       		.uleb128 0x3
 13308 01c6 0E       		.uleb128 0xe
 13309 01c7 3A       		.uleb128 0x3a
 13310 01c8 0B       		.uleb128 0xb
 13311 01c9 3B       		.uleb128 0x3b
 13312 01ca 05       		.uleb128 0x5
 13313 01cb 27       		.uleb128 0x27
 13314 01cc 19       		.uleb128 0x19
 13315 01cd 11       		.uleb128 0x11
 13316 01ce 01       		.uleb128 0x1
 13317 01cf 12       		.uleb128 0x12
 13318 01d0 06       		.uleb128 0x6
 13319 01d1 40       		.uleb128 0x40
 13320 01d2 18       		.uleb128 0x18
 13321 01d3 9642     		.uleb128 0x2116
 13322 01d5 19       		.uleb128 0x19
 13323 01d6 01       		.uleb128 0x1
 13324 01d7 13       		.uleb128 0x13
 13325 01d8 00       		.byte	0
 13326 01d9 00       		.byte	0
 13327 01da 22       		.uleb128 0x22
 13328 01db 05       		.uleb128 0x5
 13329 01dc 00       		.byte	0
 13330 01dd 03       		.uleb128 0x3
 13331 01de 0E       		.uleb128 0xe
 13332 01df 3A       		.uleb128 0x3a
 13333 01e0 0B       		.uleb128 0xb
 13334 01e1 3B       		.uleb128 0x3b
 13335 01e2 05       		.uleb128 0x5
 13336 01e3 49       		.uleb128 0x49
 13337 01e4 13       		.uleb128 0x13
 13338 01e5 02       		.uleb128 0x2
 13339 01e6 17       		.uleb128 0x17
 13340 01e7 00       		.byte	0
 13341 01e8 00       		.byte	0
 13342 01e9 23       		.uleb128 0x23
 13343 01ea 34       		.uleb128 0x34
 13344 01eb 00       		.byte	0
 13345 01ec 03       		.uleb128 0x3
 13346 01ed 0E       		.uleb128 0xe
 13347 01ee 3A       		.uleb128 0x3a
 13348 01ef 0B       		.uleb128 0xb
 13349 01f0 3B       		.uleb128 0x3b
 13350 01f1 05       		.uleb128 0x5
 13351 01f2 49       		.uleb128 0x49
 13352 01f3 13       		.uleb128 0x13
 13353 01f4 02       		.uleb128 0x2
 13354 01f5 17       		.uleb128 0x17
ARM GAS  C:\Users\user\AppData\Local\Temp\cc6TIdBD.s 			page 265


 13355 01f6 00       		.byte	0
 13356 01f7 00       		.byte	0
 13357 01f8 24       		.uleb128 0x24
 13358 01f9 34       		.uleb128 0x34
 13359 01fa 00       		.byte	0
 13360 01fb 03       		.uleb128 0x3
 13361 01fc 0E       		.uleb128 0xe
 13362 01fd 3A       		.uleb128 0x3a
 13363 01fe 0B       		.uleb128 0xb
 13364 01ff 3B       		.uleb128 0x3b
 13365 0200 05       		.uleb128 0x5
 13366 0201 49       		.uleb128 0x49
 13367 0202 13       		.uleb128 0x13
 13368 0203 00       		.byte	0
 13369 0204 00       		.byte	0
 13370 0205 25       		.uleb128 0x25
 13371 0206 34       		.uleb128 0x34
 13372 0207 00       		.byte	0
 13373 0208 03       		.uleb128 0x3
 13374 0209 0E       		.uleb128 0xe
 13375 020a 3A       		.uleb128 0x3a
 13376 020b 0B       		.uleb128 0xb
 13377 020c 3B       		.uleb128 0x3b
 13378 020d 05       		.uleb128 0x5
 13379 020e 49       		.uleb128 0x49
 13380 020f 13       		.uleb128 0x13
 13381 0210 02       		.uleb128 0x2
 13382 0211 18       		.uleb128 0x18
 13383 0212 00       		.byte	0
 13384 0213 00       		.byte	0
 13385 0214 26       		.uleb128 0x26
 13386 0215 898201   		.uleb128 0x4109
 13387 0218 01       		.byte	0x1
 13388 0219 11       		.uleb128 0x11
 13389 021a 01       		.uleb128 0x1
 13390 021b 31       		.uleb128 0x31
 13391 021c 13       		.uleb128 0x13
 13392 021d 01       		.uleb128 0x1
 13393 021e 13       		.uleb128 0x13
 13394 021f 00       		.byte	0
 13395 0220 00       		.byte	0
 13396 0221 27       		.uleb128 0x27
 13397 0222 2E       		.uleb128 0x2e
 13398 0223 01       		.byte	0x1
 13399 0224 03       		.uleb128 0x3
 13400 0225 0E       		.uleb128 0xe
 13401 0226 3A       		.uleb128 0x3a
 13402 0227 0B       		.uleb128 0xb
 13403 0228 3B       		.uleb128 0x3b
 13404 0229 05       		.uleb128 0x5
 13405 022a 27       		.uleb128 0x27
 13406 022b 19       		.uleb128 0x19
 13407 022c 11       		.uleb128 0x11
 13408 022d 01       		.uleb128 0x1
 13409 022e 12       		.uleb128 0x12
 13410 022f 06       		.uleb128 0x6
 13411 0230 40       		.uleb128 0x40
ARM GAS  C:\Users\user\AppData\Local\Temp\cc6TIdBD.s 			page 266


 13412 0231 18       		.uleb128 0x18
 13413 0232 9742     		.uleb128 0x2117
 13414 0234 19       		.uleb128 0x19
 13415 0235 01       		.uleb128 0x1
 13416 0236 13       		.uleb128 0x13
 13417 0237 00       		.byte	0
 13418 0238 00       		.byte	0
 13419 0239 28       		.uleb128 0x28
 13420 023a 898201   		.uleb128 0x4109
 13421 023d 00       		.byte	0
 13422 023e 11       		.uleb128 0x11
 13423 023f 01       		.uleb128 0x1
 13424 0240 31       		.uleb128 0x31
 13425 0241 13       		.uleb128 0x13
 13426 0242 00       		.byte	0
 13427 0243 00       		.byte	0
 13428 0244 29       		.uleb128 0x29
 13429 0245 2E       		.uleb128 0x2e
 13430 0246 01       		.byte	0x1
 13431 0247 03       		.uleb128 0x3
 13432 0248 0E       		.uleb128 0xe
 13433 0249 3A       		.uleb128 0x3a
 13434 024a 0B       		.uleb128 0xb
 13435 024b 3B       		.uleb128 0x3b
 13436 024c 05       		.uleb128 0x5
 13437 024d 27       		.uleb128 0x27
 13438 024e 19       		.uleb128 0x19
 13439 024f 49       		.uleb128 0x49
 13440 0250 13       		.uleb128 0x13
 13441 0251 11       		.uleb128 0x11
 13442 0252 01       		.uleb128 0x1
 13443 0253 12       		.uleb128 0x12
 13444 0254 06       		.uleb128 0x6
 13445 0255 40       		.uleb128 0x40
 13446 0256 18       		.uleb128 0x18
 13447 0257 9742     		.uleb128 0x2117
 13448 0259 19       		.uleb128 0x19
 13449 025a 01       		.uleb128 0x1
 13450 025b 13       		.uleb128 0x13
 13451 025c 00       		.byte	0
 13452 025d 00       		.byte	0
 13453 025e 2A       		.uleb128 0x2a
 13454 025f 0B       		.uleb128 0xb
 13455 0260 01       		.byte	0x1
 13456 0261 11       		.uleb128 0x11
 13457 0262 01       		.uleb128 0x1
 13458 0263 12       		.uleb128 0x12
 13459 0264 06       		.uleb128 0x6
 13460 0265 01       		.uleb128 0x1
 13461 0266 13       		.uleb128 0x13
 13462 0267 00       		.byte	0
 13463 0268 00       		.byte	0
 13464 0269 2B       		.uleb128 0x2b
 13465 026a 0B       		.uleb128 0xb
 13466 026b 01       		.byte	0x1
 13467 026c 11       		.uleb128 0x11
 13468 026d 01       		.uleb128 0x1
ARM GAS  C:\Users\user\AppData\Local\Temp\cc6TIdBD.s 			page 267


 13469 026e 12       		.uleb128 0x12
 13470 026f 06       		.uleb128 0x6
 13471 0270 00       		.byte	0
 13472 0271 00       		.byte	0
 13473 0272 2C       		.uleb128 0x2c
 13474 0273 34       		.uleb128 0x34
 13475 0274 00       		.byte	0
 13476 0275 31       		.uleb128 0x31
 13477 0276 13       		.uleb128 0x13
 13478 0277 02       		.uleb128 0x2
 13479 0278 17       		.uleb128 0x17
 13480 0279 00       		.byte	0
 13481 027a 00       		.byte	0
 13482 027b 2D       		.uleb128 0x2d
 13483 027c 2E       		.uleb128 0x2e
 13484 027d 01       		.byte	0x1
 13485 027e 3F       		.uleb128 0x3f
 13486 027f 19       		.uleb128 0x19
 13487 0280 03       		.uleb128 0x3
 13488 0281 0E       		.uleb128 0xe
 13489 0282 3A       		.uleb128 0x3a
 13490 0283 0B       		.uleb128 0xb
 13491 0284 3B       		.uleb128 0x3b
 13492 0285 05       		.uleb128 0x5
 13493 0286 27       		.uleb128 0x27
 13494 0287 19       		.uleb128 0x19
 13495 0288 11       		.uleb128 0x11
 13496 0289 01       		.uleb128 0x1
 13497 028a 12       		.uleb128 0x12
 13498 028b 06       		.uleb128 0x6
 13499 028c 40       		.uleb128 0x40
 13500 028d 18       		.uleb128 0x18
 13501 028e 9742     		.uleb128 0x2117
 13502 0290 19       		.uleb128 0x19
 13503 0291 01       		.uleb128 0x1
 13504 0292 13       		.uleb128 0x13
 13505 0293 00       		.byte	0
 13506 0294 00       		.byte	0
 13507 0295 2E       		.uleb128 0x2e
 13508 0296 2E       		.uleb128 0x2e
 13509 0297 01       		.byte	0x1
 13510 0298 3F       		.uleb128 0x3f
 13511 0299 19       		.uleb128 0x19
 13512 029a 03       		.uleb128 0x3
 13513 029b 0E       		.uleb128 0xe
 13514 029c 3A       		.uleb128 0x3a
 13515 029d 0B       		.uleb128 0xb
 13516 029e 3B       		.uleb128 0x3b
 13517 029f 05       		.uleb128 0x5
 13518 02a0 27       		.uleb128 0x27
 13519 02a1 19       		.uleb128 0x19
 13520 02a2 11       		.uleb128 0x11
 13521 02a3 01       		.uleb128 0x1
 13522 02a4 12       		.uleb128 0x12
 13523 02a5 06       		.uleb128 0x6
 13524 02a6 40       		.uleb128 0x40
 13525 02a7 18       		.uleb128 0x18
ARM GAS  C:\Users\user\AppData\Local\Temp\cc6TIdBD.s 			page 268


 13526 02a8 9642     		.uleb128 0x2116
 13527 02aa 19       		.uleb128 0x19
 13528 02ab 01       		.uleb128 0x1
 13529 02ac 13       		.uleb128 0x13
 13530 02ad 00       		.byte	0
 13531 02ae 00       		.byte	0
 13532 02af 2F       		.uleb128 0x2f
 13533 02b0 0B       		.uleb128 0xb
 13534 02b1 01       		.byte	0x1
 13535 02b2 55       		.uleb128 0x55
 13536 02b3 17       		.uleb128 0x17
 13537 02b4 01       		.uleb128 0x1
 13538 02b5 13       		.uleb128 0x13
 13539 02b6 00       		.byte	0
 13540 02b7 00       		.byte	0
 13541 02b8 30       		.uleb128 0x30
 13542 02b9 0B       		.uleb128 0xb
 13543 02ba 01       		.byte	0x1
 13544 02bb 55       		.uleb128 0x55
 13545 02bc 17       		.uleb128 0x17
 13546 02bd 00       		.byte	0
 13547 02be 00       		.byte	0
 13548 02bf 31       		.uleb128 0x31
 13549 02c0 2E       		.uleb128 0x2e
 13550 02c1 00       		.byte	0
 13551 02c2 3F       		.uleb128 0x3f
 13552 02c3 19       		.uleb128 0x19
 13553 02c4 03       		.uleb128 0x3
 13554 02c5 0E       		.uleb128 0xe
 13555 02c6 3A       		.uleb128 0x3a
 13556 02c7 0B       		.uleb128 0xb
 13557 02c8 3B       		.uleb128 0x3b
 13558 02c9 05       		.uleb128 0x5
 13559 02ca 27       		.uleb128 0x27
 13560 02cb 19       		.uleb128 0x19
 13561 02cc 49       		.uleb128 0x49
 13562 02cd 13       		.uleb128 0x13
 13563 02ce 11       		.uleb128 0x11
 13564 02cf 01       		.uleb128 0x1
 13565 02d0 12       		.uleb128 0x12
 13566 02d1 06       		.uleb128 0x6
 13567 02d2 40       		.uleb128 0x40
 13568 02d3 18       		.uleb128 0x18
 13569 02d4 9742     		.uleb128 0x2117
 13570 02d6 19       		.uleb128 0x19
 13571 02d7 00       		.byte	0
 13572 02d8 00       		.byte	0
 13573 02d9 32       		.uleb128 0x32
 13574 02da 05       		.uleb128 0x5
 13575 02db 00       		.byte	0
 13576 02dc 03       		.uleb128 0x3
 13577 02dd 0E       		.uleb128 0xe
 13578 02de 3A       		.uleb128 0x3a
 13579 02df 0B       		.uleb128 0xb
 13580 02e0 3B       		.uleb128 0x3b
 13581 02e1 05       		.uleb128 0x5
 13582 02e2 49       		.uleb128 0x49
ARM GAS  C:\Users\user\AppData\Local\Temp\cc6TIdBD.s 			page 269


 13583 02e3 13       		.uleb128 0x13
 13584 02e4 02       		.uleb128 0x2
 13585 02e5 18       		.uleb128 0x18
 13586 02e6 00       		.byte	0
 13587 02e7 00       		.byte	0
 13588 02e8 33       		.uleb128 0x33
 13589 02e9 34       		.uleb128 0x34
 13590 02ea 00       		.byte	0
 13591 02eb 03       		.uleb128 0x3
 13592 02ec 0E       		.uleb128 0xe
 13593 02ed 3A       		.uleb128 0x3a
 13594 02ee 0B       		.uleb128 0xb
 13595 02ef 3B       		.uleb128 0x3b
 13596 02f0 0B       		.uleb128 0xb
 13597 02f1 49       		.uleb128 0x49
 13598 02f2 13       		.uleb128 0x13
 13599 02f3 02       		.uleb128 0x2
 13600 02f4 18       		.uleb128 0x18
 13601 02f5 00       		.byte	0
 13602 02f6 00       		.byte	0
 13603 02f7 34       		.uleb128 0x34
 13604 02f8 34       		.uleb128 0x34
 13605 02f9 00       		.byte	0
 13606 02fa 03       		.uleb128 0x3
 13607 02fb 0E       		.uleb128 0xe
 13608 02fc 3A       		.uleb128 0x3a
 13609 02fd 0B       		.uleb128 0xb
 13610 02fe 3B       		.uleb128 0x3b
 13611 02ff 05       		.uleb128 0x5
 13612 0300 49       		.uleb128 0x49
 13613 0301 13       		.uleb128 0x13
 13614 0302 3F       		.uleb128 0x3f
 13615 0303 19       		.uleb128 0x19
 13616 0304 3C       		.uleb128 0x3c
 13617 0305 19       		.uleb128 0x19
 13618 0306 00       		.byte	0
 13619 0307 00       		.byte	0
 13620 0308 35       		.uleb128 0x35
 13621 0309 34       		.uleb128 0x34
 13622 030a 00       		.byte	0
 13623 030b 03       		.uleb128 0x3
 13624 030c 0E       		.uleb128 0xe
 13625 030d 3A       		.uleb128 0x3a
 13626 030e 0B       		.uleb128 0xb
 13627 030f 3B       		.uleb128 0x3b
 13628 0310 0B       		.uleb128 0xb
 13629 0311 49       		.uleb128 0x49
 13630 0312 13       		.uleb128 0x13
 13631 0313 3F       		.uleb128 0x3f
 13632 0314 19       		.uleb128 0x19
 13633 0315 02       		.uleb128 0x2
 13634 0316 18       		.uleb128 0x18
 13635 0317 00       		.byte	0
 13636 0318 00       		.byte	0
 13637 0319 36       		.uleb128 0x36
 13638 031a 34       		.uleb128 0x34
 13639 031b 00       		.byte	0
ARM GAS  C:\Users\user\AppData\Local\Temp\cc6TIdBD.s 			page 270


 13640 031c 03       		.uleb128 0x3
 13641 031d 0E       		.uleb128 0xe
 13642 031e 3A       		.uleb128 0x3a
 13643 031f 0B       		.uleb128 0xb
 13644 0320 3B       		.uleb128 0x3b
 13645 0321 0B       		.uleb128 0xb
 13646 0322 49       		.uleb128 0x49
 13647 0323 13       		.uleb128 0x13
 13648 0324 3F       		.uleb128 0x3f
 13649 0325 19       		.uleb128 0x19
 13650 0326 3C       		.uleb128 0x3c
 13651 0327 19       		.uleb128 0x19
 13652 0328 00       		.byte	0
 13653 0329 00       		.byte	0
 13654 032a 37       		.uleb128 0x37
 13655 032b 2E       		.uleb128 0x2e
 13656 032c 00       		.byte	0
 13657 032d 3F       		.uleb128 0x3f
 13658 032e 19       		.uleb128 0x19
 13659 032f 3C       		.uleb128 0x3c
 13660 0330 19       		.uleb128 0x19
 13661 0331 6E       		.uleb128 0x6e
 13662 0332 0E       		.uleb128 0xe
 13663 0333 03       		.uleb128 0x3
 13664 0334 0E       		.uleb128 0xe
 13665 0335 3A       		.uleb128 0x3a
 13666 0336 0B       		.uleb128 0xb
 13667 0337 3B       		.uleb128 0x3b
 13668 0338 05       		.uleb128 0x5
 13669 0339 00       		.byte	0
 13670 033a 00       		.byte	0
 13671 033b 38       		.uleb128 0x38
 13672 033c 2E       		.uleb128 0x2e
 13673 033d 00       		.byte	0
 13674 033e 3F       		.uleb128 0x3f
 13675 033f 19       		.uleb128 0x19
 13676 0340 3C       		.uleb128 0x3c
 13677 0341 19       		.uleb128 0x19
 13678 0342 6E       		.uleb128 0x6e
 13679 0343 0E       		.uleb128 0xe
 13680 0344 03       		.uleb128 0x3
 13681 0345 0E       		.uleb128 0xe
 13682 0346 00       		.byte	0
 13683 0347 00       		.byte	0
 13684 0348 39       		.uleb128 0x39
 13685 0349 2E       		.uleb128 0x2e
 13686 034a 00       		.byte	0
 13687 034b 3F       		.uleb128 0x3f
 13688 034c 19       		.uleb128 0x19
 13689 034d 3C       		.uleb128 0x3c
 13690 034e 19       		.uleb128 0x19
 13691 034f 6E       		.uleb128 0x6e
 13692 0350 0E       		.uleb128 0xe
 13693 0351 03       		.uleb128 0x3
 13694 0352 0E       		.uleb128 0xe
 13695 0353 3A       		.uleb128 0x3a
 13696 0354 0B       		.uleb128 0xb
ARM GAS  C:\Users\user\AppData\Local\Temp\cc6TIdBD.s 			page 271


 13697 0355 3B       		.uleb128 0x3b
 13698 0356 0B       		.uleb128 0xb
 13699 0357 00       		.byte	0
 13700 0358 00       		.byte	0
 13701 0359 00       		.byte	0
 13702              		.section	.debug_loc,"",%progbits
 13703              	.Ldebug_loc0:
 13704              	.LLST0:
 13705 0000 00000000 		.4byte	.LVL0
 13706 0004 0D000000 		.4byte	.LVL2-1
 13707 0008 0100     		.2byte	0x1
 13708 000a 50       		.byte	0x50
 13709 000b 0D000000 		.4byte	.LVL2-1
 13710 000f 26000000 		.4byte	.LFE119
 13711 0013 0100     		.2byte	0x1
 13712 0015 55       		.byte	0x55
 13713 0016 00000000 		.4byte	0
 13714 001a 00000000 		.4byte	0
 13715              	.LLST1:
 13716 001e 00000000 		.4byte	.LVL0
 13717 0022 0A000000 		.4byte	.LVL1
 13718 0026 0100     		.2byte	0x1
 13719 0028 51       		.byte	0x51
 13720 0029 0A000000 		.4byte	.LVL1
 13721 002d 26000000 		.4byte	.LFE119
 13722 0031 0100     		.2byte	0x1
 13723 0033 56       		.byte	0x56
 13724 0034 00000000 		.4byte	0
 13725 0038 00000000 		.4byte	0
 13726              	.LLST2:
 13727 003c 00000000 		.4byte	.LVL0
 13728 0040 0D000000 		.4byte	.LVL2-1
 13729 0044 0100     		.2byte	0x1
 13730 0046 52       		.byte	0x52
 13731 0047 0D000000 		.4byte	.LVL2-1
 13732 004b 26000000 		.4byte	.LFE119
 13733 004f 0100     		.2byte	0x1
 13734 0051 54       		.byte	0x54
 13735 0052 00000000 		.4byte	0
 13736 0056 00000000 		.4byte	0
 13737              	.LLST3:
 13738 005a 00000000 		.4byte	.LVL6
 13739 005e 02000000 		.4byte	.LVL7
 13740 0062 0100     		.2byte	0x1
 13741 0064 50       		.byte	0x50
 13742 0065 02000000 		.4byte	.LVL7
 13743 0069 0E000000 		.4byte	.LFE120
 13744 006d 0400     		.2byte	0x4
 13745 006f F3       		.byte	0xf3
 13746 0070 01       		.uleb128 0x1
 13747 0071 50       		.byte	0x50
 13748 0072 9F       		.byte	0x9f
 13749 0073 00000000 		.4byte	0
 13750 0077 00000000 		.4byte	0
 13751              	.LLST4:
 13752 007b 00000000 		.4byte	.LVL8
 13753 007f 02000000 		.4byte	.LVL9
ARM GAS  C:\Users\user\AppData\Local\Temp\cc6TIdBD.s 			page 272


 13754 0083 0100     		.2byte	0x1
 13755 0085 50       		.byte	0x50
 13756 0086 02000000 		.4byte	.LVL9
 13757 008a 0E000000 		.4byte	.LFE121
 13758 008e 0400     		.2byte	0x4
 13759 0090 F3       		.byte	0xf3
 13760 0091 01       		.uleb128 0x1
 13761 0092 50       		.byte	0x50
 13762 0093 9F       		.byte	0x9f
 13763 0094 00000000 		.4byte	0
 13764 0098 00000000 		.4byte	0
 13765              	.LLST5:
 13766 009c 00000000 		.4byte	.LVL10
 13767 00a0 08000000 		.4byte	.LVL11
 13768 00a4 0100     		.2byte	0x1
 13769 00a6 50       		.byte	0x50
 13770 00a7 08000000 		.4byte	.LVL11
 13771 00ab CC000000 		.4byte	.LFE131
 13772 00af 0100     		.2byte	0x1
 13773 00b1 54       		.byte	0x54
 13774 00b2 00000000 		.4byte	0
 13775 00b6 00000000 		.4byte	0
 13776              	.LLST6:
 13777 00ba 00000000 		.4byte	.LVL10
 13778 00be 0B000000 		.4byte	.LVL12-1
 13779 00c2 0100     		.2byte	0x1
 13780 00c4 51       		.byte	0x51
 13781 00c5 0B000000 		.4byte	.LVL12-1
 13782 00c9 B6000000 		.4byte	.LVL33
 13783 00cd 0100     		.2byte	0x1
 13784 00cf 56       		.byte	0x56
 13785 00d0 B6000000 		.4byte	.LVL33
 13786 00d4 CC000000 		.4byte	.LFE131
 13787 00d8 0600     		.2byte	0x6
 13788 00da F3       		.byte	0xf3
 13789 00db 03       		.uleb128 0x3
 13790 00dc F5       		.byte	0xf5
 13791 00dd 01       		.uleb128 0x1
 13792 00de 25       		.uleb128 0x25
 13793 00df 9F       		.byte	0x9f
 13794 00e0 00000000 		.4byte	0
 13795 00e4 00000000 		.4byte	0
 13796              	.LLST7:
 13797 00e8 14000000 		.4byte	.LVL14
 13798 00ec 1A000000 		.4byte	.LVL15
 13799 00f0 0100     		.2byte	0x1
 13800 00f2 50       		.byte	0x50
 13801 00f3 1A000000 		.4byte	.LVL15
 13802 00f7 CC000000 		.4byte	.LFE131
 13803 00fb 0100     		.2byte	0x1
 13804 00fd 55       		.byte	0x55
 13805 00fe 00000000 		.4byte	0
 13806 0102 00000000 		.4byte	0
 13807              	.LLST8:
 13808 0106 00000000 		.4byte	.LVL36
 13809 010a 14000000 		.4byte	.LVL39
 13810 010e 0100     		.2byte	0x1
ARM GAS  C:\Users\user\AppData\Local\Temp\cc6TIdBD.s 			page 273


 13811 0110 50       		.byte	0x50
 13812 0111 14000000 		.4byte	.LVL39
 13813 0115 38010000 		.4byte	.LVL78
 13814 0119 0100     		.2byte	0x1
 13815 011b 56       		.byte	0x56
 13816 011c 38010000 		.4byte	.LVL78
 13817 0120 3C010000 		.4byte	.LFE138
 13818 0124 0400     		.2byte	0x4
 13819 0126 F3       		.byte	0xf3
 13820 0127 01       		.uleb128 0x1
 13821 0128 50       		.byte	0x50
 13822 0129 9F       		.byte	0x9f
 13823 012a 00000000 		.4byte	0
 13824 012e 00000000 		.4byte	0
 13825              	.LLST9:
 13826 0132 00000000 		.4byte	.LVL36
 13827 0136 12000000 		.4byte	.LVL38
 13828 013a 0100     		.2byte	0x1
 13829 013c 51       		.byte	0x51
 13830 013d 12000000 		.4byte	.LVL38
 13831 0141 54000000 		.4byte	.LVL48
 13832 0145 0100     		.2byte	0x1
 13833 0147 54       		.byte	0x54
 13834 0148 54000000 		.4byte	.LVL48
 13835 014c 3C010000 		.4byte	.LFE138
 13836 0150 0400     		.2byte	0x4
 13837 0152 F3       		.byte	0xf3
 13838 0153 01       		.uleb128 0x1
 13839 0154 51       		.byte	0x51
 13840 0155 9F       		.byte	0x9f
 13841 0156 00000000 		.4byte	0
 13842 015a 00000000 		.4byte	0
 13843              	.LLST10:
 13844 015e 00000000 		.4byte	.LVL36
 13845 0162 17000000 		.4byte	.LVL40-1
 13846 0166 0100     		.2byte	0x1
 13847 0168 52       		.byte	0x52
 13848 0169 17000000 		.4byte	.LVL40-1
 13849 016d E0000000 		.4byte	.LVL67
 13850 0171 0100     		.2byte	0x1
 13851 0173 57       		.byte	0x57
 13852 0174 E0000000 		.4byte	.LVL67
 13853 0178 3C010000 		.4byte	.LFE138
 13854 017c 0600     		.2byte	0x6
 13855 017e F3       		.byte	0xf3
 13856 017f 03       		.uleb128 0x3
 13857 0180 F5       		.byte	0xf5
 13858 0181 02       		.uleb128 0x2
 13859 0182 25       		.uleb128 0x25
 13860 0183 9F       		.byte	0x9f
 13861 0184 00000000 		.4byte	0
 13862 0188 00000000 		.4byte	0
 13863              	.LLST11:
 13864 018c 10000000 		.4byte	.LVL37
 13865 0190 38010000 		.4byte	.LVL78
 13866 0194 0100     		.2byte	0x1
 13867 0196 55       		.byte	0x55
ARM GAS  C:\Users\user\AppData\Local\Temp\cc6TIdBD.s 			page 274


 13868 0197 00000000 		.4byte	0
 13869 019b 00000000 		.4byte	0
 13870              	.LLST12:
 13871 019f D6000000 		.4byte	.LVL66
 13872 01a3 21010000 		.4byte	.LVL75-1
 13873 01a7 0100     		.2byte	0x1
 13874 01a9 51       		.byte	0x51
 13875 01aa 00000000 		.4byte	0
 13876 01ae 00000000 		.4byte	0
 13877              	.LLST13:
 13878 01b2 F4000000 		.4byte	.LVL68
 13879 01b6 12010000 		.4byte	.LVL70
 13880 01ba 0100     		.2byte	0x1
 13881 01bc 50       		.byte	0x50
 13882 01bd 14010000 		.4byte	.LVL71
 13883 01c1 18010000 		.4byte	.LVL72
 13884 01c5 0100     		.2byte	0x1
 13885 01c7 50       		.byte	0x50
 13886 01c8 1A010000 		.4byte	.LVL73
 13887 01cc 1E010000 		.4byte	.LVL74
 13888 01d0 0100     		.2byte	0x1
 13889 01d2 50       		.byte	0x50
 13890 01d3 00000000 		.4byte	0
 13891 01d7 00000000 		.4byte	0
 13892              	.LLST14:
 13893 01db 1A000000 		.4byte	.LVL41
 13894 01df 21000000 		.4byte	.LVL42-1
 13895 01e3 0100     		.2byte	0x1
 13896 01e5 50       		.byte	0x50
 13897 01e6 21000000 		.4byte	.LVL42-1
 13898 01ea 48000000 		.4byte	.LVL46
 13899 01ee 0100     		.2byte	0x1
 13900 01f0 58       		.byte	0x58
 13901 01f1 00000000 		.4byte	0
 13902 01f5 00000000 		.4byte	0
 13903              	.LLST15:
 13904 01f9 54000000 		.4byte	.LVL48
 13905 01fd 5B000000 		.4byte	.LVL49-1
 13906 0201 0100     		.2byte	0x1
 13907 0203 50       		.byte	0x50
 13908 0204 5B000000 		.4byte	.LVL49-1
 13909 0208 82000000 		.4byte	.LVL53
 13910 020c 0100     		.2byte	0x1
 13911 020e 54       		.byte	0x54
 13912 020f 00000000 		.4byte	0
 13913 0213 00000000 		.4byte	0
 13914              	.LLST16:
 13915 0217 8E000000 		.4byte	.LVL55
 13916 021b 95000000 		.4byte	.LVL56-1
 13917 021f 0100     		.2byte	0x1
 13918 0221 50       		.byte	0x50
 13919 0222 95000000 		.4byte	.LVL56-1
 13920 0226 B2000000 		.4byte	.LVL60
 13921 022a 0100     		.2byte	0x1
 13922 022c 54       		.byte	0x54
 13923 022d B4000000 		.4byte	.LVL61
 13924 0231 B8000000 		.4byte	.LVL62
ARM GAS  C:\Users\user\AppData\Local\Temp\cc6TIdBD.s 			page 275


 13925 0235 0100     		.2byte	0x1
 13926 0237 54       		.byte	0x54
 13927 0238 BA000000 		.4byte	.LVL63
 13928 023c BE000000 		.4byte	.LVL64
 13929 0240 0100     		.2byte	0x1
 13930 0242 54       		.byte	0x54
 13931 0243 00000000 		.4byte	0
 13932 0247 00000000 		.4byte	0
 13933              	.LLST17:
 13934 024b FC000000 		.4byte	.LVL69
 13935 024f 1E010000 		.4byte	.LVL74
 13936 0253 0600     		.2byte	0x6
 13937 0255 52       		.byte	0x52
 13938 0256 93       		.byte	0x93
 13939 0257 04       		.uleb128 0x4
 13940 0258 53       		.byte	0x53
 13941 0259 93       		.byte	0x93
 13942 025a 04       		.uleb128 0x4
 13943 025b 00000000 		.4byte	0
 13944 025f 00000000 		.4byte	0
 13945              	.LLST18:
 13946 0263 00000000 		.4byte	.LVL79
 13947 0267 13000000 		.4byte	.LVL82-1
 13948 026b 0100     		.2byte	0x1
 13949 026d 50       		.byte	0x50
 13950 026e 13000000 		.4byte	.LVL82-1
 13951 0272 20010000 		.4byte	.LVL114
 13952 0276 0100     		.2byte	0x1
 13953 0278 54       		.byte	0x54
 13954 0279 20010000 		.4byte	.LVL114
 13955 027d 24010000 		.4byte	.LFE142
 13956 0281 0400     		.2byte	0x4
 13957 0283 F3       		.byte	0xf3
 13958 0284 01       		.uleb128 0x1
 13959 0285 50       		.byte	0x50
 13960 0286 9F       		.byte	0x9f
 13961 0287 00000000 		.4byte	0
 13962 028b 00000000 		.4byte	0
 13963              	.LLST19:
 13964 028f 00000000 		.4byte	.LVL79
 13965 0293 10000000 		.4byte	.LVL81
 13966 0297 0100     		.2byte	0x1
 13967 0299 51       		.byte	0x51
 13968 029a 10000000 		.4byte	.LVL81
 13969 029e 24000000 		.4byte	.LVL85
 13970 02a2 0100     		.2byte	0x1
 13971 02a4 56       		.byte	0x56
 13972 02a5 24000000 		.4byte	.LVL85
 13973 02a9 24010000 		.4byte	.LFE142
 13974 02ad 0600     		.2byte	0x6
 13975 02af F3       		.byte	0xf3
 13976 02b0 03       		.uleb128 0x3
 13977 02b1 F5       		.byte	0xf5
 13978 02b2 01       		.uleb128 0x1
 13979 02b3 25       		.uleb128 0x25
 13980 02b4 9F       		.byte	0x9f
 13981 02b5 00000000 		.4byte	0
ARM GAS  C:\Users\user\AppData\Local\Temp\cc6TIdBD.s 			page 276


 13982 02b9 00000000 		.4byte	0
 13983              	.LLST20:
 13984 02bd 00000000 		.4byte	.LVL79
 13985 02c1 13000000 		.4byte	.LVL82-1
 13986 02c5 0100     		.2byte	0x1
 13987 02c7 52       		.byte	0x52
 13988 02c8 13000000 		.4byte	.LVL82-1
 13989 02cc 24010000 		.4byte	.LFE142
 13990 02d0 0600     		.2byte	0x6
 13991 02d2 F3       		.byte	0xf3
 13992 02d3 03       		.uleb128 0x3
 13993 02d4 F5       		.byte	0xf5
 13994 02d5 02       		.uleb128 0x2
 13995 02d6 25       		.uleb128 0x25
 13996 02d7 9F       		.byte	0x9f
 13997 02d8 00000000 		.4byte	0
 13998 02dc 00000000 		.4byte	0
 13999              	.LLST21:
 14000 02e0 0C000000 		.4byte	.LVL80
 14001 02e4 20010000 		.4byte	.LVL114
 14002 02e8 0100     		.2byte	0x1
 14003 02ea 55       		.byte	0x55
 14004 02eb 00000000 		.4byte	0
 14005 02ef 00000000 		.4byte	0
 14006              	.LLST22:
 14007 02f3 1C000000 		.4byte	.LVL83
 14008 02f7 21000000 		.4byte	.LVL84-1
 14009 02fb 0100     		.2byte	0x1
 14010 02fd 50       		.byte	0x50
 14011 02fe 00000000 		.4byte	0
 14012 0302 00000000 		.4byte	0
 14013              	.LLST23:
 14014 0306 24000000 		.4byte	.LVL85
 14015 030a 2B000000 		.4byte	.LVL86-1
 14016 030e 0100     		.2byte	0x1
 14017 0310 50       		.byte	0x50
 14018 0311 2B000000 		.4byte	.LVL86-1
 14019 0315 54000000 		.4byte	.LVL90
 14020 0319 0100     		.2byte	0x1
 14021 031b 56       		.byte	0x56
 14022 031c 00000000 		.4byte	0
 14023 0320 00000000 		.4byte	0
 14024              	.LLST24:
 14025 0324 70000000 		.4byte	.LVL93
 14026 0328 77000000 		.4byte	.LVL94-1
 14027 032c 0100     		.2byte	0x1
 14028 032e 50       		.byte	0x50
 14029 032f 77000000 		.4byte	.LVL94-1
 14030 0333 9E000000 		.4byte	.LVL98
 14031 0337 0100     		.2byte	0x1
 14032 0339 56       		.byte	0x56
 14033 033a 00000000 		.4byte	0
 14034 033e 00000000 		.4byte	0
 14035              	.LLST25:
 14036 0342 AC000000 		.4byte	.LVL100
 14037 0346 B3000000 		.4byte	.LVL101-1
 14038 034a 0100     		.2byte	0x1
ARM GAS  C:\Users\user\AppData\Local\Temp\cc6TIdBD.s 			page 277


 14039 034c 50       		.byte	0x50
 14040 034d B3000000 		.4byte	.LVL101-1
 14041 0351 DA000000 		.4byte	.LVL105
 14042 0355 0100     		.2byte	0x1
 14043 0357 56       		.byte	0x56
 14044 0358 00000000 		.4byte	0
 14045 035c 00000000 		.4byte	0
 14046              	.LLST26:
 14047 0360 E8000000 		.4byte	.LVL106
 14048 0364 ED000000 		.4byte	.LVL107-1
 14049 0368 0200     		.2byte	0x2
 14050 036a 91       		.byte	0x91
 14051 036b 58       		.sleb128 -40
 14052 036c 00000000 		.4byte	0
 14053 0370 00000000 		.4byte	0
 14054              	.LLST27:
 14055 0374 02010000 		.4byte	.LVL110
 14056 0378 07010000 		.4byte	.LVL111-1
 14057 037c 0200     		.2byte	0x2
 14058 037e 91       		.byte	0x91
 14059 037f 5C       		.sleb128 -36
 14060 0380 00000000 		.4byte	0
 14061 0384 00000000 		.4byte	0
 14062              	.LLST28:
 14063 0388 00000000 		.4byte	.LVL115
 14064 038c 16000000 		.4byte	.LVL118
 14065 0390 0100     		.2byte	0x1
 14066 0392 50       		.byte	0x50
 14067 0393 16000000 		.4byte	.LVL118
 14068 0397 4C010000 		.4byte	.LVL151
 14069 039b 0100     		.2byte	0x1
 14070 039d 56       		.byte	0x56
 14071 039e 4C010000 		.4byte	.LVL151
 14072 03a2 94010000 		.4byte	.LFE139
 14073 03a6 0400     		.2byte	0x4
 14074 03a8 F3       		.byte	0xf3
 14075 03a9 01       		.uleb128 0x1
 14076 03aa 50       		.byte	0x50
 14077 03ab 9F       		.byte	0x9f
 14078 03ac 00000000 		.4byte	0
 14079 03b0 00000000 		.4byte	0
 14080              	.LLST29:
 14081 03b4 00000000 		.4byte	.LVL115
 14082 03b8 14000000 		.4byte	.LVL117
 14083 03bc 0100     		.2byte	0x1
 14084 03be 51       		.byte	0x51
 14085 03bf 14000000 		.4byte	.LVL117
 14086 03c3 56000000 		.4byte	.LVL127
 14087 03c7 0100     		.2byte	0x1
 14088 03c9 57       		.byte	0x57
 14089 03ca 56000000 		.4byte	.LVL127
 14090 03ce 94010000 		.4byte	.LFE139
 14091 03d2 0400     		.2byte	0x4
 14092 03d4 F3       		.byte	0xf3
 14093 03d5 01       		.uleb128 0x1
 14094 03d6 51       		.byte	0x51
 14095 03d7 9F       		.byte	0x9f
ARM GAS  C:\Users\user\AppData\Local\Temp\cc6TIdBD.s 			page 278


 14096 03d8 00000000 		.4byte	0
 14097 03dc 00000000 		.4byte	0
 14098              	.LLST30:
 14099 03e0 00000000 		.4byte	.LVL115
 14100 03e4 19000000 		.4byte	.LVL119-1
 14101 03e8 0100     		.2byte	0x1
 14102 03ea 52       		.byte	0x52
 14103 03eb 19000000 		.4byte	.LVL119-1
 14104 03ef F2000000 		.4byte	.LVL143
 14105 03f3 0100     		.2byte	0x1
 14106 03f5 58       		.byte	0x58
 14107 03f6 F2000000 		.4byte	.LVL143
 14108 03fa 94010000 		.4byte	.LFE139
 14109 03fe 0600     		.2byte	0x6
 14110 0400 F3       		.byte	0xf3
 14111 0401 03       		.uleb128 0x3
 14112 0402 F5       		.byte	0xf5
 14113 0403 02       		.uleb128 0x2
 14114 0404 25       		.uleb128 0x25
 14115 0405 9F       		.byte	0x9f
 14116 0406 00000000 		.4byte	0
 14117 040a 00000000 		.4byte	0
 14118              	.LLST31:
 14119 040e 00000000 		.4byte	.LVL115
 14120 0412 19000000 		.4byte	.LVL119-1
 14121 0416 0100     		.2byte	0x1
 14122 0418 53       		.byte	0x53
 14123 0419 19000000 		.4byte	.LVL119-1
 14124 041d 8E010000 		.4byte	.LVL157
 14125 0421 0100     		.2byte	0x1
 14126 0423 55       		.byte	0x55
 14127 0424 8E010000 		.4byte	.LVL157
 14128 0428 94010000 		.4byte	.LFE139
 14129 042c 0400     		.2byte	0x4
 14130 042e F3       		.byte	0xf3
 14131 042f 01       		.uleb128 0x1
 14132 0430 53       		.byte	0x53
 14133 0431 9F       		.byte	0x9f
 14134 0432 00000000 		.4byte	0
 14135 0436 00000000 		.4byte	0
 14136              	.LLST32:
 14137 043a 12000000 		.4byte	.LVL116
 14138 043e 8E010000 		.4byte	.LVL157
 14139 0442 0100     		.2byte	0x1
 14140 0444 54       		.byte	0x54
 14141 0445 00000000 		.4byte	0
 14142 0449 00000000 		.4byte	0
 14143              	.LLST33:
 14144 044d E8000000 		.4byte	.LVL142
 14145 0451 1B010000 		.4byte	.LVL146-1
 14146 0455 0100     		.2byte	0x1
 14147 0457 53       		.byte	0x53
 14148 0458 00000000 		.4byte	0
 14149 045c 00000000 		.4byte	0
 14150              	.LLST34:
 14151 0460 46010000 		.4byte	.LVL150
 14152 0464 75010000 		.4byte	.LVL154-1
ARM GAS  C:\Users\user\AppData\Local\Temp\cc6TIdBD.s 			page 279


 14153 0468 0100     		.2byte	0x1
 14154 046a 53       		.byte	0x53
 14155 046b 00000000 		.4byte	0
 14156 046f 00000000 		.4byte	0
 14157              	.LLST35:
 14158 0473 1C000000 		.4byte	.LVL120
 14159 0477 23000000 		.4byte	.LVL121-1
 14160 047b 0100     		.2byte	0x1
 14161 047d 50       		.byte	0x50
 14162 047e 23000000 		.4byte	.LVL121-1
 14163 0482 4A000000 		.4byte	.LVL125
 14164 0486 0100     		.2byte	0x1
 14165 0488 59       		.byte	0x59
 14166 0489 00000000 		.4byte	0
 14167 048d 00000000 		.4byte	0
 14168              	.LLST36:
 14169 0491 56000000 		.4byte	.LVL127
 14170 0495 5D000000 		.4byte	.LVL128-1
 14171 0499 0100     		.2byte	0x1
 14172 049b 50       		.byte	0x50
 14173 049c 5D000000 		.4byte	.LVL128-1
 14174 04a0 84000000 		.4byte	.LVL132
 14175 04a4 0100     		.2byte	0x1
 14176 04a6 57       		.byte	0x57
 14177 04a7 00000000 		.4byte	0
 14178 04ab 00000000 		.4byte	0
 14179              	.LLST37:
 14180 04af 90000000 		.4byte	.LVL134
 14181 04b3 97000000 		.4byte	.LVL135-1
 14182 04b7 0100     		.2byte	0x1
 14183 04b9 50       		.byte	0x50
 14184 04ba 97000000 		.4byte	.LVL135-1
 14185 04be C0000000 		.4byte	.LVL139
 14186 04c2 0100     		.2byte	0x1
 14187 04c4 57       		.byte	0x57
 14188 04c5 00000000 		.4byte	0
 14189 04c9 00000000 		.4byte	0
 14190              	.LLST38:
 14191 04cd F6000000 		.4byte	.LVL144
 14192 04d1 18010000 		.4byte	.LVL145
 14193 04d5 0600     		.2byte	0x6
 14194 04d7 58       		.byte	0x58
 14195 04d8 93       		.byte	0x93
 14196 04d9 04       		.uleb128 0x4
 14197 04da 59       		.byte	0x59
 14198 04db 93       		.byte	0x93
 14199 04dc 04       		.uleb128 0x4
 14200 04dd 00000000 		.4byte	0
 14201 04e1 00000000 		.4byte	0
 14202              	.LLST39:
 14203 04e5 50010000 		.4byte	.LVL152
 14204 04e9 72010000 		.4byte	.LVL153
 14205 04ed 0600     		.2byte	0x6
 14206 04ef 56       		.byte	0x56
 14207 04f0 93       		.byte	0x93
 14208 04f1 04       		.uleb128 0x4
 14209 04f2 57       		.byte	0x57
ARM GAS  C:\Users\user\AppData\Local\Temp\cc6TIdBD.s 			page 280


 14210 04f3 93       		.byte	0x93
 14211 04f4 04       		.uleb128 0x4
 14212 04f5 00000000 		.4byte	0
 14213 04f9 00000000 		.4byte	0
 14214              	.LLST40:
 14215 04fd 00000000 		.4byte	.LVL158
 14216 0501 19000000 		.4byte	.LVL161-1
 14217 0505 0100     		.2byte	0x1
 14218 0507 50       		.byte	0x50
 14219 0508 19000000 		.4byte	.LVL161-1
 14220 050c 32010000 		.4byte	.LVL198
 14221 0510 0100     		.2byte	0x1
 14222 0512 54       		.byte	0x54
 14223 0513 32010000 		.4byte	.LVL198
 14224 0517 38010000 		.4byte	.LFE141
 14225 051b 0400     		.2byte	0x4
 14226 051d F3       		.byte	0xf3
 14227 051e 01       		.uleb128 0x1
 14228 051f 50       		.byte	0x50
 14229 0520 9F       		.byte	0x9f
 14230 0521 00000000 		.4byte	0
 14231 0525 00000000 		.4byte	0
 14232              	.LLST41:
 14233 0529 00000000 		.4byte	.LVL158
 14234 052d 16000000 		.4byte	.LVL160
 14235 0531 0100     		.2byte	0x1
 14236 0533 51       		.byte	0x51
 14237 0534 16000000 		.4byte	.LVL160
 14238 0538 2A000000 		.4byte	.LVL164
 14239 053c 0100     		.2byte	0x1
 14240 053e 58       		.byte	0x58
 14241 053f 2A000000 		.4byte	.LVL164
 14242 0543 38010000 		.4byte	.LFE141
 14243 0547 0600     		.2byte	0x6
 14244 0549 F3       		.byte	0xf3
 14245 054a 03       		.uleb128 0x3
 14246 054b F5       		.byte	0xf5
 14247 054c 01       		.uleb128 0x1
 14248 054d 25       		.uleb128 0x25
 14249 054e 9F       		.byte	0x9f
 14250 054f 00000000 		.4byte	0
 14251 0553 00000000 		.4byte	0
 14252              	.LLST42:
 14253 0557 00000000 		.4byte	.LVL158
 14254 055b 19000000 		.4byte	.LVL161-1
 14255 055f 0100     		.2byte	0x1
 14256 0561 52       		.byte	0x52
 14257 0562 19000000 		.4byte	.LVL161-1
 14258 0566 38010000 		.4byte	.LFE141
 14259 056a 0600     		.2byte	0x6
 14260 056c F3       		.byte	0xf3
 14261 056d 03       		.uleb128 0x3
 14262 056e F5       		.byte	0xf5
 14263 056f 02       		.uleb128 0x2
 14264 0570 25       		.uleb128 0x25
 14265 0571 9F       		.byte	0x9f
 14266 0572 00000000 		.4byte	0
ARM GAS  C:\Users\user\AppData\Local\Temp\cc6TIdBD.s 			page 281


 14267 0576 00000000 		.4byte	0
 14268              	.LLST43:
 14269 057a 00000000 		.4byte	.LVL158
 14270 057e 19000000 		.4byte	.LVL161-1
 14271 0582 0100     		.2byte	0x1
 14272 0584 53       		.byte	0x53
 14273 0585 19000000 		.4byte	.LVL161-1
 14274 0589 32010000 		.4byte	.LVL198
 14275 058d 0100     		.2byte	0x1
 14276 058f 57       		.byte	0x57
 14277 0590 32010000 		.4byte	.LVL198
 14278 0594 38010000 		.4byte	.LFE141
 14279 0598 0600     		.2byte	0x6
 14280 059a F3       		.byte	0xf3
 14281 059b 03       		.uleb128 0x3
 14282 059c F5       		.byte	0xf5
 14283 059d 03       		.uleb128 0x3
 14284 059e 25       		.uleb128 0x25
 14285 059f 9F       		.byte	0x9f
 14286 05a0 00000000 		.4byte	0
 14287 05a4 00000000 		.4byte	0
 14288              	.LLST44:
 14289 05a8 10000000 		.4byte	.LVL159
 14290 05ac 32010000 		.4byte	.LVL198
 14291 05b0 0100     		.2byte	0x1
 14292 05b2 55       		.byte	0x55
 14293 05b3 00000000 		.4byte	0
 14294 05b7 00000000 		.4byte	0
 14295              	.LLST45:
 14296 05bb 22000000 		.4byte	.LVL162
 14297 05bf 27000000 		.4byte	.LVL163-1
 14298 05c3 0100     		.2byte	0x1
 14299 05c5 50       		.byte	0x50
 14300 05c6 00000000 		.4byte	0
 14301 05ca 00000000 		.4byte	0
 14302              	.LLST46:
 14303 05ce 2A000000 		.4byte	.LVL164
 14304 05d2 31000000 		.4byte	.LVL165-1
 14305 05d6 0100     		.2byte	0x1
 14306 05d8 50       		.byte	0x50
 14307 05d9 31000000 		.4byte	.LVL165-1
 14308 05dd 4E000000 		.4byte	.LVL169
 14309 05e1 0100     		.2byte	0x1
 14310 05e3 58       		.byte	0x58
 14311 05e4 50000000 		.4byte	.LVL170
 14312 05e8 54000000 		.4byte	.LVL171
 14313 05ec 0100     		.2byte	0x1
 14314 05ee 58       		.byte	0x58
 14315 05ef 56000000 		.4byte	.LVL172
 14316 05f3 5A000000 		.4byte	.LVL173
 14317 05f7 0100     		.2byte	0x1
 14318 05f9 58       		.byte	0x58
 14319 05fa 00000000 		.4byte	0
 14320 05fe 00000000 		.4byte	0
 14321              	.LLST47:
 14322 0602 82000000 		.4byte	.LVL177
 14323 0606 89000000 		.4byte	.LVL178-1
ARM GAS  C:\Users\user\AppData\Local\Temp\cc6TIdBD.s 			page 282


 14324 060a 0100     		.2byte	0x1
 14325 060c 50       		.byte	0x50
 14326 060d 89000000 		.4byte	.LVL178-1
 14327 0611 B0000000 		.4byte	.LVL182
 14328 0615 0100     		.2byte	0x1
 14329 0617 56       		.byte	0x56
 14330 0618 00000000 		.4byte	0
 14331 061c 00000000 		.4byte	0
 14332              	.LLST48:
 14333 0620 BC000000 		.4byte	.LVL184
 14334 0624 C3000000 		.4byte	.LVL185-1
 14335 0628 0100     		.2byte	0x1
 14336 062a 50       		.byte	0x50
 14337 062b C3000000 		.4byte	.LVL185-1
 14338 062f EA000000 		.4byte	.LVL189
 14339 0633 0100     		.2byte	0x1
 14340 0635 56       		.byte	0x56
 14341 0636 00000000 		.4byte	0
 14342 063a 00000000 		.4byte	0
 14343              	.LLST49:
 14344 063e F8000000 		.4byte	.LVL190
 14345 0642 FD000000 		.4byte	.LVL191-1
 14346 0646 0200     		.2byte	0x2
 14347 0648 91       		.byte	0x91
 14348 0649 48       		.sleb128 -56
 14349 064a 00000000 		.4byte	0
 14350 064e 00000000 		.4byte	0
 14351              	.LLST50:
 14352 0652 12010000 		.4byte	.LVL194
 14353 0656 17010000 		.4byte	.LVL195-1
 14354 065a 0200     		.2byte	0x2
 14355 065c 91       		.byte	0x91
 14356 065d 4C       		.sleb128 -52
 14357 065e 00000000 		.4byte	0
 14358 0662 00000000 		.4byte	0
 14359              	.LLST51:
 14360 0666 00000000 		.4byte	.LVL199
 14361 066a 0F000000 		.4byte	.LVL201-1
 14362 066e 0100     		.2byte	0x1
 14363 0670 50       		.byte	0x50
 14364 0671 0F000000 		.4byte	.LVL201-1
 14365 0675 12000000 		.4byte	.LFE143
 14366 0679 0400     		.2byte	0x4
 14367 067b F3       		.byte	0xf3
 14368 067c 01       		.uleb128 0x1
 14369 067d 50       		.byte	0x50
 14370 067e 9F       		.byte	0x9f
 14371 067f 00000000 		.4byte	0
 14372 0683 00000000 		.4byte	0
 14373              	.LLST52:
 14374 0687 00000000 		.4byte	.LVL199
 14375 068b 0C000000 		.4byte	.LVL200
 14376 068f 0100     		.2byte	0x1
 14377 0691 51       		.byte	0x51
 14378 0692 0C000000 		.4byte	.LVL200
 14379 0696 0F000000 		.4byte	.LVL201-1
 14380 069a 0100     		.2byte	0x1
ARM GAS  C:\Users\user\AppData\Local\Temp\cc6TIdBD.s 			page 283


 14381 069c 52       		.byte	0x52
 14382 069d 0F000000 		.4byte	.LVL201-1
 14383 06a1 12000000 		.4byte	.LFE143
 14384 06a5 0600     		.2byte	0x6
 14385 06a7 F3       		.byte	0xf3
 14386 06a8 03       		.uleb128 0x3
 14387 06a9 F5       		.byte	0xf5
 14388 06aa 01       		.uleb128 0x1
 14389 06ab 25       		.uleb128 0x25
 14390 06ac 9F       		.byte	0x9f
 14391 06ad 00000000 		.4byte	0
 14392 06b1 00000000 		.4byte	0
 14393              	.LLST53:
 14394 06b5 00000000 		.4byte	.LVL202
 14395 06b9 10000000 		.4byte	.LVL204
 14396 06bd 0100     		.2byte	0x1
 14397 06bf 50       		.byte	0x50
 14398 06c0 10000000 		.4byte	.LVL204
 14399 06c4 C2000000 		.4byte	.LVL225
 14400 06c8 0100     		.2byte	0x1
 14401 06ca 54       		.byte	0x54
 14402 06cb C2000000 		.4byte	.LVL225
 14403 06cf 38010000 		.4byte	.LFE140
 14404 06d3 0400     		.2byte	0x4
 14405 06d5 F3       		.byte	0xf3
 14406 06d6 01       		.uleb128 0x1
 14407 06d7 50       		.byte	0x50
 14408 06d8 9F       		.byte	0x9f
 14409 06d9 00000000 		.4byte	0
 14410 06dd 00000000 		.4byte	0
 14411              	.LLST54:
 14412 06e1 0A000000 		.4byte	.LVL203
 14413 06e5 32010000 		.4byte	.LVL236
 14414 06e9 0100     		.2byte	0x1
 14415 06eb 56       		.byte	0x56
 14416 06ec 00000000 		.4byte	0
 14417 06f0 00000000 		.4byte	0
 14418              	.LLST55:
 14419 06f4 9C000000 		.4byte	.LVL220
 14420 06f8 32010000 		.4byte	.LVL236
 14421 06fc 0100     		.2byte	0x1
 14422 06fe 55       		.byte	0x55
 14423 06ff 00000000 		.4byte	0
 14424 0703 00000000 		.4byte	0
 14425              	.LLST56:
 14426 0707 BA000000 		.4byte	.LVL223
 14427 070b BF000000 		.4byte	.LVL224-1
 14428 070f 0100     		.2byte	0x1
 14429 0711 50       		.byte	0x50
 14430 0712 00000000 		.4byte	0
 14431 0716 00000000 		.4byte	0
 14432              	.LLST57:
 14433 071a 16000000 		.4byte	.LVL206
 14434 071e 1D000000 		.4byte	.LVL207-1
 14435 0722 0100     		.2byte	0x1
 14436 0724 50       		.byte	0x50
 14437 0725 1D000000 		.4byte	.LVL207-1
ARM GAS  C:\Users\user\AppData\Local\Temp\cc6TIdBD.s 			page 284


 14438 0729 44000000 		.4byte	.LVL211
 14439 072d 0100     		.2byte	0x1
 14440 072f 55       		.byte	0x55
 14441 0730 00000000 		.4byte	0
 14442 0734 00000000 		.4byte	0
 14443              	.LLST58:
 14444 0738 52000000 		.4byte	.LVL213
 14445 073c 59000000 		.4byte	.LVL214-1
 14446 0740 0100     		.2byte	0x1
 14447 0742 50       		.byte	0x50
 14448 0743 59000000 		.4byte	.LVL214-1
 14449 0747 80000000 		.4byte	.LVL218
 14450 074b 0100     		.2byte	0x1
 14451 074d 55       		.byte	0x55
 14452 074e 00000000 		.4byte	0
 14453 0752 00000000 		.4byte	0
 14454              	.LLST59:
 14455 0756 C2000000 		.4byte	.LVL225
 14456 075a C9000000 		.4byte	.LVL226-1
 14457 075e 0100     		.2byte	0x1
 14458 0760 50       		.byte	0x50
 14459 0761 C9000000 		.4byte	.LVL226-1
 14460 0765 F0000000 		.4byte	.LVL230
 14461 0769 0100     		.2byte	0x1
 14462 076b 54       		.byte	0x54
 14463 076c 00000000 		.4byte	0
 14464 0770 00000000 		.4byte	0
 14465              	.LLST60:
 14466 0774 F8000000 		.4byte	.LVL231
 14467 0778 1A010000 		.4byte	.LVL232
 14468 077c 0600     		.2byte	0x6
 14469 077e 52       		.byte	0x52
 14470 077f 93       		.byte	0x93
 14471 0780 04       		.uleb128 0x4
 14472 0781 53       		.byte	0x53
 14473 0782 93       		.byte	0x93
 14474 0783 04       		.uleb128 0x4
 14475 0784 00000000 		.4byte	0
 14476 0788 00000000 		.4byte	0
 14477              	.LLST61:
 14478 078c 00000000 		.4byte	.LVL237
 14479 0790 14000000 		.4byte	.LVL240
 14480 0794 0100     		.2byte	0x1
 14481 0796 50       		.byte	0x50
 14482 0797 14000000 		.4byte	.LVL240
 14483 079b 46010000 		.4byte	.LVL280
 14484 079f 0100     		.2byte	0x1
 14485 07a1 55       		.byte	0x55
 14486 07a2 46010000 		.4byte	.LVL280
 14487 07a6 50010000 		.4byte	.LFE144
 14488 07aa 0400     		.2byte	0x4
 14489 07ac F3       		.byte	0xf3
 14490 07ad 01       		.uleb128 0x1
 14491 07ae 50       		.byte	0x50
 14492 07af 9F       		.byte	0x9f
 14493 07b0 00000000 		.4byte	0
 14494 07b4 00000000 		.4byte	0
ARM GAS  C:\Users\user\AppData\Local\Temp\cc6TIdBD.s 			page 285


 14495              	.LLST62:
 14496 07b8 00000000 		.4byte	.LVL237
 14497 07bc 12000000 		.4byte	.LVL239
 14498 07c0 0100     		.2byte	0x1
 14499 07c2 51       		.byte	0x51
 14500 07c3 12000000 		.4byte	.LVL239
 14501 07c7 56000000 		.4byte	.LVL249
 14502 07cb 0100     		.2byte	0x1
 14503 07cd 56       		.byte	0x56
 14504 07ce 56000000 		.4byte	.LVL249
 14505 07d2 50010000 		.4byte	.LFE144
 14506 07d6 0400     		.2byte	0x4
 14507 07d8 F3       		.byte	0xf3
 14508 07d9 01       		.uleb128 0x1
 14509 07da 51       		.byte	0x51
 14510 07db 9F       		.byte	0x9f
 14511 07dc 00000000 		.4byte	0
 14512 07e0 00000000 		.4byte	0
 14513              	.LLST63:
 14514 07e4 00000000 		.4byte	.LVL237
 14515 07e8 17000000 		.4byte	.LVL241-1
 14516 07ec 0100     		.2byte	0x1
 14517 07ee 52       		.byte	0x52
 14518 07ef 17000000 		.4byte	.LVL241-1
 14519 07f3 46010000 		.4byte	.LVL280
 14520 07f7 0100     		.2byte	0x1
 14521 07f9 57       		.byte	0x57
 14522 07fa 46010000 		.4byte	.LVL280
 14523 07fe 50010000 		.4byte	.LFE144
 14524 0802 0600     		.2byte	0x6
 14525 0804 F3       		.byte	0xf3
 14526 0805 03       		.uleb128 0x3
 14527 0806 F5       		.byte	0xf5
 14528 0807 02       		.uleb128 0x2
 14529 0808 25       		.uleb128 0x25
 14530 0809 9F       		.byte	0x9f
 14531 080a 00000000 		.4byte	0
 14532 080e 00000000 		.4byte	0
 14533              	.LLST64:
 14534 0812 10000000 		.4byte	.LVL238
 14535 0816 46010000 		.4byte	.LVL280
 14536 081a 0100     		.2byte	0x1
 14537 081c 54       		.byte	0x54
 14538 081d 00000000 		.4byte	0
 14539 0821 00000000 		.4byte	0
 14540              	.LLST65:
 14541 0825 1A000000 		.4byte	.LVL242
 14542 0829 21000000 		.4byte	.LVL243-1
 14543 082d 0100     		.2byte	0x1
 14544 082f 50       		.byte	0x50
 14545 0830 21000000 		.4byte	.LVL243-1
 14546 0834 48000000 		.4byte	.LVL247
 14547 0838 0100     		.2byte	0x1
 14548 083a 58       		.byte	0x58
 14549 083b 00000000 		.4byte	0
 14550 083f 00000000 		.4byte	0
 14551              	.LLST66:
ARM GAS  C:\Users\user\AppData\Local\Temp\cc6TIdBD.s 			page 286


 14552 0843 56000000 		.4byte	.LVL249
 14553 0847 5D000000 		.4byte	.LVL250-1
 14554 084b 0100     		.2byte	0x1
 14555 084d 50       		.byte	0x50
 14556 084e 5D000000 		.4byte	.LVL250-1
 14557 0852 84000000 		.4byte	.LVL254
 14558 0856 0100     		.2byte	0x1
 14559 0858 56       		.byte	0x56
 14560 0859 00000000 		.4byte	0
 14561 085d 00000000 		.4byte	0
 14562              	.LLST67:
 14563 0861 92000000 		.4byte	.LVL256
 14564 0865 99000000 		.4byte	.LVL257-1
 14565 0869 0100     		.2byte	0x1
 14566 086b 50       		.byte	0x50
 14567 086c 99000000 		.4byte	.LVL257-1
 14568 0870 B6000000 		.4byte	.LVL261
 14569 0874 0100     		.2byte	0x1
 14570 0876 56       		.byte	0x56
 14571 0877 B8000000 		.4byte	.LVL262
 14572 087b BC000000 		.4byte	.LVL263
 14573 087f 0100     		.2byte	0x1
 14574 0881 56       		.byte	0x56
 14575 0882 BE000000 		.4byte	.LVL264
 14576 0886 C0000000 		.4byte	.LVL265
 14577 088a 0100     		.2byte	0x1
 14578 088c 56       		.byte	0x56
 14579 088d 00000000 		.4byte	0
 14580 0891 00000000 		.4byte	0
 14581              	.LLST68:
 14582 0895 D8000000 		.4byte	.LVL267
 14583 0899 F0000000 		.4byte	.LVL268
 14584 089d 0100     		.2byte	0x1
 14585 089f 53       		.byte	0x53
 14586 08a0 00000000 		.4byte	0
 14587 08a4 00000000 		.4byte	0
 14588              	.LLST69:
 14589 08a8 FA000000 		.4byte	.LVL269
 14590 08ac 08010000 		.4byte	.LVL270
 14591 08b0 0100     		.2byte	0x1
 14592 08b2 53       		.byte	0x53
 14593 08b3 08010000 		.4byte	.LVL270
 14594 08b7 0A010000 		.4byte	.LVL271
 14595 08bb 0F00     		.2byte	0xf
 14596 08bd 75       		.byte	0x75
 14597 08be F801     		.sleb128 248
 14598 08c0 94       		.byte	0x94
 14599 08c1 02       		.byte	0x2
 14600 08c2 40       		.byte	0x40
 14601 08c3 24       		.byte	0x24
 14602 08c4 40       		.byte	0x40
 14603 08c5 26       		.byte	0x26
 14604 08c6 76       		.byte	0x76
 14605 08c7 00       		.sleb128 0
 14606 08c8 1E       		.byte	0x1e
 14607 08c9 3F       		.byte	0x3f
 14608 08ca 26       		.byte	0x26
ARM GAS  C:\Users\user\AppData\Local\Temp\cc6TIdBD.s 			page 287


 14609 08cb 9F       		.byte	0x9f
 14610 08cc 0A010000 		.4byte	.LVL271
 14611 08d0 0E010000 		.4byte	.LVL272
 14612 08d4 0100     		.2byte	0x1
 14613 08d6 53       		.byte	0x53
 14614 08d7 0E010000 		.4byte	.LVL272
 14615 08db 10010000 		.4byte	.LVL273
 14616 08df 0F00     		.2byte	0xf
 14617 08e1 75       		.byte	0x75
 14618 08e2 F801     		.sleb128 248
 14619 08e4 94       		.byte	0x94
 14620 08e5 02       		.byte	0x2
 14621 08e6 40       		.byte	0x40
 14622 08e7 24       		.byte	0x24
 14623 08e8 40       		.byte	0x40
 14624 08e9 26       		.byte	0x26
 14625 08ea 76       		.byte	0x76
 14626 08eb 00       		.sleb128 0
 14627 08ec 1E       		.byte	0x1e
 14628 08ed 3F       		.byte	0x3f
 14629 08ee 26       		.byte	0x26
 14630 08ef 9F       		.byte	0x9f
 14631 08f0 10010000 		.4byte	.LVL273
 14632 08f4 12010000 		.4byte	.LVL274
 14633 08f8 0100     		.2byte	0x1
 14634 08fa 53       		.byte	0x53
 14635 08fb 00000000 		.4byte	0
 14636 08ff 00000000 		.4byte	0
 14637              	.LLST70:
 14638 0903 14010000 		.4byte	.LVL275
 14639 0907 2C010000 		.4byte	.LVL276
 14640 090b 0100     		.2byte	0x1
 14641 090d 52       		.byte	0x52
 14642 090e 00000000 		.4byte	0
 14643 0912 00000000 		.4byte	0
 14644              	.LLST71:
 14645 0916 00000000 		.4byte	.LVL281
 14646 091a 13000000 		.4byte	.LVL284-1
 14647 091e 0100     		.2byte	0x1
 14648 0920 50       		.byte	0x50
 14649 0921 13000000 		.4byte	.LVL284-1
 14650 0925 26010000 		.4byte	.LVL316
 14651 0929 0100     		.2byte	0x1
 14652 092b 54       		.byte	0x54
 14653 092c 26010000 		.4byte	.LVL316
 14654 0930 30010000 		.4byte	.LFE148
 14655 0934 0400     		.2byte	0x4
 14656 0936 F3       		.byte	0xf3
 14657 0937 01       		.uleb128 0x1
 14658 0938 50       		.byte	0x50
 14659 0939 9F       		.byte	0x9f
 14660 093a 00000000 		.4byte	0
 14661 093e 00000000 		.4byte	0
 14662              	.LLST72:
 14663 0942 00000000 		.4byte	.LVL281
 14664 0946 10000000 		.4byte	.LVL283
 14665 094a 0100     		.2byte	0x1
ARM GAS  C:\Users\user\AppData\Local\Temp\cc6TIdBD.s 			page 288


 14666 094c 51       		.byte	0x51
 14667 094d 10000000 		.4byte	.LVL283
 14668 0951 24000000 		.4byte	.LVL287
 14669 0955 0100     		.2byte	0x1
 14670 0957 56       		.byte	0x56
 14671 0958 24000000 		.4byte	.LVL287
 14672 095c 30010000 		.4byte	.LFE148
 14673 0960 0600     		.2byte	0x6
 14674 0962 F3       		.byte	0xf3
 14675 0963 03       		.uleb128 0x3
 14676 0964 F5       		.byte	0xf5
 14677 0965 01       		.uleb128 0x1
 14678 0966 25       		.uleb128 0x25
 14679 0967 9F       		.byte	0x9f
 14680 0968 00000000 		.4byte	0
 14681 096c 00000000 		.4byte	0
 14682              	.LLST73:
 14683 0970 00000000 		.4byte	.LVL281
 14684 0974 13000000 		.4byte	.LVL284-1
 14685 0978 0100     		.2byte	0x1
 14686 097a 52       		.byte	0x52
 14687 097b 13000000 		.4byte	.LVL284-1
 14688 097f 30010000 		.4byte	.LFE148
 14689 0983 0600     		.2byte	0x6
 14690 0985 F3       		.byte	0xf3
 14691 0986 03       		.uleb128 0x3
 14692 0987 F5       		.byte	0xf5
 14693 0988 02       		.uleb128 0x2
 14694 0989 25       		.uleb128 0x25
 14695 098a 9F       		.byte	0x9f
 14696 098b 00000000 		.4byte	0
 14697 098f 00000000 		.4byte	0
 14698              	.LLST74:
 14699 0993 0C000000 		.4byte	.LVL282
 14700 0997 26010000 		.4byte	.LVL316
 14701 099b 0100     		.2byte	0x1
 14702 099d 55       		.byte	0x55
 14703 099e 00000000 		.4byte	0
 14704 09a2 00000000 		.4byte	0
 14705              	.LLST75:
 14706 09a6 1C000000 		.4byte	.LVL285
 14707 09aa 21000000 		.4byte	.LVL286-1
 14708 09ae 0100     		.2byte	0x1
 14709 09b0 50       		.byte	0x50
 14710 09b1 00000000 		.4byte	0
 14711 09b5 00000000 		.4byte	0
 14712              	.LLST76:
 14713 09b9 24000000 		.4byte	.LVL287
 14714 09bd 2B000000 		.4byte	.LVL288-1
 14715 09c1 0100     		.2byte	0x1
 14716 09c3 50       		.byte	0x50
 14717 09c4 2B000000 		.4byte	.LVL288-1
 14718 09c8 52000000 		.4byte	.LVL292
 14719 09cc 0100     		.2byte	0x1
 14720 09ce 56       		.byte	0x56
 14721 09cf 00000000 		.4byte	0
 14722 09d3 00000000 		.4byte	0
ARM GAS  C:\Users\user\AppData\Local\Temp\cc6TIdBD.s 			page 289


 14723              	.LLST77:
 14724 09d7 6E000000 		.4byte	.LVL295
 14725 09db 75000000 		.4byte	.LVL296-1
 14726 09df 0100     		.2byte	0x1
 14727 09e1 50       		.byte	0x50
 14728 09e2 75000000 		.4byte	.LVL296-1
 14729 09e6 9C000000 		.4byte	.LVL300
 14730 09ea 0100     		.2byte	0x1
 14731 09ec 56       		.byte	0x56
 14732 09ed 00000000 		.4byte	0
 14733 09f1 00000000 		.4byte	0
 14734              	.LLST78:
 14735 09f5 AC000000 		.4byte	.LVL302
 14736 09f9 B3000000 		.4byte	.LVL303-1
 14737 09fd 0100     		.2byte	0x1
 14738 09ff 50       		.byte	0x50
 14739 0a00 B3000000 		.4byte	.LVL303-1
 14740 0a04 DA000000 		.4byte	.LVL307
 14741 0a08 0100     		.2byte	0x1
 14742 0a0a 56       		.byte	0x56
 14743 0a0b 00000000 		.4byte	0
 14744 0a0f 00000000 		.4byte	0
 14745              	.LLST79:
 14746 0a13 EA000000 		.4byte	.LVL308
 14747 0a17 F1000000 		.4byte	.LVL309-1
 14748 0a1b 0200     		.2byte	0x2
 14749 0a1d 91       		.byte	0x91
 14750 0a1e 64       		.sleb128 -28
 14751 0a1f 00000000 		.4byte	0
 14752 0a23 00000000 		.4byte	0
 14753              	.LLST80:
 14754 0a27 06010000 		.4byte	.LVL312
 14755 0a2b 0D010000 		.4byte	.LVL313-1
 14756 0a2f 0200     		.2byte	0x2
 14757 0a31 91       		.byte	0x91
 14758 0a32 66       		.sleb128 -26
 14759 0a33 00000000 		.4byte	0
 14760 0a37 00000000 		.4byte	0
 14761              	.LLST81:
 14762 0a3b 00000000 		.4byte	.LVL317
 14763 0a3f 16000000 		.4byte	.LVL320
 14764 0a43 0100     		.2byte	0x1
 14765 0a45 50       		.byte	0x50
 14766 0a46 16000000 		.4byte	.LVL320
 14767 0a4a A0010000 		.4byte	.LVL367
 14768 0a4e 0100     		.2byte	0x1
 14769 0a50 56       		.byte	0x56
 14770 0a51 A0010000 		.4byte	.LVL367
 14771 0a55 A8010000 		.4byte	.LFE145
 14772 0a59 0400     		.2byte	0x4
 14773 0a5b F3       		.byte	0xf3
 14774 0a5c 01       		.uleb128 0x1
 14775 0a5d 50       		.byte	0x50
 14776 0a5e 9F       		.byte	0x9f
 14777 0a5f 00000000 		.4byte	0
 14778 0a63 00000000 		.4byte	0
 14779              	.LLST82:
ARM GAS  C:\Users\user\AppData\Local\Temp\cc6TIdBD.s 			page 290


 14780 0a67 00000000 		.4byte	.LVL317
 14781 0a6b 14000000 		.4byte	.LVL319
 14782 0a6f 0100     		.2byte	0x1
 14783 0a71 51       		.byte	0x51
 14784 0a72 14000000 		.4byte	.LVL319
 14785 0a76 58000000 		.4byte	.LVL329
 14786 0a7a 0100     		.2byte	0x1
 14787 0a7c 57       		.byte	0x57
 14788 0a7d 58000000 		.4byte	.LVL329
 14789 0a81 A8010000 		.4byte	.LFE145
 14790 0a85 0400     		.2byte	0x4
 14791 0a87 F3       		.byte	0xf3
 14792 0a88 01       		.uleb128 0x1
 14793 0a89 51       		.byte	0x51
 14794 0a8a 9F       		.byte	0x9f
 14795 0a8b 00000000 		.4byte	0
 14796 0a8f 00000000 		.4byte	0
 14797              	.LLST83:
 14798 0a93 00000000 		.4byte	.LVL317
 14799 0a97 19000000 		.4byte	.LVL321-1
 14800 0a9b 0100     		.2byte	0x1
 14801 0a9d 52       		.byte	0x52
 14802 0a9e 19000000 		.4byte	.LVL321-1
 14803 0aa2 A0010000 		.4byte	.LVL367
 14804 0aa6 0100     		.2byte	0x1
 14805 0aa8 58       		.byte	0x58
 14806 0aa9 A0010000 		.4byte	.LVL367
 14807 0aad A8010000 		.4byte	.LFE145
 14808 0ab1 0600     		.2byte	0x6
 14809 0ab3 F3       		.byte	0xf3
 14810 0ab4 03       		.uleb128 0x3
 14811 0ab5 F5       		.byte	0xf5
 14812 0ab6 02       		.uleb128 0x2
 14813 0ab7 25       		.uleb128 0x25
 14814 0ab8 9F       		.byte	0x9f
 14815 0ab9 00000000 		.4byte	0
 14816 0abd 00000000 		.4byte	0
 14817              	.LLST84:
 14818 0ac1 00000000 		.4byte	.LVL317
 14819 0ac5 19000000 		.4byte	.LVL321-1
 14820 0ac9 0100     		.2byte	0x1
 14821 0acb 53       		.byte	0x53
 14822 0acc 19000000 		.4byte	.LVL321-1
 14823 0ad0 A0010000 		.4byte	.LVL367
 14824 0ad4 0100     		.2byte	0x1
 14825 0ad6 55       		.byte	0x55
 14826 0ad7 A0010000 		.4byte	.LVL367
 14827 0adb A8010000 		.4byte	.LFE145
 14828 0adf 0400     		.2byte	0x4
 14829 0ae1 F3       		.byte	0xf3
 14830 0ae2 01       		.uleb128 0x1
 14831 0ae3 53       		.byte	0x53
 14832 0ae4 9F       		.byte	0x9f
 14833 0ae5 00000000 		.4byte	0
 14834 0ae9 00000000 		.4byte	0
 14835              	.LLST85:
 14836 0aed 12000000 		.4byte	.LVL318
ARM GAS  C:\Users\user\AppData\Local\Temp\cc6TIdBD.s 			page 291


 14837 0af1 A0010000 		.4byte	.LVL367
 14838 0af5 0100     		.2byte	0x1
 14839 0af7 54       		.byte	0x54
 14840 0af8 00000000 		.4byte	0
 14841 0afc 00000000 		.4byte	0
 14842              	.LLST86:
 14843 0b00 1C000000 		.4byte	.LVL322
 14844 0b04 23000000 		.4byte	.LVL323-1
 14845 0b08 0100     		.2byte	0x1
 14846 0b0a 50       		.byte	0x50
 14847 0b0b 23000000 		.4byte	.LVL323-1
 14848 0b0f 4A000000 		.4byte	.LVL327
 14849 0b13 0100     		.2byte	0x1
 14850 0b15 59       		.byte	0x59
 14851 0b16 00000000 		.4byte	0
 14852 0b1a 00000000 		.4byte	0
 14853              	.LLST87:
 14854 0b1e 58000000 		.4byte	.LVL329
 14855 0b22 5F000000 		.4byte	.LVL330-1
 14856 0b26 0100     		.2byte	0x1
 14857 0b28 50       		.byte	0x50
 14858 0b29 5F000000 		.4byte	.LVL330-1
 14859 0b2d 86000000 		.4byte	.LVL334
 14860 0b31 0100     		.2byte	0x1
 14861 0b33 57       		.byte	0x57
 14862 0b34 00000000 		.4byte	0
 14863 0b38 00000000 		.4byte	0
 14864              	.LLST88:
 14865 0b3c 94000000 		.4byte	.LVL336
 14866 0b40 9B000000 		.4byte	.LVL337-1
 14867 0b44 0100     		.2byte	0x1
 14868 0b46 50       		.byte	0x50
 14869 0b47 9B000000 		.4byte	.LVL337-1
 14870 0b4b C2000000 		.4byte	.LVL341
 14871 0b4f 0100     		.2byte	0x1
 14872 0b51 57       		.byte	0x57
 14873 0b52 00000000 		.4byte	0
 14874 0b56 00000000 		.4byte	0
 14875              	.LLST89:
 14876 0b5a EA000000 		.4byte	.LVL344
 14877 0b5e F8000000 		.4byte	.LVL345
 14878 0b62 0100     		.2byte	0x1
 14879 0b64 53       		.byte	0x53
 14880 0b65 F8000000 		.4byte	.LVL345
 14881 0b69 FA000000 		.4byte	.LVL346
 14882 0b6d 0B00     		.2byte	0xb
 14883 0b6f 72       		.byte	0x72
 14884 0b70 00       		.sleb128 0
 14885 0b71 41       		.byte	0x41
 14886 0b72 24       		.byte	0x24
 14887 0b73 91       		.byte	0x91
 14888 0b74 50       		.sleb128 -48
 14889 0b75 06       		.byte	0x6
 14890 0b76 3F       		.byte	0x3f
 14891 0b77 25       		.byte	0x25
 14892 0b78 21       		.byte	0x21
 14893 0b79 9F       		.byte	0x9f
ARM GAS  C:\Users\user\AppData\Local\Temp\cc6TIdBD.s 			page 292


 14894 0b7a FA000000 		.4byte	.LVL346
 14895 0b7e FE000000 		.4byte	.LVL347
 14896 0b82 0100     		.2byte	0x1
 14897 0b84 53       		.byte	0x53
 14898 0b85 FE000000 		.4byte	.LVL347
 14899 0b89 00010000 		.4byte	.LVL348
 14900 0b8d 0B00     		.2byte	0xb
 14901 0b8f 72       		.byte	0x72
 14902 0b90 00       		.sleb128 0
 14903 0b91 41       		.byte	0x41
 14904 0b92 24       		.byte	0x24
 14905 0b93 91       		.byte	0x91
 14906 0b94 50       		.sleb128 -48
 14907 0b95 06       		.byte	0x6
 14908 0b96 3F       		.byte	0x3f
 14909 0b97 25       		.byte	0x25
 14910 0b98 21       		.byte	0x21
 14911 0b99 9F       		.byte	0x9f
 14912 0b9a 00010000 		.4byte	.LVL348
 14913 0b9e 02010000 		.4byte	.LVL349
 14914 0ba2 0100     		.2byte	0x1
 14915 0ba4 53       		.byte	0x53
 14916 0ba5 00000000 		.4byte	0
 14917 0ba9 00000000 		.4byte	0
 14918              	.LLST90:
 14919 0bad 08010000 		.4byte	.LVL350
 14920 0bb1 20010000 		.4byte	.LVL351
 14921 0bb5 0100     		.2byte	0x1
 14922 0bb7 52       		.byte	0x52
 14923 0bb8 00000000 		.4byte	0
 14924 0bbc 00000000 		.4byte	0
 14925              	.LLST91:
 14926 0bc0 4E010000 		.4byte	.LVL356
 14927 0bc4 5C010000 		.4byte	.LVL357
 14928 0bc8 0100     		.2byte	0x1
 14929 0bca 53       		.byte	0x53
 14930 0bcb 5C010000 		.4byte	.LVL357
 14931 0bcf 5E010000 		.4byte	.LVL358
 14932 0bd3 0B00     		.2byte	0xb
 14933 0bd5 72       		.byte	0x72
 14934 0bd6 00       		.sleb128 0
 14935 0bd7 41       		.byte	0x41
 14936 0bd8 24       		.byte	0x24
 14937 0bd9 91       		.byte	0x91
 14938 0bda 50       		.sleb128 -48
 14939 0bdb 06       		.byte	0x6
 14940 0bdc 3F       		.byte	0x3f
 14941 0bdd 25       		.byte	0x25
 14942 0bde 21       		.byte	0x21
 14943 0bdf 9F       		.byte	0x9f
 14944 0be0 5E010000 		.4byte	.LVL358
 14945 0be4 62010000 		.4byte	.LVL359
 14946 0be8 0100     		.2byte	0x1
 14947 0bea 53       		.byte	0x53
 14948 0beb 62010000 		.4byte	.LVL359
 14949 0bef 64010000 		.4byte	.LVL360
 14950 0bf3 0B00     		.2byte	0xb
ARM GAS  C:\Users\user\AppData\Local\Temp\cc6TIdBD.s 			page 293


 14951 0bf5 72       		.byte	0x72
 14952 0bf6 00       		.sleb128 0
 14953 0bf7 41       		.byte	0x41
 14954 0bf8 24       		.byte	0x24
 14955 0bf9 91       		.byte	0x91
 14956 0bfa 50       		.sleb128 -48
 14957 0bfb 06       		.byte	0x6
 14958 0bfc 3F       		.byte	0x3f
 14959 0bfd 25       		.byte	0x25
 14960 0bfe 21       		.byte	0x21
 14961 0bff 9F       		.byte	0x9f
 14962 0c00 64010000 		.4byte	.LVL360
 14963 0c04 66010000 		.4byte	.LVL361
 14964 0c08 0100     		.2byte	0x1
 14965 0c0a 53       		.byte	0x53
 14966 0c0b 00000000 		.4byte	0
 14967 0c0f 00000000 		.4byte	0
 14968              	.LLST92:
 14969 0c13 6C010000 		.4byte	.LVL362
 14970 0c17 84010000 		.4byte	.LVL363
 14971 0c1b 0100     		.2byte	0x1
 14972 0c1d 52       		.byte	0x52
 14973 0c1e 00000000 		.4byte	0
 14974 0c22 00000000 		.4byte	0
 14975              	.LLST93:
 14976 0c26 00000000 		.4byte	.LVL368
 14977 0c2a 19000000 		.4byte	.LVL371-1
 14978 0c2e 0100     		.2byte	0x1
 14979 0c30 50       		.byte	0x50
 14980 0c31 19000000 		.4byte	.LVL371-1
 14981 0c35 3C010000 		.4byte	.LVL408
 14982 0c39 0100     		.2byte	0x1
 14983 0c3b 54       		.byte	0x54
 14984 0c3c 3C010000 		.4byte	.LVL408
 14985 0c40 44010000 		.4byte	.LFE147
 14986 0c44 0400     		.2byte	0x4
 14987 0c46 F3       		.byte	0xf3
 14988 0c47 01       		.uleb128 0x1
 14989 0c48 50       		.byte	0x50
 14990 0c49 9F       		.byte	0x9f
 14991 0c4a 00000000 		.4byte	0
 14992 0c4e 00000000 		.4byte	0
 14993              	.LLST94:
 14994 0c52 00000000 		.4byte	.LVL368
 14995 0c56 16000000 		.4byte	.LVL370
 14996 0c5a 0100     		.2byte	0x1
 14997 0c5c 51       		.byte	0x51
 14998 0c5d 16000000 		.4byte	.LVL370
 14999 0c61 2A000000 		.4byte	.LVL374
 15000 0c65 0100     		.2byte	0x1
 15001 0c67 58       		.byte	0x58
 15002 0c68 2A000000 		.4byte	.LVL374
 15003 0c6c 44010000 		.4byte	.LFE147
 15004 0c70 0600     		.2byte	0x6
 15005 0c72 F3       		.byte	0xf3
 15006 0c73 03       		.uleb128 0x3
 15007 0c74 F5       		.byte	0xf5
ARM GAS  C:\Users\user\AppData\Local\Temp\cc6TIdBD.s 			page 294


 15008 0c75 01       		.uleb128 0x1
 15009 0c76 25       		.uleb128 0x25
 15010 0c77 9F       		.byte	0x9f
 15011 0c78 00000000 		.4byte	0
 15012 0c7c 00000000 		.4byte	0
 15013              	.LLST95:
 15014 0c80 00000000 		.4byte	.LVL368
 15015 0c84 19000000 		.4byte	.LVL371-1
 15016 0c88 0100     		.2byte	0x1
 15017 0c8a 52       		.byte	0x52
 15018 0c8b 19000000 		.4byte	.LVL371-1
 15019 0c8f 44010000 		.4byte	.LFE147
 15020 0c93 0600     		.2byte	0x6
 15021 0c95 F3       		.byte	0xf3
 15022 0c96 03       		.uleb128 0x3
 15023 0c97 F5       		.byte	0xf5
 15024 0c98 02       		.uleb128 0x2
 15025 0c99 25       		.uleb128 0x25
 15026 0c9a 9F       		.byte	0x9f
 15027 0c9b 00000000 		.4byte	0
 15028 0c9f 00000000 		.4byte	0
 15029              	.LLST96:
 15030 0ca3 00000000 		.4byte	.LVL368
 15031 0ca7 19000000 		.4byte	.LVL371-1
 15032 0cab 0100     		.2byte	0x1
 15033 0cad 53       		.byte	0x53
 15034 0cae 19000000 		.4byte	.LVL371-1
 15035 0cb2 3C010000 		.4byte	.LVL408
 15036 0cb6 0100     		.2byte	0x1
 15037 0cb8 57       		.byte	0x57
 15038 0cb9 3C010000 		.4byte	.LVL408
 15039 0cbd 44010000 		.4byte	.LFE147
 15040 0cc1 0600     		.2byte	0x6
 15041 0cc3 F3       		.byte	0xf3
 15042 0cc4 03       		.uleb128 0x3
 15043 0cc5 F5       		.byte	0xf5
 15044 0cc6 03       		.uleb128 0x3
 15045 0cc7 25       		.uleb128 0x25
 15046 0cc8 9F       		.byte	0x9f
 15047 0cc9 00000000 		.4byte	0
 15048 0ccd 00000000 		.4byte	0
 15049              	.LLST97:
 15050 0cd1 10000000 		.4byte	.LVL369
 15051 0cd5 3C010000 		.4byte	.LVL408
 15052 0cd9 0100     		.2byte	0x1
 15053 0cdb 55       		.byte	0x55
 15054 0cdc 00000000 		.4byte	0
 15055 0ce0 00000000 		.4byte	0
 15056              	.LLST98:
 15057 0ce4 22000000 		.4byte	.LVL372
 15058 0ce8 27000000 		.4byte	.LVL373-1
 15059 0cec 0100     		.2byte	0x1
 15060 0cee 50       		.byte	0x50
 15061 0cef 00000000 		.4byte	0
 15062 0cf3 00000000 		.4byte	0
 15063              	.LLST99:
 15064 0cf7 2A000000 		.4byte	.LVL374
ARM GAS  C:\Users\user\AppData\Local\Temp\cc6TIdBD.s 			page 295


 15065 0cfb 31000000 		.4byte	.LVL375-1
 15066 0cff 0100     		.2byte	0x1
 15067 0d01 50       		.byte	0x50
 15068 0d02 31000000 		.4byte	.LVL375-1
 15069 0d06 50000000 		.4byte	.LVL379
 15070 0d0a 0100     		.2byte	0x1
 15071 0d0c 58       		.byte	0x58
 15072 0d0d 52000000 		.4byte	.LVL380
 15073 0d11 56000000 		.4byte	.LVL381
 15074 0d15 0100     		.2byte	0x1
 15075 0d17 58       		.byte	0x58
 15076 0d18 58000000 		.4byte	.LVL382
 15077 0d1c 5C000000 		.4byte	.LVL383
 15078 0d20 0100     		.2byte	0x1
 15079 0d22 58       		.byte	0x58
 15080 0d23 00000000 		.4byte	0
 15081 0d27 00000000 		.4byte	0
 15082              	.LLST100:
 15083 0d2b 84000000 		.4byte	.LVL387
 15084 0d2f 8B000000 		.4byte	.LVL388-1
 15085 0d33 0100     		.2byte	0x1
 15086 0d35 50       		.byte	0x50
 15087 0d36 8B000000 		.4byte	.LVL388-1
 15088 0d3a B2000000 		.4byte	.LVL392
 15089 0d3e 0100     		.2byte	0x1
 15090 0d40 56       		.byte	0x56
 15091 0d41 00000000 		.4byte	0
 15092 0d45 00000000 		.4byte	0
 15093              	.LLST101:
 15094 0d49 C0000000 		.4byte	.LVL394
 15095 0d4d C7000000 		.4byte	.LVL395-1
 15096 0d51 0100     		.2byte	0x1
 15097 0d53 50       		.byte	0x50
 15098 0d54 C7000000 		.4byte	.LVL395-1
 15099 0d58 EE000000 		.4byte	.LVL399
 15100 0d5c 0100     		.2byte	0x1
 15101 0d5e 56       		.byte	0x56
 15102 0d5f 00000000 		.4byte	0
 15103 0d63 00000000 		.4byte	0
 15104              	.LLST102:
 15105 0d67 FE000000 		.4byte	.LVL400
 15106 0d6b 05010000 		.4byte	.LVL401-1
 15107 0d6f 0200     		.2byte	0x2
 15108 0d71 91       		.byte	0x91
 15109 0d72 54       		.sleb128 -44
 15110 0d73 00000000 		.4byte	0
 15111 0d77 00000000 		.4byte	0
 15112              	.LLST103:
 15113 0d7b 1A010000 		.4byte	.LVL404
 15114 0d7f 21010000 		.4byte	.LVL405-1
 15115 0d83 0200     		.2byte	0x2
 15116 0d85 91       		.byte	0x91
 15117 0d86 56       		.sleb128 -42
 15118 0d87 00000000 		.4byte	0
 15119 0d8b 00000000 		.4byte	0
 15120              	.LLST104:
 15121 0d8f 00000000 		.4byte	.LVL409
ARM GAS  C:\Users\user\AppData\Local\Temp\cc6TIdBD.s 			page 296


 15122 0d93 0F000000 		.4byte	.LVL411-1
 15123 0d97 0100     		.2byte	0x1
 15124 0d99 50       		.byte	0x50
 15125 0d9a 0F000000 		.4byte	.LVL411-1
 15126 0d9e 12000000 		.4byte	.LFE149
 15127 0da2 0400     		.2byte	0x4
 15128 0da4 F3       		.byte	0xf3
 15129 0da5 01       		.uleb128 0x1
 15130 0da6 50       		.byte	0x50
 15131 0da7 9F       		.byte	0x9f
 15132 0da8 00000000 		.4byte	0
 15133 0dac 00000000 		.4byte	0
 15134              	.LLST105:
 15135 0db0 00000000 		.4byte	.LVL409
 15136 0db4 0C000000 		.4byte	.LVL410
 15137 0db8 0100     		.2byte	0x1
 15138 0dba 51       		.byte	0x51
 15139 0dbb 0C000000 		.4byte	.LVL410
 15140 0dbf 0F000000 		.4byte	.LVL411-1
 15141 0dc3 0100     		.2byte	0x1
 15142 0dc5 52       		.byte	0x52
 15143 0dc6 0F000000 		.4byte	.LVL411-1
 15144 0dca 12000000 		.4byte	.LFE149
 15145 0dce 0600     		.2byte	0x6
 15146 0dd0 F3       		.byte	0xf3
 15147 0dd1 03       		.uleb128 0x3
 15148 0dd2 F5       		.byte	0xf5
 15149 0dd3 01       		.uleb128 0x1
 15150 0dd4 25       		.uleb128 0x25
 15151 0dd5 9F       		.byte	0x9f
 15152 0dd6 00000000 		.4byte	0
 15153 0dda 00000000 		.4byte	0
 15154              	.LLST106:
 15155 0dde 00000000 		.4byte	.LVL412
 15156 0de2 10000000 		.4byte	.LVL414
 15157 0de6 0100     		.2byte	0x1
 15158 0de8 50       		.byte	0x50
 15159 0de9 10000000 		.4byte	.LVL414
 15160 0ded DC000000 		.4byte	.LVL436
 15161 0df1 0100     		.2byte	0x1
 15162 0df3 55       		.byte	0x55
 15163 0df4 DC000000 		.4byte	.LVL436
 15164 0df8 44010000 		.4byte	.LFE146
 15165 0dfc 0400     		.2byte	0x4
 15166 0dfe F3       		.byte	0xf3
 15167 0dff 01       		.uleb128 0x1
 15168 0e00 50       		.byte	0x50
 15169 0e01 9F       		.byte	0x9f
 15170 0e02 00000000 		.4byte	0
 15171 0e06 00000000 		.4byte	0
 15172              	.LLST107:
 15173 0e0a 0A000000 		.4byte	.LVL413
 15174 0e0e 3C010000 		.4byte	.LVL447
 15175 0e12 0100     		.2byte	0x1
 15176 0e14 56       		.byte	0x56
 15177 0e15 00000000 		.4byte	0
 15178 0e19 00000000 		.4byte	0
ARM GAS  C:\Users\user\AppData\Local\Temp\cc6TIdBD.s 			page 297


 15179              	.LLST108:
 15180 0e1d D4000000 		.4byte	.LVL434
 15181 0e21 D9000000 		.4byte	.LVL435-1
 15182 0e25 0100     		.2byte	0x1
 15183 0e27 50       		.byte	0x50
 15184 0e28 00000000 		.4byte	0
 15185 0e2c 00000000 		.4byte	0
 15186              	.LLST109:
 15187 0e30 16000000 		.4byte	.LVL416
 15188 0e34 1D000000 		.4byte	.LVL417-1
 15189 0e38 0100     		.2byte	0x1
 15190 0e3a 50       		.byte	0x50
 15191 0e3b 1D000000 		.4byte	.LVL417-1
 15192 0e3f 44000000 		.4byte	.LVL421
 15193 0e43 0100     		.2byte	0x1
 15194 0e45 54       		.byte	0x54
 15195 0e46 00000000 		.4byte	0
 15196 0e4a 00000000 		.4byte	0
 15197              	.LLST110:
 15198 0e4e 54000000 		.4byte	.LVL423
 15199 0e52 5B000000 		.4byte	.LVL424-1
 15200 0e56 0100     		.2byte	0x1
 15201 0e58 50       		.byte	0x50
 15202 0e59 5B000000 		.4byte	.LVL424-1
 15203 0e5d 82000000 		.4byte	.LVL428
 15204 0e61 0100     		.2byte	0x1
 15205 0e63 54       		.byte	0x54
 15206 0e64 00000000 		.4byte	0
 15207 0e68 00000000 		.4byte	0
 15208              	.LLST111:
 15209 0e6c 9E000000 		.4byte	.LVL430
 15210 0e70 B6000000 		.4byte	.LVL431
 15211 0e74 0100     		.2byte	0x1
 15212 0e76 53       		.byte	0x53
 15213 0e77 00000000 		.4byte	0
 15214 0e7b 00000000 		.4byte	0
 15215              	.LLST112:
 15216 0e7f DC000000 		.4byte	.LVL436
 15217 0e83 E3000000 		.4byte	.LVL437-1
 15218 0e87 0100     		.2byte	0x1
 15219 0e89 50       		.byte	0x50
 15220 0e8a E3000000 		.4byte	.LVL437-1
 15221 0e8e 0A010000 		.4byte	.LVL441
 15222 0e92 0100     		.2byte	0x1
 15223 0e94 55       		.byte	0x55
 15224 0e95 00000000 		.4byte	0
 15225 0e99 00000000 		.4byte	0
 15226              	.LLST113:
 15227 0e9d 0C010000 		.4byte	.LVL442
 15228 0ea1 24010000 		.4byte	.LVL443
 15229 0ea5 0100     		.2byte	0x1
 15230 0ea7 53       		.byte	0x53
 15231 0ea8 00000000 		.4byte	0
 15232 0eac 00000000 		.4byte	0
 15233              	.LLST114:
 15234 0eb0 00000000 		.4byte	.LVL448
 15235 0eb4 14000000 		.4byte	.LVL451
ARM GAS  C:\Users\user\AppData\Local\Temp\cc6TIdBD.s 			page 298


 15236 0eb8 0100     		.2byte	0x1
 15237 0eba 50       		.byte	0x50
 15238 0ebb 14000000 		.4byte	.LVL451
 15239 0ebf 3E010000 		.4byte	.LVL487
 15240 0ec3 0100     		.2byte	0x1
 15241 0ec5 56       		.byte	0x56
 15242 0ec6 3E010000 		.4byte	.LVL487
 15243 0eca 44010000 		.4byte	.LFE150
 15244 0ece 0400     		.2byte	0x4
 15245 0ed0 F3       		.byte	0xf3
 15246 0ed1 01       		.uleb128 0x1
 15247 0ed2 50       		.byte	0x50
 15248 0ed3 9F       		.byte	0x9f
 15249 0ed4 00000000 		.4byte	0
 15250 0ed8 00000000 		.4byte	0
 15251              	.LLST115:
 15252 0edc 00000000 		.4byte	.LVL448
 15253 0ee0 12000000 		.4byte	.LVL450
 15254 0ee4 0100     		.2byte	0x1
 15255 0ee6 51       		.byte	0x51
 15256 0ee7 12000000 		.4byte	.LVL450
 15257 0eeb 56000000 		.4byte	.LVL460
 15258 0eef 0100     		.2byte	0x1
 15259 0ef1 54       		.byte	0x54
 15260 0ef2 56000000 		.4byte	.LVL460
 15261 0ef6 44010000 		.4byte	.LFE150
 15262 0efa 0400     		.2byte	0x4
 15263 0efc F3       		.byte	0xf3
 15264 0efd 01       		.uleb128 0x1
 15265 0efe 51       		.byte	0x51
 15266 0eff 9F       		.byte	0x9f
 15267 0f00 00000000 		.4byte	0
 15268 0f04 00000000 		.4byte	0
 15269              	.LLST116:
 15270 0f08 00000000 		.4byte	.LVL448
 15271 0f0c 17000000 		.4byte	.LVL452-1
 15272 0f10 0100     		.2byte	0x1
 15273 0f12 52       		.byte	0x52
 15274 0f13 17000000 		.4byte	.LVL452-1
 15275 0f17 3E010000 		.4byte	.LVL487
 15276 0f1b 0100     		.2byte	0x1
 15277 0f1d 57       		.byte	0x57
 15278 0f1e 3E010000 		.4byte	.LVL487
 15279 0f22 44010000 		.4byte	.LFE150
 15280 0f26 0600     		.2byte	0x6
 15281 0f28 F3       		.byte	0xf3
 15282 0f29 03       		.uleb128 0x3
 15283 0f2a F5       		.byte	0xf5
 15284 0f2b 02       		.uleb128 0x2
 15285 0f2c 25       		.uleb128 0x25
 15286 0f2d 9F       		.byte	0x9f
 15287 0f2e 00000000 		.4byte	0
 15288 0f32 00000000 		.4byte	0
 15289              	.LLST117:
 15290 0f36 10000000 		.4byte	.LVL449
 15291 0f3a 3E010000 		.4byte	.LVL487
 15292 0f3e 0100     		.2byte	0x1
ARM GAS  C:\Users\user\AppData\Local\Temp\cc6TIdBD.s 			page 299


 15293 0f40 55       		.byte	0x55
 15294 0f41 00000000 		.4byte	0
 15295 0f45 00000000 		.4byte	0
 15296              	.LLST118:
 15297 0f49 1A000000 		.4byte	.LVL453
 15298 0f4d 21000000 		.4byte	.LVL454-1
 15299 0f51 0100     		.2byte	0x1
 15300 0f53 50       		.byte	0x50
 15301 0f54 21000000 		.4byte	.LVL454-1
 15302 0f58 48000000 		.4byte	.LVL458
 15303 0f5c 0100     		.2byte	0x1
 15304 0f5e 58       		.byte	0x58
 15305 0f5f 00000000 		.4byte	0
 15306 0f63 00000000 		.4byte	0
 15307              	.LLST119:
 15308 0f67 56000000 		.4byte	.LVL460
 15309 0f6b 5D000000 		.4byte	.LVL461-1
 15310 0f6f 0100     		.2byte	0x1
 15311 0f71 50       		.byte	0x50
 15312 0f72 5D000000 		.4byte	.LVL461-1
 15313 0f76 84000000 		.4byte	.LVL465
 15314 0f7a 0100     		.2byte	0x1
 15315 0f7c 54       		.byte	0x54
 15316 0f7d 00000000 		.4byte	0
 15317 0f81 00000000 		.4byte	0
 15318              	.LLST120:
 15319 0f85 92000000 		.4byte	.LVL467
 15320 0f89 99000000 		.4byte	.LVL468-1
 15321 0f8d 0100     		.2byte	0x1
 15322 0f8f 50       		.byte	0x50
 15323 0f90 99000000 		.4byte	.LVL468-1
 15324 0f94 B6000000 		.4byte	.LVL472
 15325 0f98 0100     		.2byte	0x1
 15326 0f9a 54       		.byte	0x54
 15327 0f9b B8000000 		.4byte	.LVL473
 15328 0f9f BA000000 		.4byte	.LVL474
 15329 0fa3 0100     		.2byte	0x1
 15330 0fa5 54       		.byte	0x54
 15331 0fa6 BC000000 		.4byte	.LVL475
 15332 0faa C0000000 		.4byte	.LVL476
 15333 0fae 0100     		.2byte	0x1
 15334 0fb0 54       		.byte	0x54
 15335 0fb1 00000000 		.4byte	0
 15336 0fb5 00000000 		.4byte	0
 15337              	.LLST121:
 15338 0fb9 D4000000 		.4byte	.LVL478
 15339 0fbd EA000000 		.4byte	.LVL479
 15340 0fc1 0100     		.2byte	0x1
 15341 0fc3 53       		.byte	0x53
 15342 0fc4 00000000 		.4byte	0
 15343 0fc8 00000000 		.4byte	0
 15344              	.LLST122:
 15345 0fcc F6000000 		.4byte	.LVL480
 15346 0fd0 0C010000 		.4byte	.LVL481
 15347 0fd4 0100     		.2byte	0x1
 15348 0fd6 52       		.byte	0x52
 15349 0fd7 00000000 		.4byte	0
ARM GAS  C:\Users\user\AppData\Local\Temp\cc6TIdBD.s 			page 300


 15350 0fdb 00000000 		.4byte	0
 15351              	.LLST123:
 15352 0fdf 0E010000 		.4byte	.LVL482
 15353 0fe3 24010000 		.4byte	.LVL483
 15354 0fe7 0100     		.2byte	0x1
 15355 0fe9 52       		.byte	0x52
 15356 0fea 00000000 		.4byte	0
 15357 0fee 00000000 		.4byte	0
 15358              	.LLST124:
 15359 0ff2 00000000 		.4byte	.LVL488
 15360 0ff6 13000000 		.4byte	.LVL491-1
 15361 0ffa 0100     		.2byte	0x1
 15362 0ffc 50       		.byte	0x50
 15363 0ffd 13000000 		.4byte	.LVL491-1
 15364 1001 26010000 		.4byte	.LVL523
 15365 1005 0100     		.2byte	0x1
 15366 1007 54       		.byte	0x54
 15367 1008 26010000 		.4byte	.LVL523
 15368 100c 2C010000 		.4byte	.LFE154
 15369 1010 0400     		.2byte	0x4
 15370 1012 F3       		.byte	0xf3
 15371 1013 01       		.uleb128 0x1
 15372 1014 50       		.byte	0x50
 15373 1015 9F       		.byte	0x9f
 15374 1016 00000000 		.4byte	0
 15375 101a 00000000 		.4byte	0
 15376              	.LLST125:
 15377 101e 00000000 		.4byte	.LVL488
 15378 1022 10000000 		.4byte	.LVL490
 15379 1026 0100     		.2byte	0x1
 15380 1028 51       		.byte	0x51
 15381 1029 10000000 		.4byte	.LVL490
 15382 102d 24000000 		.4byte	.LVL494
 15383 1031 0100     		.2byte	0x1
 15384 1033 56       		.byte	0x56
 15385 1034 24000000 		.4byte	.LVL494
 15386 1038 2C010000 		.4byte	.LFE154
 15387 103c 0600     		.2byte	0x6
 15388 103e F3       		.byte	0xf3
 15389 103f 03       		.uleb128 0x3
 15390 1040 F5       		.byte	0xf5
 15391 1041 01       		.uleb128 0x1
 15392 1042 25       		.uleb128 0x25
 15393 1043 9F       		.byte	0x9f
 15394 1044 00000000 		.4byte	0
 15395 1048 00000000 		.4byte	0
 15396              	.LLST126:
 15397 104c 00000000 		.4byte	.LVL488
 15398 1050 13000000 		.4byte	.LVL491-1
 15399 1054 0100     		.2byte	0x1
 15400 1056 52       		.byte	0x52
 15401 1057 13000000 		.4byte	.LVL491-1
 15402 105b 2C010000 		.4byte	.LFE154
 15403 105f 0600     		.2byte	0x6
 15404 1061 F3       		.byte	0xf3
 15405 1062 03       		.uleb128 0x3
 15406 1063 F5       		.byte	0xf5
ARM GAS  C:\Users\user\AppData\Local\Temp\cc6TIdBD.s 			page 301


 15407 1064 02       		.uleb128 0x2
 15408 1065 25       		.uleb128 0x25
 15409 1066 9F       		.byte	0x9f
 15410 1067 00000000 		.4byte	0
 15411 106b 00000000 		.4byte	0
 15412              	.LLST127:
 15413 106f 0C000000 		.4byte	.LVL489
 15414 1073 26010000 		.4byte	.LVL523
 15415 1077 0100     		.2byte	0x1
 15416 1079 55       		.byte	0x55
 15417 107a 00000000 		.4byte	0
 15418 107e 00000000 		.4byte	0
 15419              	.LLST128:
 15420 1082 1C000000 		.4byte	.LVL492
 15421 1086 21000000 		.4byte	.LVL493-1
 15422 108a 0100     		.2byte	0x1
 15423 108c 50       		.byte	0x50
 15424 108d 00000000 		.4byte	0
 15425 1091 00000000 		.4byte	0
 15426              	.LLST129:
 15427 1095 24000000 		.4byte	.LVL494
 15428 1099 2B000000 		.4byte	.LVL495-1
 15429 109d 0100     		.2byte	0x1
 15430 109f 50       		.byte	0x50
 15431 10a0 2B000000 		.4byte	.LVL495-1
 15432 10a4 52000000 		.4byte	.LVL499
 15433 10a8 0100     		.2byte	0x1
 15434 10aa 56       		.byte	0x56
 15435 10ab 00000000 		.4byte	0
 15436 10af 00000000 		.4byte	0
 15437              	.LLST130:
 15438 10b3 6E000000 		.4byte	.LVL502
 15439 10b7 75000000 		.4byte	.LVL503-1
 15440 10bb 0100     		.2byte	0x1
 15441 10bd 50       		.byte	0x50
 15442 10be 75000000 		.4byte	.LVL503-1
 15443 10c2 9C000000 		.4byte	.LVL507
 15444 10c6 0100     		.2byte	0x1
 15445 10c8 56       		.byte	0x56
 15446 10c9 00000000 		.4byte	0
 15447 10cd 00000000 		.4byte	0
 15448              	.LLST131:
 15449 10d1 AC000000 		.4byte	.LVL509
 15450 10d5 B3000000 		.4byte	.LVL510-1
 15451 10d9 0100     		.2byte	0x1
 15452 10db 50       		.byte	0x50
 15453 10dc B3000000 		.4byte	.LVL510-1
 15454 10e0 DA000000 		.4byte	.LVL514
 15455 10e4 0100     		.2byte	0x1
 15456 10e6 56       		.byte	0x56
 15457 10e7 00000000 		.4byte	0
 15458 10eb 00000000 		.4byte	0
 15459              	.LLST132:
 15460 10ef EA000000 		.4byte	.LVL515
 15461 10f3 F1000000 		.4byte	.LVL516-1
 15462 10f7 0200     		.2byte	0x2
 15463 10f9 91       		.byte	0x91
ARM GAS  C:\Users\user\AppData\Local\Temp\cc6TIdBD.s 			page 302


 15464 10fa 64       		.sleb128 -28
 15465 10fb 00000000 		.4byte	0
 15466 10ff 00000000 		.4byte	0
 15467              	.LLST133:
 15468 1103 06010000 		.4byte	.LVL519
 15469 1107 0D010000 		.4byte	.LVL520-1
 15470 110b 0200     		.2byte	0x2
 15471 110d 91       		.byte	0x91
 15472 110e 65       		.sleb128 -27
 15473 110f 00000000 		.4byte	0
 15474 1113 00000000 		.4byte	0
 15475              	.LLST134:
 15476 1117 00000000 		.4byte	.LVL524
 15477 111b 16000000 		.4byte	.LVL527
 15478 111f 0100     		.2byte	0x1
 15479 1121 50       		.byte	0x50
 15480 1122 16000000 		.4byte	.LVL527
 15481 1126 90010000 		.4byte	.LVL566
 15482 112a 0100     		.2byte	0x1
 15483 112c 56       		.byte	0x56
 15484 112d 90010000 		.4byte	.LVL566
 15485 1131 94010000 		.4byte	.LFE151
 15486 1135 0400     		.2byte	0x4
 15487 1137 F3       		.byte	0xf3
 15488 1138 01       		.uleb128 0x1
 15489 1139 50       		.byte	0x50
 15490 113a 9F       		.byte	0x9f
 15491 113b 00000000 		.4byte	0
 15492 113f 00000000 		.4byte	0
 15493              	.LLST135:
 15494 1143 00000000 		.4byte	.LVL524
 15495 1147 14000000 		.4byte	.LVL526
 15496 114b 0100     		.2byte	0x1
 15497 114d 51       		.byte	0x51
 15498 114e 14000000 		.4byte	.LVL526
 15499 1152 58000000 		.4byte	.LVL536
 15500 1156 0100     		.2byte	0x1
 15501 1158 57       		.byte	0x57
 15502 1159 58000000 		.4byte	.LVL536
 15503 115d 94010000 		.4byte	.LFE151
 15504 1161 0400     		.2byte	0x4
 15505 1163 F3       		.byte	0xf3
 15506 1164 01       		.uleb128 0x1
 15507 1165 51       		.byte	0x51
 15508 1166 9F       		.byte	0x9f
 15509 1167 00000000 		.4byte	0
 15510 116b 00000000 		.4byte	0
 15511              	.LLST136:
 15512 116f 00000000 		.4byte	.LVL524
 15513 1173 19000000 		.4byte	.LVL528-1
 15514 1177 0100     		.2byte	0x1
 15515 1179 52       		.byte	0x52
 15516 117a 19000000 		.4byte	.LVL528-1
 15517 117e 90010000 		.4byte	.LVL566
 15518 1182 0100     		.2byte	0x1
 15519 1184 58       		.byte	0x58
 15520 1185 90010000 		.4byte	.LVL566
ARM GAS  C:\Users\user\AppData\Local\Temp\cc6TIdBD.s 			page 303


 15521 1189 94010000 		.4byte	.LFE151
 15522 118d 0600     		.2byte	0x6
 15523 118f F3       		.byte	0xf3
 15524 1190 03       		.uleb128 0x3
 15525 1191 F5       		.byte	0xf5
 15526 1192 02       		.uleb128 0x2
 15527 1193 25       		.uleb128 0x25
 15528 1194 9F       		.byte	0x9f
 15529 1195 00000000 		.4byte	0
 15530 1199 00000000 		.4byte	0
 15531              	.LLST137:
 15532 119d 00000000 		.4byte	.LVL524
 15533 11a1 19000000 		.4byte	.LVL528-1
 15534 11a5 0100     		.2byte	0x1
 15535 11a7 53       		.byte	0x53
 15536 11a8 19000000 		.4byte	.LVL528-1
 15537 11ac 90010000 		.4byte	.LVL566
 15538 11b0 0100     		.2byte	0x1
 15539 11b2 55       		.byte	0x55
 15540 11b3 90010000 		.4byte	.LVL566
 15541 11b7 94010000 		.4byte	.LFE151
 15542 11bb 0400     		.2byte	0x4
 15543 11bd F3       		.byte	0xf3
 15544 11be 01       		.uleb128 0x1
 15545 11bf 53       		.byte	0x53
 15546 11c0 9F       		.byte	0x9f
 15547 11c1 00000000 		.4byte	0
 15548 11c5 00000000 		.4byte	0
 15549              	.LLST138:
 15550 11c9 12000000 		.4byte	.LVL525
 15551 11cd 90010000 		.4byte	.LVL566
 15552 11d1 0100     		.2byte	0x1
 15553 11d3 54       		.byte	0x54
 15554 11d4 00000000 		.4byte	0
 15555 11d8 00000000 		.4byte	0
 15556              	.LLST139:
 15557 11dc 1C000000 		.4byte	.LVL529
 15558 11e0 23000000 		.4byte	.LVL530-1
 15559 11e4 0100     		.2byte	0x1
 15560 11e6 50       		.byte	0x50
 15561 11e7 23000000 		.4byte	.LVL530-1
 15562 11eb 4A000000 		.4byte	.LVL534
 15563 11ef 0100     		.2byte	0x1
 15564 11f1 59       		.byte	0x59
 15565 11f2 00000000 		.4byte	0
 15566 11f6 00000000 		.4byte	0
 15567              	.LLST140:
 15568 11fa 58000000 		.4byte	.LVL536
 15569 11fe 5F000000 		.4byte	.LVL537-1
 15570 1202 0100     		.2byte	0x1
 15571 1204 50       		.byte	0x50
 15572 1205 5F000000 		.4byte	.LVL537-1
 15573 1209 86000000 		.4byte	.LVL541
 15574 120d 0100     		.2byte	0x1
 15575 120f 57       		.byte	0x57
 15576 1210 00000000 		.4byte	0
 15577 1214 00000000 		.4byte	0
ARM GAS  C:\Users\user\AppData\Local\Temp\cc6TIdBD.s 			page 304


 15578              	.LLST141:
 15579 1218 94000000 		.4byte	.LVL543
 15580 121c 9B000000 		.4byte	.LVL544-1
 15581 1220 0100     		.2byte	0x1
 15582 1222 50       		.byte	0x50
 15583 1223 9B000000 		.4byte	.LVL544-1
 15584 1227 C2000000 		.4byte	.LVL548
 15585 122b 0100     		.2byte	0x1
 15586 122d 57       		.byte	0x57
 15587 122e 00000000 		.4byte	0
 15588 1232 00000000 		.4byte	0
 15589              	.LLST142:
 15590 1236 E6000000 		.4byte	.LVL551
 15591 123a FC000000 		.4byte	.LVL552
 15592 123e 0100     		.2byte	0x1
 15593 1240 52       		.byte	0x52
 15594 1241 00000000 		.4byte	0
 15595 1245 00000000 		.4byte	0
 15596              	.LLST143:
 15597 1249 02010000 		.4byte	.LVL553
 15598 124d 18010000 		.4byte	.LVL554
 15599 1251 0100     		.2byte	0x1
 15600 1253 52       		.byte	0x52
 15601 1254 00000000 		.4byte	0
 15602 1258 00000000 		.4byte	0
 15603              	.LLST144:
 15604 125c 42010000 		.4byte	.LVL559
 15605 1260 58010000 		.4byte	.LVL560
 15606 1264 0100     		.2byte	0x1
 15607 1266 52       		.byte	0x52
 15608 1267 00000000 		.4byte	0
 15609 126b 00000000 		.4byte	0
 15610              	.LLST145:
 15611 126f 5E010000 		.4byte	.LVL561
 15612 1273 74010000 		.4byte	.LVL562
 15613 1277 0100     		.2byte	0x1
 15614 1279 52       		.byte	0x52
 15615 127a 00000000 		.4byte	0
 15616 127e 00000000 		.4byte	0
 15617              	.LLST146:
 15618 1282 00000000 		.4byte	.LVL567
 15619 1286 19000000 		.4byte	.LVL570-1
 15620 128a 0100     		.2byte	0x1
 15621 128c 50       		.byte	0x50
 15622 128d 19000000 		.4byte	.LVL570-1
 15623 1291 3C010000 		.4byte	.LVL607
 15624 1295 0100     		.2byte	0x1
 15625 1297 54       		.byte	0x54
 15626 1298 3C010000 		.4byte	.LVL607
 15627 129c 40010000 		.4byte	.LFE153
 15628 12a0 0400     		.2byte	0x4
 15629 12a2 F3       		.byte	0xf3
 15630 12a3 01       		.uleb128 0x1
 15631 12a4 50       		.byte	0x50
 15632 12a5 9F       		.byte	0x9f
 15633 12a6 00000000 		.4byte	0
 15634 12aa 00000000 		.4byte	0
ARM GAS  C:\Users\user\AppData\Local\Temp\cc6TIdBD.s 			page 305


 15635              	.LLST147:
 15636 12ae 00000000 		.4byte	.LVL567
 15637 12b2 16000000 		.4byte	.LVL569
 15638 12b6 0100     		.2byte	0x1
 15639 12b8 51       		.byte	0x51
 15640 12b9 16000000 		.4byte	.LVL569
 15641 12bd 2A000000 		.4byte	.LVL573
 15642 12c1 0100     		.2byte	0x1
 15643 12c3 58       		.byte	0x58
 15644 12c4 2A000000 		.4byte	.LVL573
 15645 12c8 40010000 		.4byte	.LFE153
 15646 12cc 0600     		.2byte	0x6
 15647 12ce F3       		.byte	0xf3
 15648 12cf 03       		.uleb128 0x3
 15649 12d0 F5       		.byte	0xf5
 15650 12d1 01       		.uleb128 0x1
 15651 12d2 25       		.uleb128 0x25
 15652 12d3 9F       		.byte	0x9f
 15653 12d4 00000000 		.4byte	0
 15654 12d8 00000000 		.4byte	0
 15655              	.LLST148:
 15656 12dc 00000000 		.4byte	.LVL567
 15657 12e0 19000000 		.4byte	.LVL570-1
 15658 12e4 0100     		.2byte	0x1
 15659 12e6 52       		.byte	0x52
 15660 12e7 19000000 		.4byte	.LVL570-1
 15661 12eb 40010000 		.4byte	.LFE153
 15662 12ef 0600     		.2byte	0x6
 15663 12f1 F3       		.byte	0xf3
 15664 12f2 03       		.uleb128 0x3
 15665 12f3 F5       		.byte	0xf5
 15666 12f4 02       		.uleb128 0x2
 15667 12f5 25       		.uleb128 0x25
 15668 12f6 9F       		.byte	0x9f
 15669 12f7 00000000 		.4byte	0
 15670 12fb 00000000 		.4byte	0
 15671              	.LLST149:
 15672 12ff 00000000 		.4byte	.LVL567
 15673 1303 19000000 		.4byte	.LVL570-1
 15674 1307 0100     		.2byte	0x1
 15675 1309 53       		.byte	0x53
 15676 130a 19000000 		.4byte	.LVL570-1
 15677 130e 3C010000 		.4byte	.LVL607
 15678 1312 0100     		.2byte	0x1
 15679 1314 57       		.byte	0x57
 15680 1315 3C010000 		.4byte	.LVL607
 15681 1319 40010000 		.4byte	.LFE153
 15682 131d 0600     		.2byte	0x6
 15683 131f F3       		.byte	0xf3
 15684 1320 03       		.uleb128 0x3
 15685 1321 F5       		.byte	0xf5
 15686 1322 03       		.uleb128 0x3
 15687 1323 25       		.uleb128 0x25
 15688 1324 9F       		.byte	0x9f
 15689 1325 00000000 		.4byte	0
 15690 1329 00000000 		.4byte	0
 15691              	.LLST150:
ARM GAS  C:\Users\user\AppData\Local\Temp\cc6TIdBD.s 			page 306


 15692 132d 10000000 		.4byte	.LVL568
 15693 1331 3C010000 		.4byte	.LVL607
 15694 1335 0100     		.2byte	0x1
 15695 1337 55       		.byte	0x55
 15696 1338 00000000 		.4byte	0
 15697 133c 00000000 		.4byte	0
 15698              	.LLST151:
 15699 1340 22000000 		.4byte	.LVL571
 15700 1344 27000000 		.4byte	.LVL572-1
 15701 1348 0100     		.2byte	0x1
 15702 134a 50       		.byte	0x50
 15703 134b 00000000 		.4byte	0
 15704 134f 00000000 		.4byte	0
 15705              	.LLST152:
 15706 1353 2A000000 		.4byte	.LVL573
 15707 1357 31000000 		.4byte	.LVL574-1
 15708 135b 0100     		.2byte	0x1
 15709 135d 50       		.byte	0x50
 15710 135e 31000000 		.4byte	.LVL574-1
 15711 1362 50000000 		.4byte	.LVL578
 15712 1366 0100     		.2byte	0x1
 15713 1368 58       		.byte	0x58
 15714 1369 52000000 		.4byte	.LVL579
 15715 136d 56000000 		.4byte	.LVL580
 15716 1371 0100     		.2byte	0x1
 15717 1373 58       		.byte	0x58
 15718 1374 58000000 		.4byte	.LVL581
 15719 1378 5C000000 		.4byte	.LVL582
 15720 137c 0100     		.2byte	0x1
 15721 137e 58       		.byte	0x58
 15722 137f 00000000 		.4byte	0
 15723 1383 00000000 		.4byte	0
 15724              	.LLST153:
 15725 1387 84000000 		.4byte	.LVL586
 15726 138b 8B000000 		.4byte	.LVL587-1
 15727 138f 0100     		.2byte	0x1
 15728 1391 50       		.byte	0x50
 15729 1392 8B000000 		.4byte	.LVL587-1
 15730 1396 B2000000 		.4byte	.LVL591
 15731 139a 0100     		.2byte	0x1
 15732 139c 56       		.byte	0x56
 15733 139d 00000000 		.4byte	0
 15734 13a1 00000000 		.4byte	0
 15735              	.LLST154:
 15736 13a5 C0000000 		.4byte	.LVL593
 15737 13a9 C7000000 		.4byte	.LVL594-1
 15738 13ad 0100     		.2byte	0x1
 15739 13af 50       		.byte	0x50
 15740 13b0 C7000000 		.4byte	.LVL594-1
 15741 13b4 EE000000 		.4byte	.LVL598
 15742 13b8 0100     		.2byte	0x1
 15743 13ba 56       		.byte	0x56
 15744 13bb 00000000 		.4byte	0
 15745 13bf 00000000 		.4byte	0
 15746              	.LLST155:
 15747 13c3 FE000000 		.4byte	.LVL599
 15748 13c7 05010000 		.4byte	.LVL600-1
ARM GAS  C:\Users\user\AppData\Local\Temp\cc6TIdBD.s 			page 307


 15749 13cb 0200     		.2byte	0x2
 15750 13cd 91       		.byte	0x91
 15751 13ce 54       		.sleb128 -44
 15752 13cf 00000000 		.4byte	0
 15753 13d3 00000000 		.4byte	0
 15754              	.LLST156:
 15755 13d7 1A010000 		.4byte	.LVL603
 15756 13db 21010000 		.4byte	.LVL604-1
 15757 13df 0200     		.2byte	0x2
 15758 13e1 91       		.byte	0x91
 15759 13e2 55       		.sleb128 -43
 15760 13e3 00000000 		.4byte	0
 15761 13e7 00000000 		.4byte	0
 15762              	.LLST157:
 15763 13eb 00000000 		.4byte	.LVL608
 15764 13ef 0F000000 		.4byte	.LVL610-1
 15765 13f3 0100     		.2byte	0x1
 15766 13f5 50       		.byte	0x50
 15767 13f6 0F000000 		.4byte	.LVL610-1
 15768 13fa 12000000 		.4byte	.LFE155
 15769 13fe 0400     		.2byte	0x4
 15770 1400 F3       		.byte	0xf3
 15771 1401 01       		.uleb128 0x1
 15772 1402 50       		.byte	0x50
 15773 1403 9F       		.byte	0x9f
 15774 1404 00000000 		.4byte	0
 15775 1408 00000000 		.4byte	0
 15776              	.LLST158:
 15777 140c 00000000 		.4byte	.LVL608
 15778 1410 0C000000 		.4byte	.LVL609
 15779 1414 0100     		.2byte	0x1
 15780 1416 51       		.byte	0x51
 15781 1417 0C000000 		.4byte	.LVL609
 15782 141b 0F000000 		.4byte	.LVL610-1
 15783 141f 0100     		.2byte	0x1
 15784 1421 52       		.byte	0x52
 15785 1422 0F000000 		.4byte	.LVL610-1
 15786 1426 12000000 		.4byte	.LFE155
 15787 142a 0600     		.2byte	0x6
 15788 142c F3       		.byte	0xf3
 15789 142d 03       		.uleb128 0x3
 15790 142e F5       		.byte	0xf5
 15791 142f 01       		.uleb128 0x1
 15792 1430 25       		.uleb128 0x25
 15793 1431 9F       		.byte	0x9f
 15794 1432 00000000 		.4byte	0
 15795 1436 00000000 		.4byte	0
 15796              	.LLST159:
 15797 143a 00000000 		.4byte	.LVL611
 15798 143e 10000000 		.4byte	.LVL613
 15799 1442 0100     		.2byte	0x1
 15800 1444 50       		.byte	0x50
 15801 1445 10000000 		.4byte	.LVL613
 15802 1449 D6000000 		.4byte	.LVL635
 15803 144d 0100     		.2byte	0x1
 15804 144f 54       		.byte	0x54
 15805 1450 D6000000 		.4byte	.LVL635
ARM GAS  C:\Users\user\AppData\Local\Temp\cc6TIdBD.s 			page 308


 15806 1454 38010000 		.4byte	.LFE152
 15807 1458 0400     		.2byte	0x4
 15808 145a F3       		.byte	0xf3
 15809 145b 01       		.uleb128 0x1
 15810 145c 50       		.byte	0x50
 15811 145d 9F       		.byte	0x9f
 15812 145e 00000000 		.4byte	0
 15813 1462 00000000 		.4byte	0
 15814              	.LLST160:
 15815 1466 0A000000 		.4byte	.LVL612
 15816 146a 34010000 		.4byte	.LVL646
 15817 146e 0100     		.2byte	0x1
 15818 1470 56       		.byte	0x56
 15819 1471 00000000 		.4byte	0
 15820 1475 00000000 		.4byte	0
 15821              	.LLST161:
 15822 1479 CE000000 		.4byte	.LVL633
 15823 147d D3000000 		.4byte	.LVL634-1
 15824 1481 0100     		.2byte	0x1
 15825 1483 50       		.byte	0x50
 15826 1484 00000000 		.4byte	0
 15827 1488 00000000 		.4byte	0
 15828              	.LLST162:
 15829 148c 16000000 		.4byte	.LVL615
 15830 1490 1D000000 		.4byte	.LVL616-1
 15831 1494 0100     		.2byte	0x1
 15832 1496 50       		.byte	0x50
 15833 1497 1D000000 		.4byte	.LVL616-1
 15834 149b 44000000 		.4byte	.LVL620
 15835 149f 0100     		.2byte	0x1
 15836 14a1 55       		.byte	0x55
 15837 14a2 00000000 		.4byte	0
 15838 14a6 00000000 		.4byte	0
 15839              	.LLST163:
 15840 14aa 54000000 		.4byte	.LVL622
 15841 14ae 5B000000 		.4byte	.LVL623-1
 15842 14b2 0100     		.2byte	0x1
 15843 14b4 50       		.byte	0x50
 15844 14b5 5B000000 		.4byte	.LVL623-1
 15845 14b9 82000000 		.4byte	.LVL627
 15846 14bd 0100     		.2byte	0x1
 15847 14bf 55       		.byte	0x55
 15848 14c0 00000000 		.4byte	0
 15849 14c4 00000000 		.4byte	0
 15850              	.LLST164:
 15851 14c8 9A000000 		.4byte	.LVL629
 15852 14cc B0000000 		.4byte	.LVL630
 15853 14d0 0100     		.2byte	0x1
 15854 14d2 53       		.byte	0x53
 15855 14d3 00000000 		.4byte	0
 15856 14d7 00000000 		.4byte	0
 15857              	.LLST165:
 15858 14db D6000000 		.4byte	.LVL635
 15859 14df DD000000 		.4byte	.LVL636-1
 15860 14e3 0100     		.2byte	0x1
 15861 14e5 50       		.byte	0x50
 15862 14e6 DD000000 		.4byte	.LVL636-1
ARM GAS  C:\Users\user\AppData\Local\Temp\cc6TIdBD.s 			page 309


 15863 14ea 04010000 		.4byte	.LVL640
 15864 14ee 0100     		.2byte	0x1
 15865 14f0 54       		.byte	0x54
 15866 14f1 00000000 		.4byte	0
 15867 14f5 00000000 		.4byte	0
 15868              	.LLST166:
 15869 14f9 06010000 		.4byte	.LVL641
 15870 14fd 1C010000 		.4byte	.LVL642
 15871 1501 0100     		.2byte	0x1
 15872 1503 53       		.byte	0x53
 15873 1504 00000000 		.4byte	0
 15874 1508 00000000 		.4byte	0
 15875              	.LLST167:
 15876 150c 00000000 		.4byte	.LVL647
 15877 1510 14000000 		.4byte	.LVL649
 15878 1514 0100     		.2byte	0x1
 15879 1516 50       		.byte	0x50
 15880 1517 14000000 		.4byte	.LVL649
 15881 151b 2A000000 		.4byte	.LFE132
 15882 151f 0100     		.2byte	0x1
 15883 1521 54       		.byte	0x54
 15884 1522 00000000 		.4byte	0
 15885 1526 00000000 		.4byte	0
 15886              	.LLST168:
 15887 152a 00000000 		.4byte	.LVL647
 15888 152e 17000000 		.4byte	.LVL650-1
 15889 1532 0100     		.2byte	0x1
 15890 1534 51       		.byte	0x51
 15891 1535 17000000 		.4byte	.LVL650-1
 15892 1539 2A000000 		.4byte	.LFE132
 15893 153d 0400     		.2byte	0x4
 15894 153f F3       		.byte	0xf3
 15895 1540 01       		.uleb128 0x1
 15896 1541 51       		.byte	0x51
 15897 1542 9F       		.byte	0x9f
 15898 1543 00000000 		.4byte	0
 15899 1547 00000000 		.4byte	0
 15900              	.LLST169:
 15901 154b 00000000 		.4byte	.LVL647
 15902 154f 0C000000 		.4byte	.LVL648
 15903 1553 0100     		.2byte	0x1
 15904 1555 52       		.byte	0x52
 15905 1556 0C000000 		.4byte	.LVL648
 15906 155a 2A000000 		.4byte	.LFE132
 15907 155e 0100     		.2byte	0x1
 15908 1560 55       		.byte	0x55
 15909 1561 00000000 		.4byte	0
 15910 1565 00000000 		.4byte	0
 15911              	.LLST170:
 15912 1569 00000000 		.4byte	.LVL653
 15913 156d 11000000 		.4byte	.LVL655-1
 15914 1571 0100     		.2byte	0x1
 15915 1573 50       		.byte	0x50
 15916 1574 11000000 		.4byte	.LVL655-1
 15917 1578 3A000000 		.4byte	.LFE136
 15918 157c 0100     		.2byte	0x1
 15919 157e 54       		.byte	0x54
ARM GAS  C:\Users\user\AppData\Local\Temp\cc6TIdBD.s 			page 310


 15920 157f 00000000 		.4byte	0
 15921 1583 00000000 		.4byte	0
 15922              	.LLST171:
 15923 1587 00000000 		.4byte	.LVL653
 15924 158b 0E000000 		.4byte	.LVL654
 15925 158f 0100     		.2byte	0x1
 15926 1591 51       		.byte	0x51
 15927 1592 0E000000 		.4byte	.LVL654
 15928 1596 3A000000 		.4byte	.LFE136
 15929 159a 0100     		.2byte	0x1
 15930 159c 56       		.byte	0x56
 15931 159d 00000000 		.4byte	0
 15932 15a1 00000000 		.4byte	0
 15933              	.LLST172:
 15934 15a5 00000000 		.4byte	.LVL653
 15935 15a9 11000000 		.4byte	.LVL655-1
 15936 15ad 0100     		.2byte	0x1
 15937 15af 52       		.byte	0x52
 15938 15b0 11000000 		.4byte	.LVL655-1
 15939 15b4 3A000000 		.4byte	.LFE136
 15940 15b8 0600     		.2byte	0x6
 15941 15ba F3       		.byte	0xf3
 15942 15bb 03       		.uleb128 0x3
 15943 15bc F5       		.byte	0xf5
 15944 15bd 02       		.uleb128 0x2
 15945 15be 25       		.uleb128 0x25
 15946 15bf 9F       		.byte	0x9f
 15947 15c0 00000000 		.4byte	0
 15948 15c4 00000000 		.4byte	0
 15949              	.LLST173:
 15950 15c8 1A000000 		.4byte	.LVL656
 15951 15cc 24000000 		.4byte	.LVL657
 15952 15d0 0100     		.2byte	0x1
 15953 15d2 50       		.byte	0x50
 15954 15d3 24000000 		.4byte	.LVL657
 15955 15d7 27000000 		.4byte	.LVL658-1
 15956 15db 0100     		.2byte	0x1
 15957 15dd 51       		.byte	0x51
 15958 15de 00000000 		.4byte	0
 15959 15e2 00000000 		.4byte	0
 15960              	.LLST174:
 15961 15e6 00000000 		.4byte	.LVL660
 15962 15ea 15000000 		.4byte	.LVL661-1
 15963 15ee 0100     		.2byte	0x1
 15964 15f0 50       		.byte	0x50
 15965 15f1 15000000 		.4byte	.LVL661-1
 15966 15f5 18000000 		.4byte	.LVL662
 15967 15f9 0400     		.2byte	0x4
 15968 15fb F3       		.byte	0xf3
 15969 15fc 01       		.uleb128 0x1
 15970 15fd 50       		.byte	0x50
 15971 15fe 9F       		.byte	0x9f
 15972 15ff 18000000 		.4byte	.LVL662
 15973 1603 1B000000 		.4byte	.LVL663-1
 15974 1607 0100     		.2byte	0x1
 15975 1609 50       		.byte	0x50
 15976 160a 1B000000 		.4byte	.LVL663-1
ARM GAS  C:\Users\user\AppData\Local\Temp\cc6TIdBD.s 			page 311


 15977 160e 1E000000 		.4byte	.LVL664
 15978 1612 0400     		.2byte	0x4
 15979 1614 F3       		.byte	0xf3
 15980 1615 01       		.uleb128 0x1
 15981 1616 50       		.byte	0x50
 15982 1617 9F       		.byte	0x9f
 15983 1618 1E000000 		.4byte	.LVL664
 15984 161c 21000000 		.4byte	.LVL665-1
 15985 1620 0100     		.2byte	0x1
 15986 1622 50       		.byte	0x50
 15987 1623 21000000 		.4byte	.LVL665-1
 15988 1627 24000000 		.4byte	.LVL666
 15989 162b 0400     		.2byte	0x4
 15990 162d F3       		.byte	0xf3
 15991 162e 01       		.uleb128 0x1
 15992 162f 50       		.byte	0x50
 15993 1630 9F       		.byte	0x9f
 15994 1631 24000000 		.4byte	.LVL666
 15995 1635 27000000 		.4byte	.LVL667-1
 15996 1639 0100     		.2byte	0x1
 15997 163b 50       		.byte	0x50
 15998 163c 27000000 		.4byte	.LVL667-1
 15999 1640 30000000 		.4byte	.LFE157
 16000 1644 0400     		.2byte	0x4
 16001 1646 F3       		.byte	0xf3
 16002 1647 01       		.uleb128 0x1
 16003 1648 50       		.byte	0x50
 16004 1649 9F       		.byte	0x9f
 16005 164a 00000000 		.4byte	0
 16006 164e 00000000 		.4byte	0
 16007              	.LLST175:
 16008 1652 00000000 		.4byte	.LVL660
 16009 1656 15000000 		.4byte	.LVL661-1
 16010 165a 0100     		.2byte	0x1
 16011 165c 51       		.byte	0x51
 16012 165d 15000000 		.4byte	.LVL661-1
 16013 1661 18000000 		.4byte	.LVL662
 16014 1665 0600     		.2byte	0x6
 16015 1667 F3       		.byte	0xf3
 16016 1668 03       		.uleb128 0x3
 16017 1669 F5       		.byte	0xf5
 16018 166a 01       		.uleb128 0x1
 16019 166b 25       		.uleb128 0x25
 16020 166c 9F       		.byte	0x9f
 16021 166d 18000000 		.4byte	.LVL662
 16022 1671 1B000000 		.4byte	.LVL663-1
 16023 1675 0100     		.2byte	0x1
 16024 1677 51       		.byte	0x51
 16025 1678 1B000000 		.4byte	.LVL663-1
 16026 167c 1E000000 		.4byte	.LVL664
 16027 1680 0600     		.2byte	0x6
 16028 1682 F3       		.byte	0xf3
 16029 1683 03       		.uleb128 0x3
 16030 1684 F5       		.byte	0xf5
 16031 1685 01       		.uleb128 0x1
 16032 1686 25       		.uleb128 0x25
 16033 1687 9F       		.byte	0x9f
ARM GAS  C:\Users\user\AppData\Local\Temp\cc6TIdBD.s 			page 312


 16034 1688 1E000000 		.4byte	.LVL664
 16035 168c 21000000 		.4byte	.LVL665-1
 16036 1690 0100     		.2byte	0x1
 16037 1692 51       		.byte	0x51
 16038 1693 21000000 		.4byte	.LVL665-1
 16039 1697 24000000 		.4byte	.LVL666
 16040 169b 0600     		.2byte	0x6
 16041 169d F3       		.byte	0xf3
 16042 169e 03       		.uleb128 0x3
 16043 169f F5       		.byte	0xf5
 16044 16a0 01       		.uleb128 0x1
 16045 16a1 25       		.uleb128 0x25
 16046 16a2 9F       		.byte	0x9f
 16047 16a3 24000000 		.4byte	.LVL666
 16048 16a7 27000000 		.4byte	.LVL667-1
 16049 16ab 0100     		.2byte	0x1
 16050 16ad 51       		.byte	0x51
 16051 16ae 27000000 		.4byte	.LVL667-1
 16052 16b2 30000000 		.4byte	.LFE157
 16053 16b6 0600     		.2byte	0x6
 16054 16b8 F3       		.byte	0xf3
 16055 16b9 03       		.uleb128 0x3
 16056 16ba F5       		.byte	0xf5
 16057 16bb 01       		.uleb128 0x1
 16058 16bc 25       		.uleb128 0x25
 16059 16bd 9F       		.byte	0x9f
 16060 16be 00000000 		.4byte	0
 16061 16c2 00000000 		.4byte	0
 16062              	.LLST176:
 16063 16c6 00000000 		.4byte	.LVL660
 16064 16ca 15000000 		.4byte	.LVL661-1
 16065 16ce 0100     		.2byte	0x1
 16066 16d0 52       		.byte	0x52
 16067 16d1 15000000 		.4byte	.LVL661-1
 16068 16d5 18000000 		.4byte	.LVL662
 16069 16d9 0600     		.2byte	0x6
 16070 16db F3       		.byte	0xf3
 16071 16dc 03       		.uleb128 0x3
 16072 16dd F5       		.byte	0xf5
 16073 16de 02       		.uleb128 0x2
 16074 16df 25       		.uleb128 0x25
 16075 16e0 9F       		.byte	0x9f
 16076 16e1 18000000 		.4byte	.LVL662
 16077 16e5 1B000000 		.4byte	.LVL663-1
 16078 16e9 0100     		.2byte	0x1
 16079 16eb 52       		.byte	0x52
 16080 16ec 1B000000 		.4byte	.LVL663-1
 16081 16f0 1E000000 		.4byte	.LVL664
 16082 16f4 0600     		.2byte	0x6
 16083 16f6 F3       		.byte	0xf3
 16084 16f7 03       		.uleb128 0x3
 16085 16f8 F5       		.byte	0xf5
 16086 16f9 02       		.uleb128 0x2
 16087 16fa 25       		.uleb128 0x25
 16088 16fb 9F       		.byte	0x9f
 16089 16fc 1E000000 		.4byte	.LVL664
 16090 1700 21000000 		.4byte	.LVL665-1
ARM GAS  C:\Users\user\AppData\Local\Temp\cc6TIdBD.s 			page 313


 16091 1704 0100     		.2byte	0x1
 16092 1706 52       		.byte	0x52
 16093 1707 21000000 		.4byte	.LVL665-1
 16094 170b 24000000 		.4byte	.LVL666
 16095 170f 0600     		.2byte	0x6
 16096 1711 F3       		.byte	0xf3
 16097 1712 03       		.uleb128 0x3
 16098 1713 F5       		.byte	0xf5
 16099 1714 02       		.uleb128 0x2
 16100 1715 25       		.uleb128 0x25
 16101 1716 9F       		.byte	0x9f
 16102 1717 24000000 		.4byte	.LVL666
 16103 171b 27000000 		.4byte	.LVL667-1
 16104 171f 0100     		.2byte	0x1
 16105 1721 52       		.byte	0x52
 16106 1722 27000000 		.4byte	.LVL667-1
 16107 1726 30000000 		.4byte	.LFE157
 16108 172a 0600     		.2byte	0x6
 16109 172c F3       		.byte	0xf3
 16110 172d 03       		.uleb128 0x3
 16111 172e F5       		.byte	0xf5
 16112 172f 02       		.uleb128 0x2
 16113 1730 25       		.uleb128 0x25
 16114 1731 9F       		.byte	0x9f
 16115 1732 00000000 		.4byte	0
 16116 1736 00000000 		.4byte	0
 16117              	.LLST177:
 16118 173a 00000000 		.4byte	.LVL668
 16119 173e 0E000000 		.4byte	.LVL670
 16120 1742 0100     		.2byte	0x1
 16121 1744 50       		.byte	0x50
 16122 1745 0E000000 		.4byte	.LVL670
 16123 1749 48000000 		.4byte	.LFE133
 16124 174d 0100     		.2byte	0x1
 16125 174f 55       		.byte	0x55
 16126 1750 00000000 		.4byte	0
 16127 1754 00000000 		.4byte	0
 16128              	.LLST178:
 16129 1758 00000000 		.4byte	.LVL668
 16130 175c 11000000 		.4byte	.LVL671-1
 16131 1760 0100     		.2byte	0x1
 16132 1762 51       		.byte	0x51
 16133 1763 11000000 		.4byte	.LVL671-1
 16134 1767 48000000 		.4byte	.LFE133
 16135 176b 0100     		.2byte	0x1
 16136 176d 57       		.byte	0x57
 16137 176e 00000000 		.4byte	0
 16138 1772 00000000 		.4byte	0
 16139              	.LLST179:
 16140 1776 00000000 		.4byte	.LVL668
 16141 177a 0C000000 		.4byte	.LVL669
 16142 177e 0100     		.2byte	0x1
 16143 1780 52       		.byte	0x52
 16144 1781 0C000000 		.4byte	.LVL669
 16145 1785 48000000 		.4byte	.LFE133
 16146 1789 0100     		.2byte	0x1
 16147 178b 56       		.byte	0x56
ARM GAS  C:\Users\user\AppData\Local\Temp\cc6TIdBD.s 			page 314


 16148 178c 00000000 		.4byte	0
 16149 1790 00000000 		.4byte	0
 16150              	.LLST180:
 16151 1794 00000000 		.4byte	.LVL668
 16152 1798 11000000 		.4byte	.LVL671-1
 16153 179c 0100     		.2byte	0x1
 16154 179e 53       		.byte	0x53
 16155 179f 11000000 		.4byte	.LVL671-1
 16156 17a3 48000000 		.4byte	.LFE133
 16157 17a7 0100     		.2byte	0x1
 16158 17a9 54       		.byte	0x54
 16159 17aa 00000000 		.4byte	0
 16160 17ae 00000000 		.4byte	0
 16161              	.LLST181:
 16162 17b2 00000000 		.4byte	.LVL677
 16163 17b6 13000000 		.4byte	.LVL679-1
 16164 17ba 0100     		.2byte	0x1
 16165 17bc 50       		.byte	0x50
 16166 17bd 13000000 		.4byte	.LVL679-1
 16167 17c1 48000000 		.4byte	.LFE135
 16168 17c5 0100     		.2byte	0x1
 16169 17c7 55       		.byte	0x55
 16170 17c8 00000000 		.4byte	0
 16171 17cc 00000000 		.4byte	0
 16172              	.LLST182:
 16173 17d0 00000000 		.4byte	.LVL677
 16174 17d4 10000000 		.4byte	.LVL678
 16175 17d8 0100     		.2byte	0x1
 16176 17da 51       		.byte	0x51
 16177 17db 10000000 		.4byte	.LVL678
 16178 17df 1E000000 		.4byte	.LVL681
 16179 17e3 0100     		.2byte	0x1
 16180 17e5 56       		.byte	0x56
 16181 17e6 1E000000 		.4byte	.LVL681
 16182 17ea 48000000 		.4byte	.LFE135
 16183 17ee 0600     		.2byte	0x6
 16184 17f0 F3       		.byte	0xf3
 16185 17f1 03       		.uleb128 0x3
 16186 17f2 F5       		.byte	0xf5
 16187 17f3 01       		.uleb128 0x1
 16188 17f4 25       		.uleb128 0x25
 16189 17f5 9F       		.byte	0x9f
 16190 17f6 00000000 		.4byte	0
 16191 17fa 00000000 		.4byte	0
 16192              	.LLST183:
 16193 17fe 00000000 		.4byte	.LVL677
 16194 1802 13000000 		.4byte	.LVL679-1
 16195 1806 0100     		.2byte	0x1
 16196 1808 52       		.byte	0x52
 16197 1809 13000000 		.4byte	.LVL679-1
 16198 180d 48000000 		.4byte	.LFE135
 16199 1811 0600     		.2byte	0x6
 16200 1813 F3       		.byte	0xf3
 16201 1814 03       		.uleb128 0x3
 16202 1815 F5       		.byte	0xf5
 16203 1816 02       		.uleb128 0x2
 16204 1817 25       		.uleb128 0x25
ARM GAS  C:\Users\user\AppData\Local\Temp\cc6TIdBD.s 			page 315


 16205 1818 9F       		.byte	0x9f
 16206 1819 00000000 		.4byte	0
 16207 181d 00000000 		.4byte	0
 16208              	.LLST184:
 16209 1821 00000000 		.4byte	.LVL677
 16210 1825 13000000 		.4byte	.LVL679-1
 16211 1829 0100     		.2byte	0x1
 16212 182b 53       		.byte	0x53
 16213 182c 13000000 		.4byte	.LVL679-1
 16214 1830 48000000 		.4byte	.LFE135
 16215 1834 0100     		.2byte	0x1
 16216 1836 57       		.byte	0x57
 16217 1837 00000000 		.4byte	0
 16218 183b 00000000 		.4byte	0
 16219              	.LLST185:
 16220 183f 1E000000 		.4byte	.LVL681
 16221 1843 26000000 		.4byte	.LVL682
 16222 1847 0100     		.2byte	0x1
 16223 1849 50       		.byte	0x50
 16224 184a 26000000 		.4byte	.LVL682
 16225 184e 48000000 		.4byte	.LFE135
 16226 1852 0100     		.2byte	0x1
 16227 1854 56       		.byte	0x56
 16228 1855 00000000 		.4byte	0
 16229 1859 00000000 		.4byte	0
 16230              	.LLST186:
 16231 185d 00000000 		.4byte	.LVL686
 16232 1861 15000000 		.4byte	.LVL687-1
 16233 1865 0100     		.2byte	0x1
 16234 1867 50       		.byte	0x50
 16235 1868 15000000 		.4byte	.LVL687-1
 16236 186c 18000000 		.4byte	.LVL688
 16237 1870 0400     		.2byte	0x4
 16238 1872 F3       		.byte	0xf3
 16239 1873 01       		.uleb128 0x1
 16240 1874 50       		.byte	0x50
 16241 1875 9F       		.byte	0x9f
 16242 1876 18000000 		.4byte	.LVL688
 16243 187a 1B000000 		.4byte	.LVL689-1
 16244 187e 0100     		.2byte	0x1
 16245 1880 50       		.byte	0x50
 16246 1881 1B000000 		.4byte	.LVL689-1
 16247 1885 1E000000 		.4byte	.LVL690
 16248 1889 0400     		.2byte	0x4
 16249 188b F3       		.byte	0xf3
 16250 188c 01       		.uleb128 0x1
 16251 188d 50       		.byte	0x50
 16252 188e 9F       		.byte	0x9f
 16253 188f 1E000000 		.4byte	.LVL690
 16254 1893 21000000 		.4byte	.LVL691-1
 16255 1897 0100     		.2byte	0x1
 16256 1899 50       		.byte	0x50
 16257 189a 21000000 		.4byte	.LVL691-1
 16258 189e 24000000 		.4byte	.LVL692
 16259 18a2 0400     		.2byte	0x4
 16260 18a4 F3       		.byte	0xf3
 16261 18a5 01       		.uleb128 0x1
ARM GAS  C:\Users\user\AppData\Local\Temp\cc6TIdBD.s 			page 316


 16262 18a6 50       		.byte	0x50
 16263 18a7 9F       		.byte	0x9f
 16264 18a8 24000000 		.4byte	.LVL692
 16265 18ac 27000000 		.4byte	.LVL693-1
 16266 18b0 0100     		.2byte	0x1
 16267 18b2 50       		.byte	0x50
 16268 18b3 27000000 		.4byte	.LVL693-1
 16269 18b7 30000000 		.4byte	.LFE156
 16270 18bb 0400     		.2byte	0x4
 16271 18bd F3       		.byte	0xf3
 16272 18be 01       		.uleb128 0x1
 16273 18bf 50       		.byte	0x50
 16274 18c0 9F       		.byte	0x9f
 16275 18c1 00000000 		.4byte	0
 16276 18c5 00000000 		.4byte	0
 16277              	.LLST187:
 16278 18c9 00000000 		.4byte	.LVL686
 16279 18cd 15000000 		.4byte	.LVL687-1
 16280 18d1 0100     		.2byte	0x1
 16281 18d3 51       		.byte	0x51
 16282 18d4 15000000 		.4byte	.LVL687-1
 16283 18d8 18000000 		.4byte	.LVL688
 16284 18dc 0600     		.2byte	0x6
 16285 18de F3       		.byte	0xf3
 16286 18df 03       		.uleb128 0x3
 16287 18e0 F5       		.byte	0xf5
 16288 18e1 01       		.uleb128 0x1
 16289 18e2 25       		.uleb128 0x25
 16290 18e3 9F       		.byte	0x9f
 16291 18e4 18000000 		.4byte	.LVL688
 16292 18e8 1B000000 		.4byte	.LVL689-1
 16293 18ec 0100     		.2byte	0x1
 16294 18ee 51       		.byte	0x51
 16295 18ef 1B000000 		.4byte	.LVL689-1
 16296 18f3 1E000000 		.4byte	.LVL690
 16297 18f7 0600     		.2byte	0x6
 16298 18f9 F3       		.byte	0xf3
 16299 18fa 03       		.uleb128 0x3
 16300 18fb F5       		.byte	0xf5
 16301 18fc 01       		.uleb128 0x1
 16302 18fd 25       		.uleb128 0x25
 16303 18fe 9F       		.byte	0x9f
 16304 18ff 1E000000 		.4byte	.LVL690
 16305 1903 21000000 		.4byte	.LVL691-1
 16306 1907 0100     		.2byte	0x1
 16307 1909 51       		.byte	0x51
 16308 190a 21000000 		.4byte	.LVL691-1
 16309 190e 24000000 		.4byte	.LVL692
 16310 1912 0600     		.2byte	0x6
 16311 1914 F3       		.byte	0xf3
 16312 1915 03       		.uleb128 0x3
 16313 1916 F5       		.byte	0xf5
 16314 1917 01       		.uleb128 0x1
 16315 1918 25       		.uleb128 0x25
 16316 1919 9F       		.byte	0x9f
 16317 191a 24000000 		.4byte	.LVL692
 16318 191e 27000000 		.4byte	.LVL693-1
ARM GAS  C:\Users\user\AppData\Local\Temp\cc6TIdBD.s 			page 317


 16319 1922 0100     		.2byte	0x1
 16320 1924 51       		.byte	0x51
 16321 1925 27000000 		.4byte	.LVL693-1
 16322 1929 30000000 		.4byte	.LFE156
 16323 192d 0600     		.2byte	0x6
 16324 192f F3       		.byte	0xf3
 16325 1930 03       		.uleb128 0x3
 16326 1931 F5       		.byte	0xf5
 16327 1932 01       		.uleb128 0x1
 16328 1933 25       		.uleb128 0x25
 16329 1934 9F       		.byte	0x9f
 16330 1935 00000000 		.4byte	0
 16331 1939 00000000 		.4byte	0
 16332              	.LLST188:
 16333 193d 00000000 		.4byte	.LVL686
 16334 1941 15000000 		.4byte	.LVL687-1
 16335 1945 0100     		.2byte	0x1
 16336 1947 52       		.byte	0x52
 16337 1948 15000000 		.4byte	.LVL687-1
 16338 194c 18000000 		.4byte	.LVL688
 16339 1950 0600     		.2byte	0x6
 16340 1952 F3       		.byte	0xf3
 16341 1953 03       		.uleb128 0x3
 16342 1954 F5       		.byte	0xf5
 16343 1955 02       		.uleb128 0x2
 16344 1956 25       		.uleb128 0x25
 16345 1957 9F       		.byte	0x9f
 16346 1958 18000000 		.4byte	.LVL688
 16347 195c 1B000000 		.4byte	.LVL689-1
 16348 1960 0100     		.2byte	0x1
 16349 1962 52       		.byte	0x52
 16350 1963 1B000000 		.4byte	.LVL689-1
 16351 1967 1E000000 		.4byte	.LVL690
 16352 196b 0600     		.2byte	0x6
 16353 196d F3       		.byte	0xf3
 16354 196e 03       		.uleb128 0x3
 16355 196f F5       		.byte	0xf5
 16356 1970 02       		.uleb128 0x2
 16357 1971 25       		.uleb128 0x25
 16358 1972 9F       		.byte	0x9f
 16359 1973 1E000000 		.4byte	.LVL690
 16360 1977 21000000 		.4byte	.LVL691-1
 16361 197b 0100     		.2byte	0x1
 16362 197d 52       		.byte	0x52
 16363 197e 21000000 		.4byte	.LVL691-1
 16364 1982 24000000 		.4byte	.LVL692
 16365 1986 0600     		.2byte	0x6
 16366 1988 F3       		.byte	0xf3
 16367 1989 03       		.uleb128 0x3
 16368 198a F5       		.byte	0xf5
 16369 198b 02       		.uleb128 0x2
 16370 198c 25       		.uleb128 0x25
 16371 198d 9F       		.byte	0x9f
 16372 198e 24000000 		.4byte	.LVL692
 16373 1992 27000000 		.4byte	.LVL693-1
 16374 1996 0100     		.2byte	0x1
 16375 1998 52       		.byte	0x52
ARM GAS  C:\Users\user\AppData\Local\Temp\cc6TIdBD.s 			page 318


 16376 1999 27000000 		.4byte	.LVL693-1
 16377 199d 30000000 		.4byte	.LFE156
 16378 19a1 0600     		.2byte	0x6
 16379 19a3 F3       		.byte	0xf3
 16380 19a4 03       		.uleb128 0x3
 16381 19a5 F5       		.byte	0xf5
 16382 19a6 02       		.uleb128 0x2
 16383 19a7 25       		.uleb128 0x25
 16384 19a8 9F       		.byte	0x9f
 16385 19a9 00000000 		.4byte	0
 16386 19ad 00000000 		.4byte	0
 16387              	.LLST189:
 16388 19b1 00000000 		.4byte	.LVL686
 16389 19b5 15000000 		.4byte	.LVL687-1
 16390 19b9 0100     		.2byte	0x1
 16391 19bb 53       		.byte	0x53
 16392 19bc 15000000 		.4byte	.LVL687-1
 16393 19c0 18000000 		.4byte	.LVL688
 16394 19c4 0600     		.2byte	0x6
 16395 19c6 F3       		.byte	0xf3
 16396 19c7 03       		.uleb128 0x3
 16397 19c8 F5       		.byte	0xf5
 16398 19c9 03       		.uleb128 0x3
 16399 19ca 25       		.uleb128 0x25
 16400 19cb 9F       		.byte	0x9f
 16401 19cc 18000000 		.4byte	.LVL688
 16402 19d0 1B000000 		.4byte	.LVL689-1
 16403 19d4 0100     		.2byte	0x1
 16404 19d6 53       		.byte	0x53
 16405 19d7 1B000000 		.4byte	.LVL689-1
 16406 19db 1E000000 		.4byte	.LVL690
 16407 19df 0600     		.2byte	0x6
 16408 19e1 F3       		.byte	0xf3
 16409 19e2 03       		.uleb128 0x3
 16410 19e3 F5       		.byte	0xf5
 16411 19e4 03       		.uleb128 0x3
 16412 19e5 25       		.uleb128 0x25
 16413 19e6 9F       		.byte	0x9f
 16414 19e7 1E000000 		.4byte	.LVL690
 16415 19eb 21000000 		.4byte	.LVL691-1
 16416 19ef 0100     		.2byte	0x1
 16417 19f1 53       		.byte	0x53
 16418 19f2 21000000 		.4byte	.LVL691-1
 16419 19f6 24000000 		.4byte	.LVL692
 16420 19fa 0600     		.2byte	0x6
 16421 19fc F3       		.byte	0xf3
 16422 19fd 03       		.uleb128 0x3
 16423 19fe F5       		.byte	0xf5
 16424 19ff 03       		.uleb128 0x3
 16425 1a00 25       		.uleb128 0x25
 16426 1a01 9F       		.byte	0x9f
 16427 1a02 24000000 		.4byte	.LVL692
 16428 1a06 27000000 		.4byte	.LVL693-1
 16429 1a0a 0100     		.2byte	0x1
 16430 1a0c 53       		.byte	0x53
 16431 1a0d 27000000 		.4byte	.LVL693-1
 16432 1a11 30000000 		.4byte	.LFE156
ARM GAS  C:\Users\user\AppData\Local\Temp\cc6TIdBD.s 			page 319


 16433 1a15 0600     		.2byte	0x6
 16434 1a17 F3       		.byte	0xf3
 16435 1a18 03       		.uleb128 0x3
 16436 1a19 F5       		.byte	0xf5
 16437 1a1a 03       		.uleb128 0x3
 16438 1a1b 25       		.uleb128 0x25
 16439 1a1c 9F       		.byte	0x9f
 16440 1a1d 00000000 		.4byte	0
 16441 1a21 00000000 		.4byte	0
 16442              	.LLST190:
 16443 1a25 00000000 		.4byte	.LVL694
 16444 1a29 0F000000 		.4byte	.LVL696-1
 16445 1a2d 0100     		.2byte	0x1
 16446 1a2f 50       		.byte	0x50
 16447 1a30 0F000000 		.4byte	.LVL696-1
 16448 1a34 12000000 		.4byte	.LFE137
 16449 1a38 0400     		.2byte	0x4
 16450 1a3a F3       		.byte	0xf3
 16451 1a3b 01       		.uleb128 0x1
 16452 1a3c 50       		.byte	0x50
 16453 1a3d 9F       		.byte	0x9f
 16454 1a3e 00000000 		.4byte	0
 16455 1a42 00000000 		.4byte	0
 16456              	.LLST191:
 16457 1a46 00000000 		.4byte	.LVL694
 16458 1a4a 0C000000 		.4byte	.LVL695
 16459 1a4e 0100     		.2byte	0x1
 16460 1a50 51       		.byte	0x51
 16461 1a51 0C000000 		.4byte	.LVL695
 16462 1a55 0F000000 		.4byte	.LVL696-1
 16463 1a59 0100     		.2byte	0x1
 16464 1a5b 52       		.byte	0x52
 16465 1a5c 0F000000 		.4byte	.LVL696-1
 16466 1a60 12000000 		.4byte	.LFE137
 16467 1a64 0600     		.2byte	0x6
 16468 1a66 F3       		.byte	0xf3
 16469 1a67 03       		.uleb128 0x3
 16470 1a68 F5       		.byte	0xf5
 16471 1a69 01       		.uleb128 0x1
 16472 1a6a 25       		.uleb128 0x25
 16473 1a6b 9F       		.byte	0x9f
 16474 1a6c 00000000 		.4byte	0
 16475 1a70 00000000 		.4byte	0
 16476              	.LLST192:
 16477 1a74 00000000 		.4byte	.LVL697
 16478 1a78 15000000 		.4byte	.LVL698-1
 16479 1a7c 0100     		.2byte	0x1
 16480 1a7e 50       		.byte	0x50
 16481 1a7f 15000000 		.4byte	.LVL698-1
 16482 1a83 18000000 		.4byte	.LVL699
 16483 1a87 0400     		.2byte	0x4
 16484 1a89 F3       		.byte	0xf3
 16485 1a8a 01       		.uleb128 0x1
 16486 1a8b 50       		.byte	0x50
 16487 1a8c 9F       		.byte	0x9f
 16488 1a8d 18000000 		.4byte	.LVL699
 16489 1a91 1B000000 		.4byte	.LVL700-1
ARM GAS  C:\Users\user\AppData\Local\Temp\cc6TIdBD.s 			page 320


 16490 1a95 0100     		.2byte	0x1
 16491 1a97 50       		.byte	0x50
 16492 1a98 1B000000 		.4byte	.LVL700-1
 16493 1a9c 1E000000 		.4byte	.LVL701
 16494 1aa0 0400     		.2byte	0x4
 16495 1aa2 F3       		.byte	0xf3
 16496 1aa3 01       		.uleb128 0x1
 16497 1aa4 50       		.byte	0x50
 16498 1aa5 9F       		.byte	0x9f
 16499 1aa6 1E000000 		.4byte	.LVL701
 16500 1aaa 21000000 		.4byte	.LVL702-1
 16501 1aae 0100     		.2byte	0x1
 16502 1ab0 50       		.byte	0x50
 16503 1ab1 21000000 		.4byte	.LVL702-1
 16504 1ab5 24000000 		.4byte	.LVL703
 16505 1ab9 0400     		.2byte	0x4
 16506 1abb F3       		.byte	0xf3
 16507 1abc 01       		.uleb128 0x1
 16508 1abd 50       		.byte	0x50
 16509 1abe 9F       		.byte	0x9f
 16510 1abf 24000000 		.4byte	.LVL703
 16511 1ac3 27000000 		.4byte	.LVL704-1
 16512 1ac7 0100     		.2byte	0x1
 16513 1ac9 50       		.byte	0x50
 16514 1aca 27000000 		.4byte	.LVL704-1
 16515 1ace 30000000 		.4byte	.LFE158
 16516 1ad2 0400     		.2byte	0x4
 16517 1ad4 F3       		.byte	0xf3
 16518 1ad5 01       		.uleb128 0x1
 16519 1ad6 50       		.byte	0x50
 16520 1ad7 9F       		.byte	0x9f
 16521 1ad8 00000000 		.4byte	0
 16522 1adc 00000000 		.4byte	0
 16523              	.LLST193:
 16524 1ae0 00000000 		.4byte	.LVL697
 16525 1ae4 15000000 		.4byte	.LVL698-1
 16526 1ae8 0100     		.2byte	0x1
 16527 1aea 51       		.byte	0x51
 16528 1aeb 15000000 		.4byte	.LVL698-1
 16529 1aef 18000000 		.4byte	.LVL699
 16530 1af3 0600     		.2byte	0x6
 16531 1af5 F3       		.byte	0xf3
 16532 1af6 03       		.uleb128 0x3
 16533 1af7 F5       		.byte	0xf5
 16534 1af8 01       		.uleb128 0x1
 16535 1af9 25       		.uleb128 0x25
 16536 1afa 9F       		.byte	0x9f
 16537 1afb 18000000 		.4byte	.LVL699
 16538 1aff 1B000000 		.4byte	.LVL700-1
 16539 1b03 0100     		.2byte	0x1
 16540 1b05 51       		.byte	0x51
 16541 1b06 1B000000 		.4byte	.LVL700-1
 16542 1b0a 1E000000 		.4byte	.LVL701
 16543 1b0e 0600     		.2byte	0x6
 16544 1b10 F3       		.byte	0xf3
 16545 1b11 03       		.uleb128 0x3
 16546 1b12 F5       		.byte	0xf5
ARM GAS  C:\Users\user\AppData\Local\Temp\cc6TIdBD.s 			page 321


 16547 1b13 01       		.uleb128 0x1
 16548 1b14 25       		.uleb128 0x25
 16549 1b15 9F       		.byte	0x9f
 16550 1b16 1E000000 		.4byte	.LVL701
 16551 1b1a 21000000 		.4byte	.LVL702-1
 16552 1b1e 0100     		.2byte	0x1
 16553 1b20 51       		.byte	0x51
 16554 1b21 21000000 		.4byte	.LVL702-1
 16555 1b25 24000000 		.4byte	.LVL703
 16556 1b29 0600     		.2byte	0x6
 16557 1b2b F3       		.byte	0xf3
 16558 1b2c 03       		.uleb128 0x3
 16559 1b2d F5       		.byte	0xf5
 16560 1b2e 01       		.uleb128 0x1
 16561 1b2f 25       		.uleb128 0x25
 16562 1b30 9F       		.byte	0x9f
 16563 1b31 24000000 		.4byte	.LVL703
 16564 1b35 27000000 		.4byte	.LVL704-1
 16565 1b39 0100     		.2byte	0x1
 16566 1b3b 51       		.byte	0x51
 16567 1b3c 27000000 		.4byte	.LVL704-1
 16568 1b40 30000000 		.4byte	.LFE158
 16569 1b44 0600     		.2byte	0x6
 16570 1b46 F3       		.byte	0xf3
 16571 1b47 03       		.uleb128 0x3
 16572 1b48 F5       		.byte	0xf5
 16573 1b49 01       		.uleb128 0x1
 16574 1b4a 25       		.uleb128 0x25
 16575 1b4b 9F       		.byte	0x9f
 16576 1b4c 00000000 		.4byte	0
 16577 1b50 00000000 		.4byte	0
 16578              	.LLST194:
 16579 1b54 00000000 		.4byte	.LVL705
 16580 1b58 16000000 		.4byte	.LVL706
 16581 1b5c 0100     		.2byte	0x1
 16582 1b5e 50       		.byte	0x50
 16583 1b5f 16000000 		.4byte	.LVL706
 16584 1b63 42000000 		.4byte	.LFE134
 16585 1b67 0100     		.2byte	0x1
 16586 1b69 54       		.byte	0x54
 16587 1b6a 00000000 		.4byte	0
 16588 1b6e 00000000 		.4byte	0
 16589              	.LLST195:
 16590 1b72 38000000 		.4byte	.LVL710
 16591 1b76 3D000000 		.4byte	.LVL711-1
 16592 1b7a 0100     		.2byte	0x1
 16593 1b7c 50       		.byte	0x50
 16594 1b7d 00000000 		.4byte	0
 16595 1b81 00000000 		.4byte	0
 16596              	.LLST196:
 16597 1b85 00000000 		.4byte	.LVL712
 16598 1b89 15000000 		.4byte	.LVL713-1
 16599 1b8d 0100     		.2byte	0x1
 16600 1b8f 50       		.byte	0x50
 16601 1b90 15000000 		.4byte	.LVL713-1
 16602 1b94 18000000 		.4byte	.LVL714
 16603 1b98 0400     		.2byte	0x4
ARM GAS  C:\Users\user\AppData\Local\Temp\cc6TIdBD.s 			page 322


 16604 1b9a F3       		.byte	0xf3
 16605 1b9b 01       		.uleb128 0x1
 16606 1b9c 50       		.byte	0x50
 16607 1b9d 9F       		.byte	0x9f
 16608 1b9e 18000000 		.4byte	.LVL714
 16609 1ba2 1B000000 		.4byte	.LVL715-1
 16610 1ba6 0100     		.2byte	0x1
 16611 1ba8 50       		.byte	0x50
 16612 1ba9 1B000000 		.4byte	.LVL715-1
 16613 1bad 1E000000 		.4byte	.LVL716
 16614 1bb1 0400     		.2byte	0x4
 16615 1bb3 F3       		.byte	0xf3
 16616 1bb4 01       		.uleb128 0x1
 16617 1bb5 50       		.byte	0x50
 16618 1bb6 9F       		.byte	0x9f
 16619 1bb7 1E000000 		.4byte	.LVL716
 16620 1bbb 21000000 		.4byte	.LVL717-1
 16621 1bbf 0100     		.2byte	0x1
 16622 1bc1 50       		.byte	0x50
 16623 1bc2 21000000 		.4byte	.LVL717-1
 16624 1bc6 24000000 		.4byte	.LVL718
 16625 1bca 0400     		.2byte	0x4
 16626 1bcc F3       		.byte	0xf3
 16627 1bcd 01       		.uleb128 0x1
 16628 1bce 50       		.byte	0x50
 16629 1bcf 9F       		.byte	0x9f
 16630 1bd0 24000000 		.4byte	.LVL718
 16631 1bd4 27000000 		.4byte	.LVL719-1
 16632 1bd8 0100     		.2byte	0x1
 16633 1bda 50       		.byte	0x50
 16634 1bdb 27000000 		.4byte	.LVL719-1
 16635 1bdf 30000000 		.4byte	.LFE159
 16636 1be3 0400     		.2byte	0x4
 16637 1be5 F3       		.byte	0xf3
 16638 1be6 01       		.uleb128 0x1
 16639 1be7 50       		.byte	0x50
 16640 1be8 9F       		.byte	0x9f
 16641 1be9 00000000 		.4byte	0
 16642 1bed 00000000 		.4byte	0
 16643              	.LLST197:
 16644 1bf1 00000000 		.4byte	.LVL720
 16645 1bf5 0E000000 		.4byte	.LVL723
 16646 1bf9 0100     		.2byte	0x1
 16647 1bfb 50       		.byte	0x50
 16648 1bfc 0E000000 		.4byte	.LVL723
 16649 1c00 D8010000 		.4byte	.LVL781
 16650 1c04 0100     		.2byte	0x1
 16651 1c06 54       		.byte	0x54
 16652 1c07 D8010000 		.4byte	.LVL781
 16653 1c0b F4010000 		.4byte	.LFE160
 16654 1c0f 0400     		.2byte	0x4
 16655 1c11 F3       		.byte	0xf3
 16656 1c12 01       		.uleb128 0x1
 16657 1c13 50       		.byte	0x50
 16658 1c14 9F       		.byte	0x9f
 16659 1c15 00000000 		.4byte	0
 16660 1c19 00000000 		.4byte	0
ARM GAS  C:\Users\user\AppData\Local\Temp\cc6TIdBD.s 			page 323


 16661              	.LLST198:
 16662 1c1d 00000000 		.4byte	.LVL720
 16663 1c21 2B000000 		.4byte	.LVL724-1
 16664 1c25 0100     		.2byte	0x1
 16665 1c27 51       		.byte	0x51
 16666 1c28 2B000000 		.4byte	.LVL724-1
 16667 1c2c 4C000000 		.4byte	.LVL728
 16668 1c30 0100     		.2byte	0x1
 16669 1c32 56       		.byte	0x56
 16670 1c33 4C000000 		.4byte	.LVL728
 16671 1c37 4F000000 		.4byte	.LVL729-1
 16672 1c3b 0100     		.2byte	0x1
 16673 1c3d 51       		.byte	0x51
 16674 1c3e 4F000000 		.4byte	.LVL729-1
 16675 1c42 0A010000 		.4byte	.LVL752
 16676 1c46 0100     		.2byte	0x1
 16677 1c48 56       		.byte	0x56
 16678 1c49 0A010000 		.4byte	.LVL752
 16679 1c4d 11010000 		.4byte	.LVL753-1
 16680 1c51 0100     		.2byte	0x1
 16681 1c53 51       		.byte	0x51
 16682 1c54 11010000 		.4byte	.LVL753-1
 16683 1c58 3E010000 		.4byte	.LVL759
 16684 1c5c 0100     		.2byte	0x1
 16685 1c5e 56       		.byte	0x56
 16686 1c5f 3E010000 		.4byte	.LVL759
 16687 1c63 C8010000 		.4byte	.LVL777
 16688 1c67 0600     		.2byte	0x6
 16689 1c69 F3       		.byte	0xf3
 16690 1c6a 03       		.uleb128 0x3
 16691 1c6b F5       		.byte	0xf5
 16692 1c6c 01       		.uleb128 0x1
 16693 1c6d 25       		.uleb128 0x25
 16694 1c6e 9F       		.byte	0x9f
 16695 1c6f C8010000 		.4byte	.LVL777
 16696 1c73 D0010000 		.4byte	.LVL780
 16697 1c77 0100     		.2byte	0x1
 16698 1c79 51       		.byte	0x51
 16699 1c7a D0010000 		.4byte	.LVL780
 16700 1c7e D8010000 		.4byte	.LVL781
 16701 1c82 0100     		.2byte	0x1
 16702 1c84 56       		.byte	0x56
 16703 1c85 D8010000 		.4byte	.LVL781
 16704 1c89 F4010000 		.4byte	.LFE160
 16705 1c8d 0600     		.2byte	0x6
 16706 1c8f F3       		.byte	0xf3
 16707 1c90 03       		.uleb128 0x3
 16708 1c91 F5       		.byte	0xf5
 16709 1c92 01       		.uleb128 0x1
 16710 1c93 25       		.uleb128 0x25
 16711 1c94 9F       		.byte	0x9f
 16712 1c95 00000000 		.4byte	0
 16713 1c99 00000000 		.4byte	0
 16714              	.LLST199:
 16715 1c9d 08000000 		.4byte	.LVL721
 16716 1ca1 4A000000 		.4byte	.LVL727
 16717 1ca5 0600     		.2byte	0x6
ARM GAS  C:\Users\user\AppData\Local\Temp\cc6TIdBD.s 			page 324


 16718 1ca7 9E       		.byte	0x9e
 16719 1ca8 04       		.uleb128 0x4
 16720 1ca9 00000000 		.4byte	0
 16721 1cad 4A000000 		.4byte	.LVL727
 16722 1cb1 4C000000 		.4byte	.LVL728
 16723 1cb5 0100     		.2byte	0x1
 16724 1cb7 50       		.byte	0x50
 16725 1cb8 4C000000 		.4byte	.LVL728
 16726 1cbc 72000000 		.4byte	.LVL733
 16727 1cc0 0600     		.2byte	0x6
 16728 1cc2 9E       		.byte	0x9e
 16729 1cc3 04       		.uleb128 0x4
 16730 1cc4 00000000 		.4byte	0
 16731 1cc8 72000000 		.4byte	.LVL733
 16732 1ccc A2000000 		.4byte	.LVL738
 16733 1cd0 0100     		.2byte	0x1
 16734 1cd2 50       		.byte	0x50
 16735 1cd3 A2000000 		.4byte	.LVL738
 16736 1cd7 0A010000 		.4byte	.LVL752
 16737 1cdb 0100     		.2byte	0x1
 16738 1cdd 55       		.byte	0x55
 16739 1cde 0A010000 		.4byte	.LVL752
 16740 1ce2 3A010000 		.4byte	.LVL758
 16741 1ce6 0600     		.2byte	0x6
 16742 1ce8 9E       		.byte	0x9e
 16743 1ce9 04       		.uleb128 0x4
 16744 1cea 00000000 		.4byte	0
 16745 1cee 3A010000 		.4byte	.LVL758
 16746 1cf2 66010000 		.4byte	.LVL763
 16747 1cf6 0100     		.2byte	0x1
 16748 1cf8 50       		.byte	0x50
 16749 1cf9 66010000 		.4byte	.LVL763
 16750 1cfd C8010000 		.4byte	.LVL777
 16751 1d01 0100     		.2byte	0x1
 16752 1d03 55       		.byte	0x55
 16753 1d04 C8010000 		.4byte	.LVL777
 16754 1d08 CC010000 		.4byte	.LVL778
 16755 1d0c 0600     		.2byte	0x6
 16756 1d0e 9E       		.byte	0x9e
 16757 1d0f 04       		.uleb128 0x4
 16758 1d10 00000000 		.4byte	0
 16759 1d14 CC010000 		.4byte	.LVL778
 16760 1d18 CE010000 		.4byte	.LVL779
 16761 1d1c 0100     		.2byte	0x1
 16762 1d1e 50       		.byte	0x50
 16763 1d1f CE010000 		.4byte	.LVL779
 16764 1d23 D0010000 		.4byte	.LVL780
 16765 1d27 0600     		.2byte	0x6
 16766 1d29 9E       		.byte	0x9e
 16767 1d2a 04       		.uleb128 0x4
 16768 1d2b 00000000 		.4byte	0
 16769 1d2f D0010000 		.4byte	.LVL780
 16770 1d33 F4010000 		.4byte	.LFE160
 16771 1d37 0100     		.2byte	0x1
 16772 1d39 50       		.byte	0x50
 16773 1d3a 00000000 		.4byte	0
 16774 1d3e 00000000 		.4byte	0
ARM GAS  C:\Users\user\AppData\Local\Temp\cc6TIdBD.s 			page 325


 16775              	.LLST200:
 16776 1d42 0C000000 		.4byte	.LVL722
 16777 1d46 40010000 		.4byte	.LVL760
 16778 1d4a 0100     		.2byte	0x1
 16779 1d4c 57       		.byte	0x57
 16780 1d4d C8010000 		.4byte	.LVL777
 16781 1d51 D8010000 		.4byte	.LVL781
 16782 1d55 0100     		.2byte	0x1
 16783 1d57 57       		.byte	0x57
 16784 1d58 00000000 		.4byte	0
 16785 1d5c 00000000 		.4byte	0
 16786              	.LLST201:
 16787 1d60 C2000000 		.4byte	.LVL744
 16788 1d64 C4000000 		.4byte	.LVL745
 16789 1d68 0100     		.2byte	0x1
 16790 1d6a 50       		.byte	0x50
 16791 1d6b C4000000 		.4byte	.LVL745
 16792 1d6f 0A010000 		.4byte	.LVL752
 16793 1d73 0100     		.2byte	0x1
 16794 1d75 58       		.byte	0x58
 16795 1d76 86010000 		.4byte	.LVL769
 16796 1d7a 88010000 		.4byte	.LVL770
 16797 1d7e 0100     		.2byte	0x1
 16798 1d80 50       		.byte	0x50
 16799 1d81 88010000 		.4byte	.LVL770
 16800 1d85 C8010000 		.4byte	.LVL777
 16801 1d89 0100     		.2byte	0x1
 16802 1d8b 56       		.byte	0x56
 16803 1d8c 00000000 		.4byte	0
 16804 1d90 00000000 		.4byte	0
 16805              	.LLST202:
 16806 1d94 78000000 		.4byte	.LVL734
 16807 1d98 C2000000 		.4byte	.LVL744
 16808 1d9c 0100     		.2byte	0x1
 16809 1d9e 58       		.byte	0x58
 16810 1d9f 00000000 		.4byte	0
 16811 1da3 00000000 		.4byte	0
 16812              	.LLST203:
 16813 1da7 7C000000 		.4byte	.LVL735
 16814 1dab C2000000 		.4byte	.LVL744
 16815 1daf 0100     		.2byte	0x1
 16816 1db1 59       		.byte	0x59
 16817 1db2 00000000 		.4byte	0
 16818 1db6 00000000 		.4byte	0
 16819              	.LLST204:
 16820 1dba 82000000 		.4byte	.LVL736
 16821 1dbe B6000000 		.4byte	.LVL742
 16822 1dc2 0600     		.2byte	0x6
 16823 1dc4 F2       		.byte	0xf2
 16824 1dc5 83260000 		.4byte	.Ldebug_info0+9859
 16825 1dc9 00       		.sleb128 0
 16826 1dca 00000000 		.4byte	0
 16827 1dce 00000000 		.4byte	0
 16828              	.LLST205:
 16829 1dd2 82000000 		.4byte	.LVL736
 16830 1dd6 B6000000 		.4byte	.LVL742
 16831 1dda 0600     		.2byte	0x6
ARM GAS  C:\Users\user\AppData\Local\Temp\cc6TIdBD.s 			page 326


 16832 1ddc F2       		.byte	0xf2
 16833 1ddd 74260000 		.4byte	.Ldebug_info0+9844
 16834 1de1 00       		.sleb128 0
 16835 1de2 00000000 		.4byte	0
 16836 1de6 00000000 		.4byte	0
 16837              	.LLST206:
 16838 1dea 9E000000 		.4byte	.LVL737
 16839 1dee B6000000 		.4byte	.LVL742
 16840 1df2 0100     		.2byte	0x1
 16841 1df4 5A       		.byte	0x5a
 16842 1df5 00000000 		.4byte	0
 16843 1df9 00000000 		.4byte	0
 16844              	.LLST207:
 16845 1dfd 9E000000 		.4byte	.LVL737
 16846 1e01 B6000000 		.4byte	.LVL742
 16847 1e05 0100     		.2byte	0x1
 16848 1e07 5B       		.byte	0x5b
 16849 1e08 00000000 		.4byte	0
 16850 1e0c 00000000 		.4byte	0
 16851              	.LLST208:
 16852 1e10 3E010000 		.4byte	.LVL759
 16853 1e14 86010000 		.4byte	.LVL769
 16854 1e18 0100     		.2byte	0x1
 16855 1e1a 56       		.byte	0x56
 16856 1e1b 00000000 		.4byte	0
 16857 1e1f 00000000 		.4byte	0
 16858              	.LLST209:
 16859 1e23 40010000 		.4byte	.LVL760
 16860 1e27 86010000 		.4byte	.LVL769
 16861 1e2b 0100     		.2byte	0x1
 16862 1e2d 57       		.byte	0x57
 16863 1e2e 00000000 		.4byte	0
 16864 1e32 00000000 		.4byte	0
 16865              	.LLST210:
 16866 1e36 46010000 		.4byte	.LVL761
 16867 1e3a 7A010000 		.4byte	.LVL767
 16868 1e3e 0600     		.2byte	0x6
 16869 1e40 F2       		.byte	0xf2
 16870 1e41 11270000 		.4byte	.Ldebug_info0+10001
 16871 1e45 00       		.sleb128 0
 16872 1e46 00000000 		.4byte	0
 16873 1e4a 00000000 		.4byte	0
 16874              	.LLST211:
 16875 1e4e 46010000 		.4byte	.LVL761
 16876 1e52 7A010000 		.4byte	.LVL767
 16877 1e56 0600     		.2byte	0x6
 16878 1e58 F2       		.byte	0xf2
 16879 1e59 02270000 		.4byte	.Ldebug_info0+9986
 16880 1e5d 00       		.sleb128 0
 16881 1e5e 00000000 		.4byte	0
 16882 1e62 00000000 		.4byte	0
 16883              	.LLST212:
 16884 1e66 62010000 		.4byte	.LVL762
 16885 1e6a 7A010000 		.4byte	.LVL767
 16886 1e6e 0100     		.2byte	0x1
 16887 1e70 58       		.byte	0x58
 16888 1e71 00000000 		.4byte	0
ARM GAS  C:\Users\user\AppData\Local\Temp\cc6TIdBD.s 			page 327


 16889 1e75 00000000 		.4byte	0
 16890              	.LLST213:
 16891 1e79 62010000 		.4byte	.LVL762
 16892 1e7d 7A010000 		.4byte	.LVL767
 16893 1e81 0100     		.2byte	0x1
 16894 1e83 59       		.byte	0x59
 16895 1e84 00000000 		.4byte	0
 16896 1e88 00000000 		.4byte	0
 16897              	.LLST214:
 16898 1e8c 0E000000 		.4byte	.LVL782
 16899 1e90 12000000 		.4byte	.LVL783
 16900 1e94 0200     		.2byte	0x2
 16901 1e96 30       		.byte	0x30
 16902 1e97 9F       		.byte	0x9f
 16903 1e98 12000000 		.4byte	.LVL783
 16904 1e9c 36000000 		.4byte	.LVL784
 16905 1ea0 0100     		.2byte	0x1
 16906 1ea2 53       		.byte	0x53
 16907 1ea3 38000000 		.4byte	.LVL785
 16908 1ea7 3E000000 		.4byte	.LVL786
 16909 1eab 0100     		.2byte	0x1
 16910 1ead 53       		.byte	0x53
 16911 1eae 00000000 		.4byte	0
 16912 1eb2 00000000 		.4byte	0
 16913              	.LLST215:
 16914 1eb6 00000000 		.4byte	.LVL787
 16915 1eba 14000000 		.4byte	.LVL789
 16916 1ebe 0100     		.2byte	0x1
 16917 1ec0 50       		.byte	0x50
 16918 1ec1 14000000 		.4byte	.LVL789
 16919 1ec5 1C000000 		.4byte	.LFE162
 16920 1ec9 0400     		.2byte	0x4
 16921 1ecb F3       		.byte	0xf3
 16922 1ecc 01       		.uleb128 0x1
 16923 1ecd 50       		.byte	0x50
 16924 1ece 9F       		.byte	0x9f
 16925 1ecf 00000000 		.4byte	0
 16926 1ed3 00000000 		.4byte	0
 16927              	.LLST216:
 16928 1ed7 00000000 		.4byte	.LVL787
 16929 1edb 0A000000 		.4byte	.LVL788
 16930 1edf 0100     		.2byte	0x1
 16931 1ee1 51       		.byte	0x51
 16932 1ee2 0A000000 		.4byte	.LVL788
 16933 1ee6 1C000000 		.4byte	.LFE162
 16934 1eea 0100     		.2byte	0x1
 16935 1eec 51       		.byte	0x51
 16936 1eed 00000000 		.4byte	0
 16937 1ef1 00000000 		.4byte	0
 16938              	.LLST217:
 16939 1ef5 00000000 		.4byte	.LVL790
 16940 1ef9 26000000 		.4byte	.LVL793
 16941 1efd 0100     		.2byte	0x1
 16942 1eff 50       		.byte	0x50
 16943 1f00 26000000 		.4byte	.LVL793
 16944 1f04 DC040000 		.4byte	.LVL885
 16945 1f08 0400     		.2byte	0x4
ARM GAS  C:\Users\user\AppData\Local\Temp\cc6TIdBD.s 			page 328


 16946 1f0a F3       		.byte	0xf3
 16947 1f0b 01       		.uleb128 0x1
 16948 1f0c 50       		.byte	0x50
 16949 1f0d 9F       		.byte	0x9f
 16950 1f0e DC040000 		.4byte	.LVL885
 16951 1f12 EC040000 		.4byte	.LFE163
 16952 1f16 0100     		.2byte	0x1
 16953 1f18 50       		.byte	0x50
 16954 1f19 00000000 		.4byte	0
 16955 1f1d 00000000 		.4byte	0
 16956              	.LLST218:
 16957 1f21 00000000 		.4byte	.LVL790
 16958 1f25 24000000 		.4byte	.LVL792
 16959 1f29 0100     		.2byte	0x1
 16960 1f2b 51       		.byte	0x51
 16961 1f2c 24000000 		.4byte	.LVL792
 16962 1f30 34010000 		.4byte	.LVL817
 16963 1f34 0100     		.2byte	0x1
 16964 1f36 57       		.byte	0x57
 16965 1f37 34010000 		.4byte	.LVL817
 16966 1f3b 54010000 		.4byte	.LVL821
 16967 1f3f 0400     		.2byte	0x4
 16968 1f41 F3       		.byte	0xf3
 16969 1f42 01       		.uleb128 0x1
 16970 1f43 51       		.byte	0x51
 16971 1f44 9F       		.byte	0x9f
 16972 1f45 54010000 		.4byte	.LVL821
 16973 1f49 56010000 		.4byte	.LVL822
 16974 1f4d 0100     		.2byte	0x1
 16975 1f4f 57       		.byte	0x57
 16976 1f50 56010000 		.4byte	.LVL822
 16977 1f54 AE010000 		.4byte	.LVL830
 16978 1f58 0400     		.2byte	0x4
 16979 1f5a F3       		.byte	0xf3
 16980 1f5b 01       		.uleb128 0x1
 16981 1f5c 51       		.byte	0x51
 16982 1f5d 9F       		.byte	0x9f
 16983 1f5e AE010000 		.4byte	.LVL830
 16984 1f62 64020000 		.4byte	.LVL834
 16985 1f66 0100     		.2byte	0x1
 16986 1f68 57       		.byte	0x57
 16987 1f69 64020000 		.4byte	.LVL834
 16988 1f6d DC040000 		.4byte	.LVL885
 16989 1f71 0400     		.2byte	0x4
 16990 1f73 F3       		.byte	0xf3
 16991 1f74 01       		.uleb128 0x1
 16992 1f75 51       		.byte	0x51
 16993 1f76 9F       		.byte	0x9f
 16994 1f77 DC040000 		.4byte	.LVL885
 16995 1f7b EC040000 		.4byte	.LFE163
 16996 1f7f 0100     		.2byte	0x1
 16997 1f81 51       		.byte	0x51
 16998 1f82 00000000 		.4byte	0
 16999 1f86 00000000 		.4byte	0
 17000              	.LLST219:
 17001 1f8a 00000000 		.4byte	.LVL790
 17002 1f8e 29000000 		.4byte	.LVL794-1
ARM GAS  C:\Users\user\AppData\Local\Temp\cc6TIdBD.s 			page 329


 17003 1f92 0100     		.2byte	0x1
 17004 1f94 52       		.byte	0x52
 17005 1f95 29000000 		.4byte	.LVL794-1
 17006 1f99 DC040000 		.4byte	.LVL885
 17007 1f9d 0400     		.2byte	0x4
 17008 1f9f F3       		.byte	0xf3
 17009 1fa0 01       		.uleb128 0x1
 17010 1fa1 52       		.byte	0x52
 17011 1fa2 9F       		.byte	0x9f
 17012 1fa3 DC040000 		.4byte	.LVL885
 17013 1fa7 EC040000 		.4byte	.LFE163
 17014 1fab 0100     		.2byte	0x1
 17015 1fad 52       		.byte	0x52
 17016 1fae 00000000 		.4byte	0
 17017 1fb2 00000000 		.4byte	0
 17018              	.LLST220:
 17019 1fb6 20000000 		.4byte	.LVL791
 17020 1fba 26000000 		.4byte	.LVL793
 17021 1fbe 0D00     		.2byte	0xd
 17022 1fc0 70       		.byte	0x70
 17023 1fc1 00       		.sleb128 0
 17024 1fc2 0A       		.byte	0xa
 17025 1fc3 0C01     		.2byte	0x10c
 17026 1fc5 1E       		.byte	0x1e
 17027 1fc6 03       		.byte	0x3
 17028 1fc7 04000000 		.4byte	g_lp
 17029 1fcb 22       		.byte	0x22
 17030 1fcc 9F       		.byte	0x9f
 17031 1fcd 26000000 		.4byte	.LVL793
 17032 1fd1 9A010000 		.4byte	.LVL829
 17033 1fd5 0D00     		.2byte	0xd
 17034 1fd7 74       		.byte	0x74
 17035 1fd8 00       		.sleb128 0
 17036 1fd9 0A       		.byte	0xa
 17037 1fda 0C01     		.2byte	0x10c
 17038 1fdc 1E       		.byte	0x1e
 17039 1fdd 03       		.byte	0x3
 17040 1fde 04000000 		.4byte	g_lp
 17041 1fe2 22       		.byte	0x22
 17042 1fe3 9F       		.byte	0x9f
 17043 1fe4 9A010000 		.4byte	.LVL829
 17044 1fe8 AE010000 		.4byte	.LVL830
 17045 1fec 0D00     		.2byte	0xd
 17046 1fee 75       		.byte	0x75
 17047 1fef 00       		.sleb128 0
 17048 1ff0 0A       		.byte	0xa
 17049 1ff1 0C01     		.2byte	0x10c
 17050 1ff3 1E       		.byte	0x1e
 17051 1ff4 03       		.byte	0x3
 17052 1ff5 04000000 		.4byte	g_lp
 17053 1ff9 22       		.byte	0x22
 17054 1ffa 9F       		.byte	0x9f
 17055 1ffb AE010000 		.4byte	.LVL830
 17056 1fff D2040000 		.4byte	.LVL884
 17057 2003 0D00     		.2byte	0xd
 17058 2005 74       		.byte	0x74
 17059 2006 00       		.sleb128 0
ARM GAS  C:\Users\user\AppData\Local\Temp\cc6TIdBD.s 			page 330


 17060 2007 0A       		.byte	0xa
 17061 2008 0C01     		.2byte	0x10c
 17062 200a 1E       		.byte	0x1e
 17063 200b 03       		.byte	0x3
 17064 200c 04000000 		.4byte	g_lp
 17065 2010 22       		.byte	0x22
 17066 2011 9F       		.byte	0x9f
 17067 2012 00000000 		.4byte	0
 17068 2016 00000000 		.4byte	0
 17069              	.LLST221:
 17070 201a 2E000000 		.4byte	.LVL795
 17071 201e 34000000 		.4byte	.LVL796
 17072 2022 0100     		.2byte	0x1
 17073 2024 50       		.byte	0x50
 17074 2025 34000000 		.4byte	.LVL796
 17075 2029 4F000000 		.4byte	.LVL798-1
 17076 202d 0100     		.2byte	0x1
 17077 202f 52       		.byte	0x52
 17078 2030 00000000 		.4byte	0
 17079 2034 00000000 		.4byte	0
 17080              	.LLST222:
 17081 2038 46000000 		.4byte	.LVL797
 17082 203c 92000000 		.4byte	.LVL806
 17083 2040 0100     		.2byte	0x1
 17084 2042 58       		.byte	0x58
 17085 2043 00000000 		.4byte	0
 17086 2047 00000000 		.4byte	0
 17087              	.LLST223:
 17088 204b 76000000 		.4byte	.LVL802
 17089 204f 7E000000 		.4byte	.LVL804
 17090 2053 0100     		.2byte	0x1
 17091 2055 50       		.byte	0x50
 17092 2056 7E000000 		.4byte	.LVL804
 17093 205a 8A000000 		.4byte	.LVL805
 17094 205e 0300     		.2byte	0x3
 17095 2060 70       		.byte	0x70
 17096 2061 01       		.sleb128 1
 17097 2062 9F       		.byte	0x9f
 17098 2063 00000000 		.4byte	0
 17099 2067 00000000 		.4byte	0
 17100              	.LLST224:
 17101 206b DC000000 		.4byte	.LVL808
 17102 206f 02010000 		.4byte	.LVL809
 17103 2073 0100     		.2byte	0x1
 17104 2075 51       		.byte	0x51
 17105 2076 04010000 		.4byte	.LVL810
 17106 207a 06010000 		.4byte	.LVL811
 17107 207e 0100     		.2byte	0x1
 17108 2080 51       		.byte	0x51
 17109 2081 08010000 		.4byte	.LVL812
 17110 2085 1C010000 		.4byte	.LVL814
 17111 2089 0100     		.2byte	0x1
 17112 208b 51       		.byte	0x51
 17113 208c 00000000 		.4byte	0
 17114 2090 00000000 		.4byte	0
 17115              	.LLST225:
 17116 2094 1A010000 		.4byte	.LVL813
ARM GAS  C:\Users\user\AppData\Local\Temp\cc6TIdBD.s 			page 331


 17117 2098 AE010000 		.4byte	.LVL830
 17118 209c 0100     		.2byte	0x1
 17119 209e 58       		.byte	0x58
 17120 209f 00000000 		.4byte	0
 17121 20a3 00000000 		.4byte	0
 17122              	.LLST226:
 17123 20a7 34010000 		.4byte	.LVL817
 17124 20ab 50010000 		.4byte	.LVL819
 17125 20af 0100     		.2byte	0x1
 17126 20b1 57       		.byte	0x57
 17127 20b2 52010000 		.4byte	.LVL820
 17128 20b6 54010000 		.4byte	.LVL821
 17129 20ba 0100     		.2byte	0x1
 17130 20bc 57       		.byte	0x57
 17131 20bd 56010000 		.4byte	.LVL822
 17132 20c1 5C010000 		.4byte	.LVL823
 17133 20c5 0100     		.2byte	0x1
 17134 20c7 57       		.byte	0x57
 17135 20c8 5E010000 		.4byte	.LVL824
 17136 20cc 7C010000 		.4byte	.LVL826
 17137 20d0 0100     		.2byte	0x1
 17138 20d2 57       		.byte	0x57
 17139 20d3 7E010000 		.4byte	.LVL827
 17140 20d7 92010000 		.4byte	.LVL828
 17141 20db 0100     		.2byte	0x1
 17142 20dd 57       		.byte	0x57
 17143 20de 00000000 		.4byte	0
 17144 20e2 00000000 		.4byte	0
 17145              	.LLST227:
 17146 20e6 A8020000 		.4byte	.LVL838
 17147 20ea D8020000 		.4byte	.LVL843
 17148 20ee 0100     		.2byte	0x1
 17149 20f0 55       		.byte	0x55
 17150 20f1 00000000 		.4byte	0
 17151 20f5 00000000 		.4byte	0
 17152              	.LLST228:
 17153 20f9 EA020000 		.4byte	.LVL844
 17154 20fd 34030000 		.4byte	.LVL849
 17155 2101 0100     		.2byte	0x1
 17156 2103 55       		.byte	0x55
 17157 2104 00000000 		.4byte	0
 17158 2108 00000000 		.4byte	0
 17159              	.LLST229:
 17160 210c 8E030000 		.4byte	.LVL855
 17161 2110 BE030000 		.4byte	.LVL860
 17162 2114 0100     		.2byte	0x1
 17163 2116 55       		.byte	0x55
 17164 2117 00000000 		.4byte	0
 17165 211b 00000000 		.4byte	0
 17166              	.LLST230:
 17167 211f D0030000 		.4byte	.LVL861
 17168 2123 00040000 		.4byte	.LVL866
 17169 2127 0100     		.2byte	0x1
 17170 2129 55       		.byte	0x55
 17171 212a 00000000 		.4byte	0
 17172 212e 00000000 		.4byte	0
 17173              	.LLST231:
ARM GAS  C:\Users\user\AppData\Local\Temp\cc6TIdBD.s 			page 332


 17174 2132 56040000 		.4byte	.LVL872
 17175 2136 86040000 		.4byte	.LVL877
 17176 213a 0100     		.2byte	0x1
 17177 213c 55       		.byte	0x55
 17178 213d 00000000 		.4byte	0
 17179 2141 00000000 		.4byte	0
 17180              	.LLST232:
 17181 2145 98040000 		.4byte	.LVL878
 17182 2149 C8040000 		.4byte	.LVL883
 17183 214d 0100     		.2byte	0x1
 17184 214f 55       		.byte	0x55
 17185 2150 00000000 		.4byte	0
 17186 2154 00000000 		.4byte	0
 17187              	.LLST233:
 17188 2158 00000000 		.4byte	.LVL886
 17189 215c 06000000 		.4byte	.LVL887
 17190 2160 0100     		.2byte	0x1
 17191 2162 50       		.byte	0x50
 17192 2163 06000000 		.4byte	.LVL887
 17193 2167 10000000 		.4byte	.LFE164
 17194 216b 0100     		.2byte	0x1
 17195 216d 50       		.byte	0x50
 17196 216e 00000000 		.4byte	0
 17197 2172 00000000 		.4byte	0
 17198              	.LLST234:
 17199 2176 00000000 		.4byte	.LVL888
 17200 217a 5F000000 		.4byte	.LVL893-1
 17201 217e 0100     		.2byte	0x1
 17202 2180 50       		.byte	0x50
 17203 2181 5F000000 		.4byte	.LVL893-1
 17204 2185 7C000000 		.4byte	.LFE166
 17205 2189 0600     		.2byte	0x6
 17206 218b F3       		.byte	0xf3
 17207 218c 03       		.uleb128 0x3
 17208 218d F5       		.byte	0xf5
 17209 218e 00       		.uleb128 0
 17210 218f 25       		.uleb128 0x25
 17211 2190 9F       		.byte	0x9f
 17212 2191 00000000 		.4byte	0
 17213 2195 00000000 		.4byte	0
 17214              	.LLST235:
 17215 2199 02000000 		.4byte	.LVL889
 17216 219d 06000000 		.4byte	.LVL890
 17217 21a1 0200     		.2byte	0x2
 17218 21a3 30       		.byte	0x30
 17219 21a4 9F       		.byte	0x9f
 17220 21a5 06000000 		.4byte	.LVL890
 17221 21a9 4A000000 		.4byte	.LVL891
 17222 21ad 0100     		.2byte	0x1
 17223 21af 51       		.byte	0x51
 17224 21b0 4C000000 		.4byte	.LVL892
 17225 21b4 5F000000 		.4byte	.LVL893-1
 17226 21b8 0100     		.2byte	0x1
 17227 21ba 51       		.byte	0x51
 17228 21bb 00000000 		.4byte	0
 17229 21bf 00000000 		.4byte	0
 17230              	.LLST236:
ARM GAS  C:\Users\user\AppData\Local\Temp\cc6TIdBD.s 			page 333


 17231 21c3 06000000 		.4byte	.LVL890
 17232 21c7 4A000000 		.4byte	.LVL891
 17233 21cb 0D00     		.2byte	0xd
 17234 21cd 71       		.byte	0x71
 17235 21ce 00       		.sleb128 0
 17236 21cf 0A       		.byte	0xa
 17237 21d0 0C01     		.2byte	0x10c
 17238 21d2 1E       		.byte	0x1e
 17239 21d3 03       		.byte	0x3
 17240 21d4 04000000 		.4byte	g_lp
 17241 21d8 22       		.byte	0x22
 17242 21d9 9F       		.byte	0x9f
 17243 21da 4A000000 		.4byte	.LVL891
 17244 21de 4C000000 		.4byte	.LVL892
 17245 21e2 0D00     		.2byte	0xd
 17246 21e4 71       		.byte	0x71
 17247 21e5 7F       		.sleb128 -1
 17248 21e6 0A       		.byte	0xa
 17249 21e7 0C01     		.2byte	0x10c
 17250 21e9 1E       		.byte	0x1e
 17251 21ea 03       		.byte	0x3
 17252 21eb 04000000 		.4byte	g_lp
 17253 21ef 22       		.byte	0x22
 17254 21f0 9F       		.byte	0x9f
 17255 21f1 00000000 		.4byte	0
 17256 21f5 00000000 		.4byte	0
 17257              	.LLST237:
 17258 21f9 00000000 		.4byte	.LVL896
 17259 21fd 0B000000 		.4byte	.LVL898-1
 17260 2201 0100     		.2byte	0x1
 17261 2203 50       		.byte	0x50
 17262 2204 0B000000 		.4byte	.LVL898-1
 17263 2208 10000000 		.4byte	.LVL899
 17264 220c 0100     		.2byte	0x1
 17265 220e 55       		.byte	0x55
 17266 220f 10000000 		.4byte	.LVL899
 17267 2213 48000000 		.4byte	.LFE169
 17268 2217 0600     		.2byte	0x6
 17269 2219 F3       		.byte	0xf3
 17270 221a 03       		.uleb128 0x3
 17271 221b F5       		.byte	0xf5
 17272 221c 00       		.uleb128 0
 17273 221d 25       		.uleb128 0x25
 17274 221e 9F       		.byte	0x9f
 17275 221f 00000000 		.4byte	0
 17276 2223 00000000 		.4byte	0
 17277              	.LLST238:
 17278 2227 00000000 		.4byte	.LVL896
 17279 222b 08000000 		.4byte	.LVL897
 17280 222f 0100     		.2byte	0x1
 17281 2231 51       		.byte	0x51
 17282 2232 08000000 		.4byte	.LVL897
 17283 2236 3C000000 		.4byte	.LVL902
 17284 223a 0100     		.2byte	0x1
 17285 223c 54       		.byte	0x54
 17286 223d 3C000000 		.4byte	.LVL902
 17287 2241 48000000 		.4byte	.LFE169
ARM GAS  C:\Users\user\AppData\Local\Temp\cc6TIdBD.s 			page 334


 17288 2245 0600     		.2byte	0x6
 17289 2247 F3       		.byte	0xf3
 17290 2248 03       		.uleb128 0x3
 17291 2249 F5       		.byte	0xf5
 17292 224a 01       		.uleb128 0x1
 17293 224b 25       		.uleb128 0x25
 17294 224c 9F       		.byte	0x9f
 17295 224d 00000000 		.4byte	0
 17296 2251 00000000 		.4byte	0
 17297              	.LLST239:
 17298 2255 34000000 		.4byte	.LVL908
 17299 2259 3C000000 		.4byte	.LVL909
 17300 225d 0100     		.2byte	0x1
 17301 225f 50       		.byte	0x50
 17302 2260 3C000000 		.4byte	.LVL909
 17303 2264 72000000 		.4byte	.LVL920
 17304 2268 0100     		.2byte	0x1
 17305 226a 56       		.byte	0x56
 17306 226b 00000000 		.4byte	0
 17307 226f 00000000 		.4byte	0
 17308              	.LLST240:
 17309 2273 58000000 		.4byte	.LVL913
 17310 2277 5A000000 		.4byte	.LVL914
 17311 227b 0100     		.2byte	0x1
 17312 227d 50       		.byte	0x50
 17313 227e 5A000000 		.4byte	.LVL914
 17314 2282 74010000 		.4byte	.LVL946
 17315 2286 0100     		.2byte	0x1
 17316 2288 55       		.byte	0x55
 17317 2289 00000000 		.4byte	0
 17318 228d 00000000 		.4byte	0
 17319              	.LLST241:
 17320 2291 66000000 		.4byte	.LVL917
 17321 2295 6C000000 		.4byte	.LVL918
 17322 2299 0100     		.2byte	0x1
 17323 229b 50       		.byte	0x50
 17324 229c 6C000000 		.4byte	.LVL918
 17325 22a0 74010000 		.4byte	.LVL946
 17326 22a4 0100     		.2byte	0x1
 17327 22a6 57       		.byte	0x57
 17328 22a7 00000000 		.4byte	0
 17329 22ab 00000000 		.4byte	0
 17330              	.LLST242:
 17331 22af 88000000 		.4byte	.LVL923
 17332 22b3 8C000000 		.4byte	.LVL924
 17333 22b7 0100     		.2byte	0x1
 17334 22b9 50       		.byte	0x50
 17335 22ba 8C000000 		.4byte	.LVL924
 17336 22be 74010000 		.4byte	.LVL946
 17337 22c2 0100     		.2byte	0x1
 17338 22c4 56       		.byte	0x56
 17339 22c5 00000000 		.4byte	0
 17340 22c9 00000000 		.4byte	0
 17341              	.LLST243:
 17342 22cd 88000000 		.4byte	.LVL923
 17343 22d1 74010000 		.4byte	.LVL946
 17344 22d5 0600     		.2byte	0x6
ARM GAS  C:\Users\user\AppData\Local\Temp\cc6TIdBD.s 			page 335


 17345 22d7 03       		.byte	0x3
 17346 22d8 04000000 		.4byte	g_lp
 17347 22dc 9F       		.byte	0x9f
 17348 22dd 00000000 		.4byte	0
 17349 22e1 00000000 		.4byte	0
 17350              	.LLST244:
 17351 22e5 88000000 		.4byte	.LVL923
 17352 22e9 74010000 		.4byte	.LVL946
 17353 22ed 0600     		.2byte	0x6
 17354 22ef 03       		.byte	0x3
 17355 22f0 10010000 		.4byte	g_lp+268
 17356 22f4 9F       		.byte	0x9f
 17357 22f5 00000000 		.4byte	0
 17358 22f9 00000000 		.4byte	0
 17359              	.LLST245:
 17360 22fd 88000000 		.4byte	.LVL923
 17361 2301 D4000000 		.4byte	.LVL929
 17362 2305 0600     		.2byte	0x6
 17363 2307 9E       		.byte	0x9e
 17364 2308 04       		.uleb128 0x4
 17365 2309 00000000 		.4byte	0
 17366 230d D4000000 		.4byte	.LVL929
 17367 2311 E7000000 		.4byte	.LVL930-1
 17368 2315 0100     		.2byte	0x1
 17369 2317 50       		.byte	0x50
 17370 2318 E7000000 		.4byte	.LVL930-1
 17371 231c F2000000 		.4byte	.LVL933
 17372 2320 0100     		.2byte	0x1
 17373 2322 54       		.byte	0x54
 17374 2323 F2000000 		.4byte	.LVL933
 17375 2327 FB000000 		.4byte	.LVL934-1
 17376 232b 0100     		.2byte	0x1
 17377 232d 50       		.byte	0x50
 17378 232e FB000000 		.4byte	.LVL934-1
 17379 2332 08010000 		.4byte	.LVL937
 17380 2336 0100     		.2byte	0x1
 17381 2338 54       		.byte	0x54
 17382 2339 08010000 		.4byte	.LVL937
 17383 233d 1E010000 		.4byte	.LVL939
 17384 2341 0600     		.2byte	0x6
 17385 2343 9E       		.byte	0x9e
 17386 2344 04       		.uleb128 0x4
 17387 2345 00000000 		.4byte	0
 17388 2349 1E010000 		.4byte	.LVL939
 17389 234d 21010000 		.4byte	.LVL940-1
 17390 2351 0100     		.2byte	0x1
 17391 2353 50       		.byte	0x50
 17392 2354 21010000 		.4byte	.LVL940-1
 17393 2358 2A010000 		.4byte	.LVL942
 17394 235c 0100     		.2byte	0x1
 17395 235e 54       		.byte	0x54
 17396 235f 2A010000 		.4byte	.LVL942
 17397 2363 30010000 		.4byte	.LVL944
 17398 2367 0600     		.2byte	0x6
 17399 2369 9E       		.byte	0x9e
 17400 236a 04       		.uleb128 0x4
 17401 236b 00000000 		.4byte	0
ARM GAS  C:\Users\user\AppData\Local\Temp\cc6TIdBD.s 			page 336


 17402 236f 30010000 		.4byte	.LVL944
 17403 2373 74010000 		.4byte	.LVL946
 17404 2377 0100     		.2byte	0x1
 17405 2379 54       		.byte	0x54
 17406 237a 00000000 		.4byte	0
 17407 237e 00000000 		.4byte	0
 17408              	.LLST246:
 17409 2382 8C000000 		.4byte	.LVL924
 17410 2386 B4000000 		.4byte	.LVL925
 17411 238a 0100     		.2byte	0x1
 17412 238c 50       		.byte	0x50
 17413 238d B4000000 		.4byte	.LVL925
 17414 2391 B7000000 		.4byte	.LVL926-1
 17415 2395 0500     		.2byte	0x5
 17416 2397 03       		.byte	0x3
 17417 2398 AC010000 		.4byte	g_lp+424
 17418 239c B8000000 		.4byte	.LVL926
 17419 23a0 CE000000 		.4byte	.LVL927
 17420 23a4 0100     		.2byte	0x1
 17421 23a6 50       		.byte	0x50
 17422 23a7 08010000 		.4byte	.LVL937
 17423 23ab 1B010000 		.4byte	.LVL938-1
 17424 23af 0100     		.2byte	0x1
 17425 23b1 50       		.byte	0x50
 17426 23b2 2A010000 		.4byte	.LVL942
 17427 23b6 2D010000 		.4byte	.LVL943-1
 17428 23ba 0100     		.2byte	0x1
 17429 23bc 50       		.byte	0x50
 17430 23bd 00000000 		.4byte	0
 17431 23c1 00000000 		.4byte	0
 17432              	.LLST247:
 17433 23c5 34010000 		.4byte	.LVL945
 17434 23c9 73010000 		.4byte	.LVL946-1
 17435 23cd 0100     		.2byte	0x1
 17436 23cf 50       		.byte	0x50
 17437 23d0 00000000 		.4byte	0
 17438 23d4 00000000 		.4byte	0
 17439              		.section	.debug_aranges,"",%progbits
 17440 0000 6C010000 		.4byte	0x16c
 17441 0004 0200     		.2byte	0x2
 17442 0006 00000000 		.4byte	.Ldebug_info0
 17443 000a 04       		.byte	0x4
 17444 000b 00       		.byte	0
 17445 000c 0000     		.2byte	0
 17446 000e 0000     		.2byte	0
 17447 0010 00000000 		.4byte	.LFB119
 17448 0014 26000000 		.4byte	.LFE119-.LFB119
 17449 0018 00000000 		.4byte	.LFB120
 17450 001c 0E000000 		.4byte	.LFE120-.LFB120
 17451 0020 00000000 		.4byte	.LFB121
 17452 0024 0E000000 		.4byte	.LFE121-.LFB121
 17453 0028 00000000 		.4byte	.LFB131
 17454 002c CC000000 		.4byte	.LFE131-.LFB131
 17455 0030 00000000 		.4byte	.LFB138
 17456 0034 3C010000 		.4byte	.LFE138-.LFB138
 17457 0038 00000000 		.4byte	.LFB142
 17458 003c 24010000 		.4byte	.LFE142-.LFB142
ARM GAS  C:\Users\user\AppData\Local\Temp\cc6TIdBD.s 			page 337


 17459 0040 00000000 		.4byte	.LFB139
 17460 0044 94010000 		.4byte	.LFE139-.LFB139
 17461 0048 00000000 		.4byte	.LFB141
 17462 004c 38010000 		.4byte	.LFE141-.LFB141
 17463 0050 00000000 		.4byte	.LFB143
 17464 0054 12000000 		.4byte	.LFE143-.LFB143
 17465 0058 00000000 		.4byte	.LFB140
 17466 005c 38010000 		.4byte	.LFE140-.LFB140
 17467 0060 00000000 		.4byte	.LFB144
 17468 0064 50010000 		.4byte	.LFE144-.LFB144
 17469 0068 00000000 		.4byte	.LFB148
 17470 006c 30010000 		.4byte	.LFE148-.LFB148
 17471 0070 00000000 		.4byte	.LFB145
 17472 0074 A8010000 		.4byte	.LFE145-.LFB145
 17473 0078 00000000 		.4byte	.LFB147
 17474 007c 44010000 		.4byte	.LFE147-.LFB147
 17475 0080 00000000 		.4byte	.LFB149
 17476 0084 12000000 		.4byte	.LFE149-.LFB149
 17477 0088 00000000 		.4byte	.LFB146
 17478 008c 44010000 		.4byte	.LFE146-.LFB146
 17479 0090 00000000 		.4byte	.LFB150
 17480 0094 44010000 		.4byte	.LFE150-.LFB150
 17481 0098 00000000 		.4byte	.LFB154
 17482 009c 2C010000 		.4byte	.LFE154-.LFB154
 17483 00a0 00000000 		.4byte	.LFB151
 17484 00a4 94010000 		.4byte	.LFE151-.LFB151
 17485 00a8 00000000 		.4byte	.LFB153
 17486 00ac 40010000 		.4byte	.LFE153-.LFB153
 17487 00b0 00000000 		.4byte	.LFB155
 17488 00b4 12000000 		.4byte	.LFE155-.LFB155
 17489 00b8 00000000 		.4byte	.LFB152
 17490 00bc 38010000 		.4byte	.LFE152-.LFB152
 17491 00c0 00000000 		.4byte	.LFB132
 17492 00c4 2A000000 		.4byte	.LFE132-.LFB132
 17493 00c8 00000000 		.4byte	.LFB136
 17494 00cc 3A000000 		.4byte	.LFE136-.LFB136
 17495 00d0 00000000 		.4byte	.LFB157
 17496 00d4 30000000 		.4byte	.LFE157-.LFB157
 17497 00d8 00000000 		.4byte	.LFB133
 17498 00dc 48000000 		.4byte	.LFE133-.LFB133
 17499 00e0 00000000 		.4byte	.LFB135
 17500 00e4 48000000 		.4byte	.LFE135-.LFB135
 17501 00e8 00000000 		.4byte	.LFB156
 17502 00ec 30000000 		.4byte	.LFE156-.LFB156
 17503 00f0 00000000 		.4byte	.LFB137
 17504 00f4 12000000 		.4byte	.LFE137-.LFB137
 17505 00f8 00000000 		.4byte	.LFB158
 17506 00fc 30000000 		.4byte	.LFE158-.LFB158
 17507 0100 00000000 		.4byte	.LFB134
 17508 0104 42000000 		.4byte	.LFE134-.LFB134
 17509 0108 00000000 		.4byte	.LFB159
 17510 010c 30000000 		.4byte	.LFE159-.LFB159
 17511 0110 00000000 		.4byte	.LFB160
 17512 0114 F4010000 		.4byte	.LFE160-.LFB160
 17513 0118 00000000 		.4byte	.LFB161
 17514 011c 64000000 		.4byte	.LFE161-.LFB161
 17515 0120 00000000 		.4byte	.LFB162
ARM GAS  C:\Users\user\AppData\Local\Temp\cc6TIdBD.s 			page 338


 17516 0124 1C000000 		.4byte	.LFE162-.LFB162
 17517 0128 00000000 		.4byte	.LFB163
 17518 012c EC040000 		.4byte	.LFE163-.LFB163
 17519 0130 00000000 		.4byte	.LFB164
 17520 0134 10000000 		.4byte	.LFE164-.LFB164
 17521 0138 00000000 		.4byte	.LFB165
 17522 013c 0C000000 		.4byte	.LFE165-.LFB165
 17523 0140 00000000 		.4byte	.LFB166
 17524 0144 7C000000 		.4byte	.LFE166-.LFB166
 17525 0148 00000000 		.4byte	.LFB167
 17526 014c 14000000 		.4byte	.LFE167-.LFB167
 17527 0150 00000000 		.4byte	.LFB168
 17528 0154 0C000000 		.4byte	.LFE168-.LFB168
 17529 0158 00000000 		.4byte	.LFB169
 17530 015c 48000000 		.4byte	.LFE169-.LFB169
 17531 0160 00000000 		.4byte	.LFB170
 17532 0164 A0010000 		.4byte	.LFE170-.LFB170
 17533 0168 00000000 		.4byte	0
 17534 016c 00000000 		.4byte	0
 17535              		.section	.debug_ranges,"",%progbits
 17536              	.Ldebug_ranges0:
 17537 0000 DC000000 		.4byte	.LBB396
 17538 0004 06010000 		.4byte	.LBE396
 17539 0008 08010000 		.4byte	.LBB399
 17540 000c AC010000 		.4byte	.LBE399
 17541 0010 00000000 		.4byte	0
 17542 0014 00000000 		.4byte	0
 17543 0018 34010000 		.4byte	.LBB397
 17544 001c 54010000 		.4byte	.LBE397
 17545 0020 56010000 		.4byte	.LBB398
 17546 0024 92010000 		.4byte	.LBE398
 17547 0028 00000000 		.4byte	0
 17548 002c 00000000 		.4byte	0
 17549 0030 00000000 		.4byte	.LFB119
 17550 0034 26000000 		.4byte	.LFE119
 17551 0038 00000000 		.4byte	.LFB120
 17552 003c 0E000000 		.4byte	.LFE120
 17553 0040 00000000 		.4byte	.LFB121
 17554 0044 0E000000 		.4byte	.LFE121
 17555 0048 00000000 		.4byte	.LFB131
 17556 004c CC000000 		.4byte	.LFE131
 17557 0050 00000000 		.4byte	.LFB138
 17558 0054 3C010000 		.4byte	.LFE138
 17559 0058 00000000 		.4byte	.LFB142
 17560 005c 24010000 		.4byte	.LFE142
 17561 0060 00000000 		.4byte	.LFB139
 17562 0064 94010000 		.4byte	.LFE139
 17563 0068 00000000 		.4byte	.LFB141
 17564 006c 38010000 		.4byte	.LFE141
 17565 0070 00000000 		.4byte	.LFB143
 17566 0074 12000000 		.4byte	.LFE143
 17567 0078 00000000 		.4byte	.LFB140
 17568 007c 38010000 		.4byte	.LFE140
 17569 0080 00000000 		.4byte	.LFB144
 17570 0084 50010000 		.4byte	.LFE144
 17571 0088 00000000 		.4byte	.LFB148
 17572 008c 30010000 		.4byte	.LFE148
ARM GAS  C:\Users\user\AppData\Local\Temp\cc6TIdBD.s 			page 339


 17573 0090 00000000 		.4byte	.LFB145
 17574 0094 A8010000 		.4byte	.LFE145
 17575 0098 00000000 		.4byte	.LFB147
 17576 009c 44010000 		.4byte	.LFE147
 17577 00a0 00000000 		.4byte	.LFB149
 17578 00a4 12000000 		.4byte	.LFE149
 17579 00a8 00000000 		.4byte	.LFB146
 17580 00ac 44010000 		.4byte	.LFE146
 17581 00b0 00000000 		.4byte	.LFB150
 17582 00b4 44010000 		.4byte	.LFE150
 17583 00b8 00000000 		.4byte	.LFB154
 17584 00bc 2C010000 		.4byte	.LFE154
 17585 00c0 00000000 		.4byte	.LFB151
 17586 00c4 94010000 		.4byte	.LFE151
 17587 00c8 00000000 		.4byte	.LFB153
 17588 00cc 40010000 		.4byte	.LFE153
 17589 00d0 00000000 		.4byte	.LFB155
 17590 00d4 12000000 		.4byte	.LFE155
 17591 00d8 00000000 		.4byte	.LFB152
 17592 00dc 38010000 		.4byte	.LFE152
 17593 00e0 00000000 		.4byte	.LFB132
 17594 00e4 2A000000 		.4byte	.LFE132
 17595 00e8 00000000 		.4byte	.LFB136
 17596 00ec 3A000000 		.4byte	.LFE136
 17597 00f0 00000000 		.4byte	.LFB157
 17598 00f4 30000000 		.4byte	.LFE157
 17599 00f8 00000000 		.4byte	.LFB133
 17600 00fc 48000000 		.4byte	.LFE133
 17601 0100 00000000 		.4byte	.LFB135
 17602 0104 48000000 		.4byte	.LFE135
 17603 0108 00000000 		.4byte	.LFB156
 17604 010c 30000000 		.4byte	.LFE156
 17605 0110 00000000 		.4byte	.LFB137
 17606 0114 12000000 		.4byte	.LFE137
 17607 0118 00000000 		.4byte	.LFB158
 17608 011c 30000000 		.4byte	.LFE158
 17609 0120 00000000 		.4byte	.LFB134
 17610 0124 42000000 		.4byte	.LFE134
 17611 0128 00000000 		.4byte	.LFB159
 17612 012c 30000000 		.4byte	.LFE159
 17613 0130 00000000 		.4byte	.LFB160
 17614 0134 F4010000 		.4byte	.LFE160
 17615 0138 00000000 		.4byte	.LFB161
 17616 013c 64000000 		.4byte	.LFE161
 17617 0140 00000000 		.4byte	.LFB162
 17618 0144 1C000000 		.4byte	.LFE162
 17619 0148 00000000 		.4byte	.LFB163
 17620 014c EC040000 		.4byte	.LFE163
 17621 0150 00000000 		.4byte	.LFB164
 17622 0154 10000000 		.4byte	.LFE164
 17623 0158 00000000 		.4byte	.LFB165
 17624 015c 0C000000 		.4byte	.LFE165
 17625 0160 00000000 		.4byte	.LFB166
 17626 0164 7C000000 		.4byte	.LFE166
 17627 0168 00000000 		.4byte	.LFB167
 17628 016c 14000000 		.4byte	.LFE167
 17629 0170 00000000 		.4byte	.LFB168
ARM GAS  C:\Users\user\AppData\Local\Temp\cc6TIdBD.s 			page 340


 17630 0174 0C000000 		.4byte	.LFE168
 17631 0178 00000000 		.4byte	.LFB169
 17632 017c 48000000 		.4byte	.LFE169
 17633 0180 00000000 		.4byte	.LFB170
 17634 0184 A0010000 		.4byte	.LFE170
 17635 0188 00000000 		.4byte	0
 17636 018c 00000000 		.4byte	0
 17637              		.section	.debug_line,"",%progbits
 17638              	.Ldebug_line0:
 17639 0000 BD0A0000 		.section	.debug_str,"MS",%progbits,1
 17639      02006601 
 17639      00000201 
 17639      FB0E0D00 
 17639      01010101 
 17640              	.LASF98:
 17641 0000 73735F6F 		.ascii	"ss_obs_act_predict_q7\000"
 17641      62735F61 
 17641      63745F70 
 17641      72656469 
 17641      63745F71 
 17642              	.LASF93:
 17643 0016 73735F79 		.ascii	"ss_yhat_q7\000"
 17643      6861745F 
 17643      713700
 17644              	.LASF174:
 17645 0021 43794578 		.ascii	"CyExitCriticalSection\000"
 17645      69744372 
 17645      69746963 
 17645      616C5365 
 17645      6374696F 
 17646              	.LASF52:
 17647 0037 714B3135 		.ascii	"qK15\000"
 17647      00
 17648              	.LASF87:
 17649 003c 73735F79 		.ascii	"ss_yhat_q15\000"
 17649      6861745F 
 17649      71313500 
 17650              	.LASF25:
 17651 0048 7136335F 		.ascii	"q63_t\000"
 17651      7400
 17652              	.LASF112:
 17653 004e 755F7361 		.ascii	"u_sat\000"
 17653      7400
 17654              	.LASF69:
 17655 0054 73617466 		.ascii	"satf\000"
 17655      00
 17656              	.LASF130:
 17657 0059 79315F72 		.ascii	"y1_raw\000"
 17657      617700
 17658              	.LASF106:
 17659 0060 73735F6F 		.ascii	"ss_obs_act_predict_f32\000"
 17659      62735F61 
 17659      63745F70 
 17659      72656469 
 17659      63745F66 
 17660              	.LASF70:
 17661 0077 6D6F6465 		.ascii	"mode_ss\000"
ARM GAS  C:\Users\user\AppData\Local\Temp\cc6TIdBD.s 			page 341


 17661      5F737300 
 17662              	.LASF126:
 17663 007f 7361745F 		.ascii	"sat_max\000"
 17663      6D617800 
 17664              	.LASF55:
 17665 0087 714B7831 		.ascii	"qKx15\000"
 17665      3500
 17666              	.LASF65:
 17667 008d 71736174 		.ascii	"qsat7\000"
 17667      3700
 17668              	.LASF117:
 17669 0093 70657269 		.ascii	"period\000"
 17669      6F6400
 17670              	.LASF180:
 17671 009a 443A5C50 		.ascii	"D:\\PSoc\\Auto\\TPF\\TPF_PenduloInvertido\\4 - Pend"
 17671      536F635C 
 17671      4175746F 
 17671      5C545046 
 17671      5C545046 
 17672 00c8 756C6F2E 		.ascii	"ulo.cydsn\000"
 17672      63796473 
 17672      6E00
 17673              	.LASF42:
 17674 00d2 71413331 		.ascii	"qA31\000"
 17674      00
 17675              	.LASF12:
 17676 00d7 6C6F6E67 		.ascii	"long long unsigned int\000"
 17676      206C6F6E 
 17676      6720756E 
 17676      7369676E 
 17676      65642069 
 17677              	.LASF46:
 17678 00ee 714C3331 		.ascii	"qL31\000"
 17678      00
 17679              	.LASF160:
 17680 00f3 61726D5F 		.ascii	"arm_scale_q15\000"
 17680      7363616C 
 17680      655F7131 
 17680      3500
 17681              	.LASF10:
 17682 0101 5F5F696E 		.ascii	"__int64_t\000"
 17682      7436345F 
 17682      7400
 17683              	.LASF142:
 17684 010b 675F7361 		.ascii	"g_sat_max\000"
 17684      745F6D61 
 17684      7800
 17685              	.LASF146:
 17686 0115 6374726C 		.ascii	"ctrl_telem_u2\000"
 17686      5F74656C 
 17686      656D5F75 
 17686      3200
 17687              	.LASF3:
 17688 0123 5F5F696E 		.ascii	"__int8_t\000"
 17688      74385F74 
 17688      00
 17689              	.LASF143:
ARM GAS  C:\Users\user\AppData\Local\Temp\cc6TIdBD.s 			page 342


 17690 012c 49544D5F 		.ascii	"ITM_RxBuffer\000"
 17690      52784275 
 17690      66666572 
 17690      00
 17691              	.LASF128:
 17692 0139 74686574 		.ascii	"theta_cnt\000"
 17692      615F636E 
 17692      7400
 17693              	.LASF137:
 17694 0143 675F7275 		.ascii	"g_running\000"
 17694      6E6E696E 
 17694      6700
 17695              	.LASF94:
 17696 014d 646F7437 		.ascii	"dot7\000"
 17696      00
 17697              	.LASF15:
 17698 0152 696E7431 		.ascii	"int16_t\000"
 17698      365F7400 
 17699              	.LASF148:
 17700 015a 6374726C 		.ascii	"ctrl_telem_x1i\000"
 17700      5F74656C 
 17700      656D5F78 
 17700      316900
 17701              	.LASF141:
 17702 0169 675F7361 		.ascii	"g_sat_min\000"
 17702      745F6D69 
 17702      6E00
 17703              	.LASF1:
 17704 0173 7369676E 		.ascii	"signed char\000"
 17704      65642063 
 17704      68617200 
 17705              	.LASF155:
 17706 017f 675F7265 		.ascii	"g_ref_in_volts\000"
 17706      665F696E 
 17706      5F766F6C 
 17706      747300
 17707              	.LASF150:
 17708 018e 6374726C 		.ascii	"ctrl_telem_x1o\000"
 17708      5F74656C 
 17708      656D5F78 
 17708      316F00
 17709              	.LASF39:
 17710 019d 4E626172 		.ascii	"Nbar\000"
 17710      00
 17711              	.LASF81:
 17712 01a2 73735F70 		.ascii	"ss_predict_q31\000"
 17712      72656469 
 17712      63745F71 
 17712      333100
 17713              	.LASF101:
 17714 01b1 73735F6F 		.ascii	"ss_obs_act_correct_f32\000"
 17714      62735F61 
 17714      63745F63 
 17714      6F727265 
 17714      63745F66 
 17715              	.LASF129:
 17716 01c8 64656C74 		.ascii	"delta_om_cnt\000"
ARM GAS  C:\Users\user\AppData\Local\Temp\cc6TIdBD.s 			page 343


 17716      615F6F6D 
 17716      5F636E74 
 17716      00
 17717              	.LASF80:
 17718 01d5 73735F6F 		.ascii	"ss_obs_act_correct_q31\000"
 17718      62735F61 
 17718      63745F63 
 17718      6F727265 
 17718      63745F71 
 17719              	.LASF125:
 17720 01ec 7361745F 		.ascii	"sat_min\000"
 17720      6D696E00 
 17721              	.LASF179:
 17722 01f4 6374726C 		.ascii	"ctrl_pend.c\000"
 17722      5F70656E 
 17722      642E6300 
 17723              	.LASF59:
 17724 0200 71736174 		.ascii	"qsat31\000"
 17724      333100
 17725              	.LASF114:
 17726 0207 6374726C 		.ascii	"ctrl_set_mode\000"
 17726      5F736574 
 17726      5F6D6F64 
 17726      6500
 17727              	.LASF8:
 17728 0215 6C6F6E67 		.ascii	"long int\000"
 17728      20696E74 
 17728      00
 17729              	.LASF169:
 17730 021e 61726D5F 		.ascii	"arm_float_to_q15\000"
 17730      666C6F61 
 17730      745F746F 
 17730      5F713135 
 17730      00
 17731              	.LASF161:
 17732 022f 61726D5F 		.ascii	"arm_add_q15\000"
 17732      6164645F 
 17732      71313500 
 17733              	.LASF138:
 17734 023b 675F6E75 		.ascii	"g_num_type\000"
 17734      6D5F7479 
 17734      706500
 17735              	.LASF154:
 17736 0246 6374726C 		.ascii	"ctrl_period_ticks\000"
 17736      5F706572 
 17736      696F645F 
 17736      7469636B 
 17736      7300
 17737              	.LASF23:
 17738 0258 7131355F 		.ascii	"q15_t\000"
 17738      7400
 17739              	.LASF11:
 17740 025e 6C6F6E67 		.ascii	"long long int\000"
 17740      206C6F6E 
 17740      6720696E 
 17740      7400
 17741              	.LASF21:
ARM GAS  C:\Users\user\AppData\Local\Temp\cc6TIdBD.s 			page 344


 17742 026c 646F7562 		.ascii	"double\000"
 17742      6C6500
 17743              	.LASF136:
 17744 0273 675F5473 		.ascii	"g_Ts\000"
 17744      00
 17745              	.LASF165:
 17746 0278 61726D5F 		.ascii	"arm_dot_prod_f32\000"
 17746      646F745F 
 17746      70726F64 
 17746      5F663332 
 17746      00
 17747              	.LASF156:
 17748 0289 61726D5F 		.ascii	"arm_dot_prod_q31\000"
 17748      646F745F 
 17748      70726F64 
 17748      5F713331 
 17748      00
 17749              	.LASF85:
 17750 029a 65787472 		.ascii	"extra_f\000"
 17750      615F6600 
 17751              	.LASF33:
 17752 02a2 74665F62 		.ascii	"tf_b\000"
 17752      00
 17753              	.LASF29:
 17754 02a7 75696E74 		.ascii	"uint32\000"
 17754      333200
 17755              	.LASF100:
 17756 02ae 73735F79 		.ascii	"ss_yhat_f32\000"
 17756      6861745F 
 17756      66333200 
 17757              	.LASF149:
 17758 02ba 6374726C 		.ascii	"ctrl_telem_x2i\000"
 17758      5F74656C 
 17758      656D5F78 
 17758      326900
 17759              	.LASF86:
 17760 02c9 65787472 		.ascii	"extra_q\000"
 17760      615F7100 
 17761              	.LASF45:
 17762 02d1 714B3331 		.ascii	"qK31\000"
 17762      00
 17763              	.LASF73:
 17764 02d6 73735F79 		.ascii	"ss_yhat_q31\000"
 17764      6861745F 
 17764      71333100 
 17765              	.LASF172:
 17766 02e2 4D6F746F 		.ascii	"Motor_Free\000"
 17766      725F4672 
 17766      656500
 17767              	.LASF151:
 17768 02ed 6374726C 		.ascii	"ctrl_telem_x2o\000"
 17768      5F74656C 
 17768      656D5F78 
 17768      326F00
 17769              	.LASF64:
 17770 02fc 71375F74 		.ascii	"q7_to_flt\000"
 17770      6F5F666C 
ARM GAS  C:\Users\user\AppData\Local\Temp\cc6TIdBD.s 			page 345


 17770      7400
 17771              	.LASF54:
 17772 0306 71443135 		.ascii	"qD15\000"
 17772      00
 17773              	.LASF75:
 17774 030b 696E6E6F 		.ascii	"innov\000"
 17774      7600
 17775              	.LASF35:
 17776 0311 74665F77 		.ascii	"tf_w\000"
 17776      00
 17777              	.LASF31:
 17778 0316 696E7433 		.ascii	"int32\000"
 17778      3200
 17779              	.LASF139:
 17780 031c 675F7931 		.ascii	"g_y1_filt\000"
 17780      5F66696C 
 17780      7400
 17781              	.LASF181:
 17782 0326 696E6E65 		.ascii	"inner_phys_limits\000"
 17782      725F7068 
 17782      79735F6C 
 17782      696D6974 
 17782      7300
 17783              	.LASF13:
 17784 0338 756E7369 		.ascii	"unsigned int\000"
 17784      676E6564 
 17784      20696E74 
 17784      00
 17785              	.LASF72:
 17786 0345 74665F73 		.ascii	"tf_step\000"
 17786      74657000 
 17787              	.LASF61:
 17788 034d 7131355F 		.ascii	"q15_to_flt\000"
 17788      746F5F66 
 17788      6C7400
 17789              	.LASF166:
 17790 0358 61726D5F 		.ascii	"arm_scale_f32\000"
 17790      7363616C 
 17790      655F6633 
 17790      3200
 17791              	.LASF9:
 17792 0366 6C6F6E67 		.ascii	"long unsigned int\000"
 17792      20756E73 
 17792      69676E65 
 17792      6420696E 
 17792      7400
 17793              	.LASF157:
 17794 0378 61726D5F 		.ascii	"arm_scale_q31\000"
 17794      7363616C 
 17794      655F7133 
 17794      3100
 17795              	.LASF113:
 17796 0386 6374726C 		.ascii	"ctrl_init\000"
 17796      5F696E69 
 17796      7400
 17797              	.LASF173:
 17798 0390 4379456E 		.ascii	"CyEnterCriticalSection\000"
ARM GAS  C:\Users\user\AppData\Local\Temp\cc6TIdBD.s 			page 346


 17798      74657243 
 17798      72697469 
 17798      63616C53 
 17798      65637469 
 17799              	.LASF56:
 17800 03a7 714B7837 		.ascii	"qKx7\000"
 17800      00
 17801              	.LASF27:
 17802 03ac 75696E74 		.ascii	"uint8\000"
 17802      3800
 17803              	.LASF127:
 17804 03b2 6374726C 		.ascii	"ctrl_step\000"
 17804      5F737465 
 17804      7000
 17805              	.LASF40:
 17806 03bc 755F6F75 		.ascii	"u_out\000"
 17806      7400
 17807              	.LASF135:
 17808 03c2 675F6C70 		.ascii	"g_lp\000"
 17808      00
 17809              	.LASF140:
 17810 03c7 675F7932 		.ascii	"g_y2_filt\000"
 17810      5F66696C 
 17810      7400
 17811              	.LASF78:
 17812 03d1 7A686174 		.ascii	"zhat_q\000"
 17812      5F7100
 17813              	.LASF68:
 17814 03d8 706D6178 		.ascii	"pmax\000"
 17814      00
 17815              	.LASF82:
 17816 03dd 73735F6F 		.ascii	"ss_obs_pred_q31\000"
 17816      62735F70 
 17816      7265645F 
 17816      71333100 
 17817              	.LASF167:
 17818 03ed 61726D5F 		.ascii	"arm_add_f32\000"
 17818      6164645F 
 17818      66333200 
 17819              	.LASF168:
 17820 03f9 61726D5F 		.ascii	"arm_float_to_q31\000"
 17820      666C6F61 
 17820      745F746F 
 17820      5F713331 
 17820      00
 17821              	.LASF158:
 17822 040a 61726D5F 		.ascii	"arm_add_q31\000"
 17822      6164645F 
 17822      71333100 
 17823              	.LASF83:
 17824 0416 73735F6F 		.ascii	"ss_obs_act_predict_q31\000"
 17824      62735F61 
 17824      63745F70 
 17824      72656469 
 17824      63745F71 
 17825              	.LASF51:
 17826 042d 71433135 		.ascii	"qC15\000"
ARM GAS  C:\Users\user\AppData\Local\Temp\cc6TIdBD.s 			page 347


 17826      00
 17827              	.LASF67:
 17828 0432 706D696E 		.ascii	"pmin\000"
 17828      00
 17829              	.LASF110:
 17830 0437 755F636D 		.ascii	"u_cmd\000"
 17830      6400
 17831              	.LASF48:
 17832 043d 714B7833 		.ascii	"qKx31\000"
 17832      3100
 17833              	.LASF19:
 17834 0443 73697A65 		.ascii	"sizetype\000"
 17834      74797065 
 17834      00
 17835              	.LASF103:
 17836 044c 73735F70 		.ascii	"ss_predict_f32\000"
 17836      72656469 
 17836      63745F66 
 17836      333200
 17837              	.LASF38:
 17838 045b 76696E74 		.ascii	"vint\000"
 17838      00
 17839              	.LASF108:
 17840 0460 73735F75 		.ascii	"ss_u_cmd_f32\000"
 17840      5F636D64 
 17840      5F663332 
 17840      00
 17841              	.LASF134:
 17842 046d 696E7472 		.ascii	"intr\000"
 17842      00
 17843              	.LASF84:
 17844 0472 73735F75 		.ascii	"ss_u_cmd_q31\000"
 17844      5F636D64 
 17844      5F713331 
 17844      00
 17845              	.LASF37:
 17846 047f 7A686174 		.ascii	"zhat\000"
 17846      00
 17847              	.LASF47:
 17848 0484 71443331 		.ascii	"qD31\000"
 17848      00
 17849              	.LASF170:
 17850 0489 61726D5F 		.ascii	"arm_float_to_q7\000"
 17850      666C6F61 
 17850      745F746F 
 17850      5F713700 
 17851              	.LASF177:
 17852 0499 4D6F746F 		.ascii	"Motor_Control\000"
 17852      725F436F 
 17852      6E74726F 
 17852      6C00
 17853              	.LASF182:
 17854 04a7 6374726C 		.ascii	"ctrl_get_num_type\000"
 17854      5F676574 
 17854      5F6E756D 
 17854      5F747970 
 17854      6500
ARM GAS  C:\Users\user\AppData\Local\Temp\cc6TIdBD.s 			page 348


 17855              	.LASF28:
 17856 04b9 75696E74 		.ascii	"uint16\000"
 17856      313600
 17857              	.LASF111:
 17858 04c0 72756E5F 		.ascii	"run_step\000"
 17858      73746570 
 17858      00
 17859              	.LASF99:
 17860 04c9 73735F75 		.ascii	"ss_u_cmd_q7\000"
 17860      5F636D64 
 17860      5F713700 
 17861              	.LASF123:
 17862 04d5 6374726C 		.ascii	"ctrl_update_ref\000"
 17862      5F757064 
 17862      6174655F 
 17862      72656600 
 17863              	.LASF0:
 17864 04e5 666C6F61 		.ascii	"float\000"
 17864      7400
 17865              	.LASF124:
 17866 04eb 6374726C 		.ascii	"ctrl_set_sat\000"
 17866      5F736574 
 17866      5F736174 
 17866      00
 17867              	.LASF119:
 17868 04f8 6E756D5F 		.ascii	"num_type\000"
 17868      74797065 
 17868      00
 17869              	.LASF153:
 17870 0501 6374726C 		.ascii	"ctrl_period_pending\000"
 17870      5F706572 
 17870      696F645F 
 17870      70656E64 
 17870      696E6700 
 17871              	.LASF145:
 17872 0515 6374726C 		.ascii	"ctrl_telem_y1\000"
 17872      5F74656C 
 17872      656D5F79 
 17872      3100
 17873              	.LASF97:
 17874 0523 73735F6F 		.ascii	"ss_obs_pred_q7\000"
 17874      62735F70 
 17874      7265645F 
 17874      713700
 17875              	.LASF105:
 17876 0532 6F62735F 		.ascii	"obs_pred\000"
 17876      70726564 
 17876      00
 17877              	.LASF16:
 17878 053b 696E7433 		.ascii	"int32_t\000"
 17878      325F7400 
 17879              	.LASF2:
 17880 0543 756E7369 		.ascii	"unsigned char\000"
 17880      676E6564 
 17880      20636861 
 17880      7200
 17881              	.LASF79:
ARM GAS  C:\Users\user\AppData\Local\Temp\cc6TIdBD.s 			page 349


 17882 0551 78686174 		.ascii	"xhat_q\000"
 17882      5F7100
 17883              	.LASF50:
 17884 0558 71423135 		.ascii	"qB15\000"
 17884      00
 17885              	.LASF152:
 17886 055d 6374726C 		.ascii	"ctrl_telem_ready\000"
 17886      5F74656C 
 17886      656D5F72 
 17886      65616479 
 17886      00
 17887              	.LASF164:
 17888 056e 61726D5F 		.ascii	"arm_add_q7\000"
 17888      6164645F 
 17888      713700
 17889              	.LASF5:
 17890 0579 73686F72 		.ascii	"short int\000"
 17890      7420696E 
 17890      7400
 17891              	.LASF131:
 17892 0583 79325F72 		.ascii	"y2_raw\000"
 17892      617700
 17893              	.LASF175:
 17894 058a 70656E64 		.ascii	"pendulo_read\000"
 17894      756C6F5F 
 17894      72656164 
 17894      00
 17895              	.LASF178:
 17896 0597 474E5520 		.ascii	"GNU C11 5.4.1 20160609 (release) [ARM/embedded-5-br"
 17896      43313120 
 17896      352E342E 
 17896      31203230 
 17896      31363036 
 17897 05ca 616E6368 		.ascii	"anch revision 237715] -mcpu=cortex-m3 -mthumb -g -O"
 17897      20726576 
 17897      6973696F 
 17897      6E203233 
 17897      37373135 
 17898 05fd 67202D66 		.ascii	"g -ffunction-sections -ffat-lto-objects\000"
 17898      66756E63 
 17898      74696F6E 
 17898      2D736563 
 17898      74696F6E 
 17899              	.LASF171:
 17900 0625 70656E64 		.ascii	"pendulo_reset_encoders\000"
 17900      756C6F5F 
 17900      72657365 
 17900      745F656E 
 17900      636F6465 
 17901              	.LASF176:
 17902 063c 50574D5F 		.ascii	"PWM_Desde_Voltaje\000"
 17902      44657364 
 17902      655F566F 
 17902      6C74616A 
 17902      6500
 17903              	.LASF118:
 17904 064e 6374726C 		.ascii	"ctrl_set_num_type\000"
ARM GAS  C:\Users\user\AppData\Local\Temp\cc6TIdBD.s 			page 350


 17904      5F736574 
 17904      5F6E756D 
 17904      5F747970 
 17904      6500
 17905              	.LASF24:
 17906 0660 7133315F 		.ascii	"q31_t\000"
 17906      7400
 17907              	.LASF44:
 17908 0666 71433331 		.ascii	"qC31\000"
 17908      00
 17909              	.LASF159:
 17910 066b 61726D5F 		.ascii	"arm_dot_prod_q15\000"
 17910      646F745F 
 17910      70726F64 
 17910      5F713135 
 17910      00
 17911              	.LASF92:
 17912 067c 73735F75 		.ascii	"ss_u_cmd_q15\000"
 17912      5F636D64 
 17912      5F713135 
 17912      00
 17913              	.LASF144:
 17914 0689 6374726C 		.ascii	"ctrl_telem_u1\000"
 17914      5F74656C 
 17914      656D5F75 
 17914      3100
 17915              	.LASF41:
 17916 0697 715F7363 		.ascii	"q_scale\000"
 17916      616C6500 
 17917              	.LASF18:
 17918 069f 6C6F6E67 		.ascii	"long double\000"
 17918      20646F75 
 17918      626C6500 
 17919              	.LASF36:
 17920 06ab 78686174 		.ascii	"xhat\000"
 17920      00
 17921              	.LASF20:
 17922 06b0 63686172 		.ascii	"char\000"
 17922      00
 17923              	.LASF32:
 17924 06b5 6D6F6465 		.ascii	"mode\000"
 17924      00
 17925              	.LASF120:
 17926 06ba 6374726C 		.ascii	"ctrl_start\000"
 17926      5F737461 
 17926      727400
 17927              	.LASF121:
 17928 06c5 7265665F 		.ascii	"ref_inner\000"
 17928      696E6E65 
 17928      7200
 17929              	.LASF63:
 17930 06cf 666C745F 		.ascii	"flt_to_q15n\000"
 17930      746F5F71 
 17930      31356E00 
 17931              	.LASF66:
 17932 06db 666C745F 		.ascii	"flt_to_q7n\000"
 17932      746F5F71 
ARM GAS  C:\Users\user\AppData\Local\Temp\cc6TIdBD.s 			page 351


 17932      376E00
 17933              	.LASF57:
 17934 06e6 4374726C 		.ascii	"CtrlLoop\000"
 17934      4C6F6F70 
 17934      00
 17935              	.LASF7:
 17936 06ef 5F5F696E 		.ascii	"__int32_t\000"
 17936      7433325F 
 17936      7400
 17937              	.LASF147:
 17938 06f9 6374726C 		.ascii	"ctrl_telem_y2\000"
 17938      5F74656C 
 17938      656D5F79 
 17938      3200
 17939              	.LASF116:
 17940 0707 6374726C 		.ascii	"ctrl_apply_coeffs\000"
 17940      5F617070 
 17940      6C795F63 
 17940      6F656666 
 17940      7300
 17941              	.LASF26:
 17942 0719 666C6F61 		.ascii	"float32_t\000"
 17942      7433325F 
 17942      7400
 17943              	.LASF4:
 17944 0723 5F5F696E 		.ascii	"__int16_t\000"
 17944      7431365F 
 17944      7400
 17945              	.LASF22:
 17946 072d 71375F74 		.ascii	"q7_t\000"
 17946      00
 17947              	.LASF6:
 17948 0732 73686F72 		.ascii	"short unsigned int\000"
 17948      7420756E 
 17948      7369676E 
 17948      65642069 
 17948      6E7400
 17949              	.LASF77:
 17950 0745 4C696E76 		.ascii	"Linv\000"
 17950      00
 17951              	.LASF49:
 17952 074a 71413135 		.ascii	"qA15\000"
 17952      00
 17953              	.LASF74:
 17954 074f 755F7072 		.ascii	"u_prev\000"
 17954      657600
 17955              	.LASF14:
 17956 0756 696E7438 		.ascii	"int8_t\000"
 17956      5F7400
 17957              	.LASF53:
 17958 075d 714C3135 		.ascii	"qL15\000"
 17958      00
 17959              	.LASF58:
 17960 0762 7133315F 		.ascii	"q31_to_flt\000"
 17960      746F5F66 
 17960      6C7400
 17961              	.LASF163:
ARM GAS  C:\Users\user\AppData\Local\Temp\cc6TIdBD.s 			page 352


 17962 076d 61726D5F 		.ascii	"arm_scale_q7\000"
 17962      7363616C 
 17962      655F7137 
 17962      00
 17963              	.LASF90:
 17964 077a 73735F6F 		.ascii	"ss_obs_pred_q15\000"
 17964      62735F70 
 17964      7265645F 
 17964      71313500 
 17965              	.LASF60:
 17966 078a 666C745F 		.ascii	"flt_to_q31n\000"
 17966      746F5F71 
 17966      33316E00 
 17967              	.LASF183:
 17968 0796 6D656D73 		.ascii	"memset\000"
 17968      657400
 17969              	.LASF91:
 17970 079d 73735F6F 		.ascii	"ss_obs_act_predict_q15\000"
 17970      62735F61 
 17970      63745F70 
 17970      72656469 
 17970      63745F71 
 17971              	.LASF133:
 17972 07b4 6F757465 		.ascii	"outer\000"
 17972      7200
 17973              	.LASF71:
 17974 07ba 6D6F6465 		.ascii	"mode_has_i\000"
 17974      5F686173 
 17974      5F6900
 17975              	.LASF95:
 17976 07c5 73735F6F 		.ascii	"ss_obs_act_correct_q7\000"
 17976      62735F61 
 17976      63745F63 
 17976      6F727265 
 17976      63745F71 
 17977              	.LASF89:
 17978 07db 73735F70 		.ascii	"ss_predict_q15\000"
 17978      72656469 
 17978      63745F71 
 17978      313500
 17979              	.LASF43:
 17980 07ea 71423331 		.ascii	"qB31\000"
 17980      00
 17981              	.LASF88:
 17982 07ef 73735F6F 		.ascii	"ss_obs_act_correct_q15\000"
 17982      62735F61 
 17982      63745F63 
 17982      6F727265 
 17982      63745F71 
 17983              	.LASF30:
 17984 0806 696E7431 		.ascii	"int16\000"
 17984      3600
 17985              	.LASF115:
 17986 080c 706C616E 		.ascii	"plant_id\000"
 17986      745F6964 
 17986      00
 17987              	.LASF62:
ARM GAS  C:\Users\user\AppData\Local\Temp\cc6TIdBD.s 			page 353


 17988 0815 71736174 		.ascii	"qsat15\000"
 17988      313500
 17989              	.LASF109:
 17990 081c 65787472 		.ascii	"extra\000"
 17990      6100
 17991              	.LASF17:
 17992 0822 696E7436 		.ascii	"int64_t\000"
 17992      345F7400 
 17993              	.LASF96:
 17994 082a 73735F70 		.ascii	"ss_predict_q7\000"
 17994      72656469 
 17994      63745F71 
 17994      3700
 17995              	.LASF122:
 17996 0838 6374726C 		.ascii	"ctrl_stop\000"
 17996      5F73746F 
 17996      7000
 17997              	.LASF132:
 17998 0842 696E6E65 		.ascii	"inner\000"
 17998      7200
 17999              	.LASF104:
 18000 0848 73735F6F 		.ascii	"ss_obs_pred_f32\000"
 18000      62735F70 
 18000      7265645F 
 18000      66333200 
 18001              	.LASF34:
 18002 0858 74665F61 		.ascii	"tf_a\000"
 18002      00
 18003              	.LASF76:
 18004 085d 696E6E6F 		.ascii	"innov_q\000"
 18004      765F7100 
 18005              	.LASF162:
 18006 0865 61726D5F 		.ascii	"arm_dot_prod_q7\000"
 18006      646F745F 
 18006      70726F64 
 18006      5F713700 
 18007              	.LASF102:
 18008 0875 6F62735F 		.ascii	"obs_act_correct\000"
 18008      6163745F 
 18008      636F7272 
 18008      65637400 
 18009              	.LASF107:
 18010 0885 6F62735F 		.ascii	"obs_act_predict\000"
 18010      6163745F 
 18010      70726564 
 18010      69637400 
 18011              		.ident	"GCC: (GNU Tools for ARM Embedded Processors) 5.4.1 20160609 (release) [ARM/embedded-5-bran
