ARM GAS  C:\Users\user\AppData\Local\Temp\ccJOy7it.s 			page 1


   1              		.syntax unified
   2              		.cpu cortex-m3
   3              		.fpu softvfp
   4              		.eabi_attribute 20, 1
   5              		.eabi_attribute 21, 1
   6              		.eabi_attribute 23, 3
   7              		.eabi_attribute 24, 1
   8              		.eabi_attribute 25, 1
   9              		.eabi_attribute 26, 1
  10              		.eabi_attribute 30, 1
  11              		.eabi_attribute 34, 1
  12              		.eabi_attribute 18, 4
  13              		.thumb
  14              		.syntax unified
  15              		.file	"ctrl_pend.c"
  16              		.text
  17              	.Ltext0:
  18              		.cfi_sections	.debug_frame
  19              		.global	__aeabi_fcmpgt
  20              		.global	__aeabi_fcmplt
  21              		.section	.text.satf,"ax",%progbits
  22              		.align	2
  23              		.thumb
  24              		.thumb_func
  25              		.type	satf, %function
  26              	satf:
  27              	.LFB63:
  28              		.file 1 "ctrl_pend.c"
   1:ctrl_pend.c   **** /* ============================================================
   2:ctrl_pend.c   ****    ctrl_pend.c — Two-plant on-PSoC controller (no arm_math)
   3:ctrl_pend.c   ****    ============================================================ */
   4:ctrl_pend.c   **** #include "ctrl_pend.h"
   5:ctrl_pend.c   **** #include "pendulo.h"
   6:ctrl_pend.c   **** #include "motor.h"
   7:ctrl_pend.c   **** #include <string.h>
   8:ctrl_pend.c   **** 
   9:ctrl_pend.c   **** /* ============================================================
  10:ctrl_pend.c   ****    Physical constants
  11:ctrl_pend.c   ****    ============================================================ */
  12:ctrl_pend.c   **** #define PI_F            3.14159265f
  13:ctrl_pend.c   **** #define MOTOR_CPR_F     1040.0f
  14:ctrl_pend.c   **** #define PENDULO_CPR_F   10000.0f
  15:ctrl_pend.c   **** #define PWM_MAX_F       1264.0f
  16:ctrl_pend.c   **** #define PWM_MIN_F      (-1264.0f)
  17:ctrl_pend.c   **** 
  18:ctrl_pend.c   **** /* ============================================================
  19:ctrl_pend.c   ****    Per-loop state struct
  20:ctrl_pend.c   ****    ============================================================ */
  21:ctrl_pend.c   **** typedef struct {
  22:ctrl_pend.c   ****     uint8  mode;            /* CTRL_MODE_* */
  23:ctrl_pend.c   **** 
  24:ctrl_pend.c   ****     /* TF – Direct Form II Transposed, order 5 (6 coeffs each) */
  25:ctrl_pend.c   ****     float  tf_b[6];
  26:ctrl_pend.c   ****     float  tf_a[6];         /* a[0] always 1 after normalization */
  27:ctrl_pend.c   ****     float  tf_w[5];         /* delay state */
  28:ctrl_pend.c   **** 
  29:ctrl_pend.c   ****     /* SS – 2 states */
ARM GAS  C:\Users\user\AppData\Local\Temp\ccJOy7it.s 			page 2


  30:ctrl_pend.c   ****     float  A[4];            /* 2×2 row-major: [A11 A12 A21 A22] */
  31:ctrl_pend.c   ****     float  B[2];            /* 2×1 */
  32:ctrl_pend.c   ****     float  C[2];            /* 1×2 */
  33:ctrl_pend.c   ****     float  D;
  34:ctrl_pend.c   ****     float  L[2];            /* observer gain */
  35:ctrl_pend.c   ****     float  K[2];            /* state feedback gain */
  36:ctrl_pend.c   ****     float  Kx;              /* Kr (no-integrator) or Ki (integrator) */
  37:ctrl_pend.c   **** 
  38:ctrl_pend.c   ****     float  xhat[2];         /* posterior state estimate */
  39:ctrl_pend.c   ****     float  zhat[2];         /* prior (actual observer) */
  40:ctrl_pend.c   ****     float  vint;            /* integral accumulator */
  41:ctrl_pend.c   **** 
  42:ctrl_pend.c   ****     float  ref;             /* current setpoint */
  43:ctrl_pend.c   ****     float  u_out;           /* last output (before saturation for plant 1) */
  44:ctrl_pend.c   **** 
  45:ctrl_pend.c   ****     /* Outer-loop decimation (plant 1 only, ignored for plant 0) */
  46:ctrl_pend.c   ****     uint16 N;               /* run outer every N inner ticks */
  47:ctrl_pend.c   ****     uint16 cnt;             /* inner tick counter */
  48:ctrl_pend.c   **** 
  49:ctrl_pend.c   **** } CtrlLoop;
  50:ctrl_pend.c   **** 
  51:ctrl_pend.c   **** /* ============================================================
  52:ctrl_pend.c   ****    Module-level state
  53:ctrl_pend.c   ****    ============================================================ */
  54:ctrl_pend.c   **** static CtrlLoop g_lp[PLANT_COUNT];
  55:ctrl_pend.c   **** static float    g_Ts      = 0.005f;   /* inner sample time [s] */
  56:ctrl_pend.c   **** static uint8    g_running = 0u;
  57:ctrl_pend.c   **** 
  58:ctrl_pend.c   **** /* Telemetry */
  59:ctrl_pend.c   **** volatile float ctrl_telem_u1    = 0.0f;
  60:ctrl_pend.c   **** volatile float ctrl_telem_y1    = 0.0f;
  61:ctrl_pend.c   **** volatile float ctrl_telem_u2    = 0.0f;
  62:ctrl_pend.c   **** volatile float ctrl_telem_y2    = 0.0f;
  63:ctrl_pend.c   **** volatile uint8 ctrl_telem_ready = 0u;
  64:ctrl_pend.c   **** 
  65:ctrl_pend.c   **** /* Timer period */
  66:ctrl_pend.c   **** volatile uint8  ctrl_period_pending = 0u;
  67:ctrl_pend.c   **** volatile uint32 ctrl_period_ticks   = 0u;
  68:ctrl_pend.c   **** 
  69:ctrl_pend.c   **** /* ============================================================
  70:ctrl_pend.c   ****    Helpers
  71:ctrl_pend.c   ****    ============================================================ */
  72:ctrl_pend.c   **** static float satf(float v, float lo, float hi)
  73:ctrl_pend.c   **** {
  29              		.loc 1 73 0
  30              		.cfi_startproc
  31              		@ args = 0, pretend = 0, frame = 0
  32              		@ frame_needed = 0, uses_anonymous_args = 0
  33              	.LVL0:
  34 0000 70B5     		push	{r4, r5, r6, lr}
  35              		.cfi_def_cfa_offset 16
  36              		.cfi_offset 4, -16
  37              		.cfi_offset 5, -12
  38              		.cfi_offset 6, -8
  39              		.cfi_offset 14, -4
  40 0002 0546     		mov	r5, r0
  41 0004 0E46     		mov	r6, r1
ARM GAS  C:\Users\user\AppData\Local\Temp\ccJOy7it.s 			page 3


  42 0006 1446     		mov	r4, r2
  74:ctrl_pend.c   ****     if (v > hi) return hi;
  43              		.loc 1 74 0
  44 0008 1146     		mov	r1, r2
  45              	.LVL1:
  46 000a FFF7FEFF 		bl	__aeabi_fcmpgt
  47              	.LVL2:
  48 000e 30B9     		cbnz	r0, .L4
  75:ctrl_pend.c   ****     if (v < lo) return lo;
  49              		.loc 1 75 0
  50 0010 3146     		mov	r1, r6
  51 0012 2846     		mov	r0, r5
  52 0014 FFF7FEFF 		bl	__aeabi_fcmplt
  53              	.LVL3:
  54 0018 18B1     		cbz	r0, .L7
  55 001a 3046     		mov	r0, r6
  56 001c 70BD     		pop	{r4, r5, r6, pc}
  57              	.LVL4:
  58              	.L4:
  74:ctrl_pend.c   ****     if (v > hi) return hi;
  59              		.loc 1 74 0
  60 001e 2046     		mov	r0, r4
  61 0020 70BD     		pop	{r4, r5, r6, pc}
  62              	.LVL5:
  63              	.L7:
  76:ctrl_pend.c   ****     return v;
  64              		.loc 1 76 0
  65 0022 2846     		mov	r0, r5
  77:ctrl_pend.c   **** }
  66              		.loc 1 77 0
  67 0024 70BD     		pop	{r4, r5, r6, pc}
  68              		.cfi_endproc
  69              	.LFE63:
  70              		.size	satf, .-satf
  71 0026 00BF     		.section	.text.mode_ss,"ax",%progbits
  72              		.align	2
  73              		.thumb
  74              		.thumb_func
  75              		.type	mode_ss, %function
  76              	mode_ss:
  77              	.LFB64:
  78:ctrl_pend.c   **** 
  79:ctrl_pend.c   **** static uint8 mode_ss(uint8 m)
  80:ctrl_pend.c   **** {
  78              		.loc 1 80 0
  79              		.cfi_startproc
  80              		@ args = 0, pretend = 0, frame = 0
  81              		@ frame_needed = 0, uses_anonymous_args = 0
  82              		@ link register save eliminated.
  83              	.LVL6:
  81:ctrl_pend.c   ****     return (m == CTRL_MODE_SS_PRED_NOI || m == CTRL_MODE_SS_ACT_NOI ||
  82:ctrl_pend.c   ****             m == CTRL_MODE_SS_PRED_I   || m == CTRL_MODE_SS_ACT_I);
  84              		.loc 1 82 0
  85 0000 0138     		subs	r0, r0, #1
  86              	.LVL7:
  87 0002 C0B2     		uxtb	r0, r0
  83:ctrl_pend.c   **** }
ARM GAS  C:\Users\user\AppData\Local\Temp\ccJOy7it.s 			page 4


  88              		.loc 1 83 0
  89 0004 0328     		cmp	r0, #3
  90 0006 8CBF     		ite	hi
  91 0008 0020     		movhi	r0, #0
  92 000a 0120     		movls	r0, #1
  93 000c 7047     		bx	lr
  94              		.cfi_endproc
  95              	.LFE64:
  96              		.size	mode_ss, .-mode_ss
  97 000e 00BF     		.section	.text.mode_has_i,"ax",%progbits
  98              		.align	2
  99              		.thumb
 100              		.thumb_func
 101              		.type	mode_has_i, %function
 102              	mode_has_i:
 103              	.LFB65:
  84:ctrl_pend.c   **** 
  85:ctrl_pend.c   **** static uint8 mode_has_i(uint8 m)
  86:ctrl_pend.c   **** {
 104              		.loc 1 86 0
 105              		.cfi_startproc
 106              		@ args = 0, pretend = 0, frame = 0
 107              		@ frame_needed = 0, uses_anonymous_args = 0
 108              		@ link register save eliminated.
 109              	.LVL8:
  87:ctrl_pend.c   ****     return (m == CTRL_MODE_SS_PRED_I) || (m == CTRL_MODE_SS_ACT_I);
 110              		.loc 1 87 0
 111 0000 0338     		subs	r0, r0, #3
 112              	.LVL9:
 113 0002 C0B2     		uxtb	r0, r0
  88:ctrl_pend.c   **** }
 114              		.loc 1 88 0
 115 0004 0128     		cmp	r0, #1
 116 0006 8CBF     		ite	hi
 117 0008 0020     		movhi	r0, #0
 118 000a 0120     		movls	r0, #1
 119 000c 7047     		bx	lr
 120              		.cfi_endproc
 121              	.LFE65:
 122              		.size	mode_has_i, .-mode_has_i
 123              		.global	__aeabi_fmul
 124              		.global	__aeabi_fadd
 125              		.global	__aeabi_fsub
 126 000e 00BF     		.section	.text.tf_step,"ax",%progbits
 127              		.align	2
 128              		.thumb
 129              		.thumb_func
 130              		.type	tf_step, %function
 131              	tf_step:
 132              	.LFB67:
  89:ctrl_pend.c   **** 
  90:ctrl_pend.c   **** static uint8 mode_actual(uint8 m)
  91:ctrl_pend.c   **** {
  92:ctrl_pend.c   ****     return (m == CTRL_MODE_SS_ACT_NOI) || (m == CTRL_MODE_SS_ACT_I);
  93:ctrl_pend.c   **** }
  94:ctrl_pend.c   **** 
  95:ctrl_pend.c   **** /* ============================================================
ARM GAS  C:\Users\user\AppData\Local\Temp\ccJOy7it.s 			page 5


  96:ctrl_pend.c   ****    TF – DF2T step
  97:ctrl_pend.c   ****    ============================================================ */
  98:ctrl_pend.c   **** static float tf_step(CtrlLoop *lp, float x)
  99:ctrl_pend.c   **** {
 133              		.loc 1 99 0
 134              		.cfi_startproc
 135              		@ args = 0, pretend = 0, frame = 0
 136              		@ frame_needed = 0, uses_anonymous_args = 0
 137              	.LVL10:
 138 0000 F8B5     		push	{r3, r4, r5, r6, r7, lr}
 139              		.cfi_def_cfa_offset 24
 140              		.cfi_offset 3, -24
 141              		.cfi_offset 4, -20
 142              		.cfi_offset 5, -16
 143              		.cfi_offset 6, -12
 144              		.cfi_offset 7, -8
 145              		.cfi_offset 14, -4
 146 0002 0446     		mov	r4, r0
 147 0004 0E46     		mov	r6, r1
 100:ctrl_pend.c   ****     float y = lp->tf_b[0]*x + lp->tf_w[0];
 148              		.loc 1 100 0
 149 0006 4068     		ldr	r0, [r0, #4]	@ float
 150              	.LVL11:
 151 0008 FFF7FEFF 		bl	__aeabi_fmul
 152              	.LVL12:
 153 000c 616B     		ldr	r1, [r4, #52]	@ float
 154 000e FFF7FEFF 		bl	__aeabi_fadd
 155              	.LVL13:
 156 0012 0546     		mov	r5, r0
 157              	.LVL14:
 101:ctrl_pend.c   ****     lp->tf_w[0] = lp->tf_w[1] + lp->tf_b[1]*x - lp->tf_a[1]*y;
 158              		.loc 1 101 0
 159 0014 A76B     		ldr	r7, [r4, #56]	@ float
 160 0016 A168     		ldr	r1, [r4, #8]	@ float
 161 0018 3046     		mov	r0, r6
 162              	.LVL15:
 163 001a FFF7FEFF 		bl	__aeabi_fmul
 164              	.LVL16:
 165 001e 0146     		mov	r1, r0
 166 0020 3846     		mov	r0, r7
 167 0022 FFF7FEFF 		bl	__aeabi_fadd
 168              	.LVL17:
 169 0026 0746     		mov	r7, r0
 170 0028 216A     		ldr	r1, [r4, #32]	@ float
 171 002a 2846     		mov	r0, r5
 172 002c FFF7FEFF 		bl	__aeabi_fmul
 173              	.LVL18:
 174 0030 0146     		mov	r1, r0
 175 0032 3846     		mov	r0, r7
 176 0034 FFF7FEFF 		bl	__aeabi_fsub
 177              	.LVL19:
 178 0038 6063     		str	r0, [r4, #52]	@ float
 102:ctrl_pend.c   ****     lp->tf_w[1] = lp->tf_w[2] + lp->tf_b[2]*x - lp->tf_a[2]*y;
 179              		.loc 1 102 0
 180 003a E76B     		ldr	r7, [r4, #60]	@ float
 181 003c E168     		ldr	r1, [r4, #12]	@ float
 182 003e 3046     		mov	r0, r6
ARM GAS  C:\Users\user\AppData\Local\Temp\ccJOy7it.s 			page 6


 183 0040 FFF7FEFF 		bl	__aeabi_fmul
 184              	.LVL20:
 185 0044 0146     		mov	r1, r0
 186 0046 3846     		mov	r0, r7
 187 0048 FFF7FEFF 		bl	__aeabi_fadd
 188              	.LVL21:
 189 004c 0746     		mov	r7, r0
 190 004e 616A     		ldr	r1, [r4, #36]	@ float
 191 0050 2846     		mov	r0, r5
 192 0052 FFF7FEFF 		bl	__aeabi_fmul
 193              	.LVL22:
 194 0056 0146     		mov	r1, r0
 195 0058 3846     		mov	r0, r7
 196 005a FFF7FEFF 		bl	__aeabi_fsub
 197              	.LVL23:
 198 005e A063     		str	r0, [r4, #56]	@ float
 103:ctrl_pend.c   ****     lp->tf_w[2] = lp->tf_w[3] + lp->tf_b[3]*x - lp->tf_a[3]*y;
 199              		.loc 1 103 0
 200 0060 276C     		ldr	r7, [r4, #64]	@ float
 201 0062 2169     		ldr	r1, [r4, #16]	@ float
 202 0064 3046     		mov	r0, r6
 203 0066 FFF7FEFF 		bl	__aeabi_fmul
 204              	.LVL24:
 205 006a 0146     		mov	r1, r0
 206 006c 3846     		mov	r0, r7
 207 006e FFF7FEFF 		bl	__aeabi_fadd
 208              	.LVL25:
 209 0072 0746     		mov	r7, r0
 210 0074 A16A     		ldr	r1, [r4, #40]	@ float
 211 0076 2846     		mov	r0, r5
 212 0078 FFF7FEFF 		bl	__aeabi_fmul
 213              	.LVL26:
 214 007c 0146     		mov	r1, r0
 215 007e 3846     		mov	r0, r7
 216 0080 FFF7FEFF 		bl	__aeabi_fsub
 217              	.LVL27:
 218 0084 E063     		str	r0, [r4, #60]	@ float
 104:ctrl_pend.c   ****     lp->tf_w[3] = lp->tf_w[4] + lp->tf_b[4]*x - lp->tf_a[4]*y;
 219              		.loc 1 104 0
 220 0086 676C     		ldr	r7, [r4, #68]	@ float
 221 0088 6169     		ldr	r1, [r4, #20]	@ float
 222 008a 3046     		mov	r0, r6
 223 008c FFF7FEFF 		bl	__aeabi_fmul
 224              	.LVL28:
 225 0090 0146     		mov	r1, r0
 226 0092 3846     		mov	r0, r7
 227 0094 FFF7FEFF 		bl	__aeabi_fadd
 228              	.LVL29:
 229 0098 0746     		mov	r7, r0
 230 009a E16A     		ldr	r1, [r4, #44]	@ float
 231 009c 2846     		mov	r0, r5
 232 009e FFF7FEFF 		bl	__aeabi_fmul
 233              	.LVL30:
 234 00a2 0146     		mov	r1, r0
 235 00a4 3846     		mov	r0, r7
 236 00a6 FFF7FEFF 		bl	__aeabi_fsub
 237              	.LVL31:
ARM GAS  C:\Users\user\AppData\Local\Temp\ccJOy7it.s 			page 7


 238 00aa 2064     		str	r0, [r4, #64]	@ float
 105:ctrl_pend.c   ****     lp->tf_w[4] =                lp->tf_b[5]*x - lp->tf_a[5]*y;
 239              		.loc 1 105 0
 240 00ac A169     		ldr	r1, [r4, #24]	@ float
 241 00ae 3046     		mov	r0, r6
 242 00b0 FFF7FEFF 		bl	__aeabi_fmul
 243              	.LVL32:
 244 00b4 0646     		mov	r6, r0
 245              	.LVL33:
 246 00b6 216B     		ldr	r1, [r4, #48]	@ float
 247 00b8 2846     		mov	r0, r5
 248 00ba FFF7FEFF 		bl	__aeabi_fmul
 249              	.LVL34:
 250 00be 0146     		mov	r1, r0
 251 00c0 3046     		mov	r0, r6
 252 00c2 FFF7FEFF 		bl	__aeabi_fsub
 253              	.LVL35:
 254 00c6 6064     		str	r0, [r4, #68]	@ float
 106:ctrl_pend.c   ****     return y;
 107:ctrl_pend.c   **** }
 255              		.loc 1 107 0
 256 00c8 2846     		mov	r0, r5
 257 00ca F8BD     		pop	{r3, r4, r5, r6, r7, pc}
 258              		.cfi_endproc
 259              	.LFE67:
 260              		.size	tf_step, .-tf_step
 261              		.section	.text.ss_yhat,"ax",%progbits
 262              		.align	2
 263              		.thumb
 264              		.thumb_func
 265              		.type	ss_yhat, %function
 266              	ss_yhat:
 267              	.LFB68:
 108:ctrl_pend.c   **** 
 109:ctrl_pend.c   **** /* ============================================================
 110:ctrl_pend.c   ****    SS helpers (plain C, 2-state)
 111:ctrl_pend.c   ****    ============================================================ */
 112:ctrl_pend.c   **** /* ŷ = C*x + D*u */
 113:ctrl_pend.c   **** static float ss_yhat(CtrlLoop *lp, const float x[2], float u)
 114:ctrl_pend.c   **** {
 268              		.loc 1 114 0
 269              		.cfi_startproc
 270              		@ args = 0, pretend = 0, frame = 0
 271              		@ frame_needed = 0, uses_anonymous_args = 0
 272              	.LVL36:
 273 0000 F8B5     		push	{r3, r4, r5, r6, r7, lr}
 274              		.cfi_def_cfa_offset 24
 275              		.cfi_offset 3, -24
 276              		.cfi_offset 4, -20
 277              		.cfi_offset 5, -16
 278              		.cfi_offset 6, -12
 279              		.cfi_offset 7, -8
 280              		.cfi_offset 14, -4
 281 0002 0446     		mov	r4, r0
 282 0004 0D46     		mov	r5, r1
 283 0006 1646     		mov	r6, r2
 115:ctrl_pend.c   ****     return lp->C[0]*x[0] + lp->C[1]*x[1] + lp->D*u;
ARM GAS  C:\Users\user\AppData\Local\Temp\ccJOy7it.s 			page 8


 284              		.loc 1 115 0
 285 0008 0968     		ldr	r1, [r1]	@ float
 286              	.LVL37:
 287 000a 006E     		ldr	r0, [r0, #96]	@ float
 288              	.LVL38:
 289 000c FFF7FEFF 		bl	__aeabi_fmul
 290              	.LVL39:
 291 0010 0746     		mov	r7, r0
 292 0012 6968     		ldr	r1, [r5, #4]	@ float
 293 0014 606E     		ldr	r0, [r4, #100]	@ float
 294 0016 FFF7FEFF 		bl	__aeabi_fmul
 295              	.LVL40:
 296 001a 0146     		mov	r1, r0
 297 001c 3846     		mov	r0, r7
 298 001e FFF7FEFF 		bl	__aeabi_fadd
 299              	.LVL41:
 300 0022 0546     		mov	r5, r0
 301              	.LVL42:
 302 0024 3146     		mov	r1, r6
 303 0026 A06E     		ldr	r0, [r4, #104]	@ float
 304 0028 FFF7FEFF 		bl	__aeabi_fmul
 305              	.LVL43:
 306 002c 0146     		mov	r1, r0
 307 002e 2846     		mov	r0, r5
 308 0030 FFF7FEFF 		bl	__aeabi_fadd
 309              	.LVL44:
 116:ctrl_pend.c   **** }
 310              		.loc 1 116 0
 311 0034 F8BD     		pop	{r3, r4, r5, r6, r7, pc}
 312              		.cfi_endproc
 313              	.LFE68:
 314              		.size	ss_yhat, .-ss_yhat
 315 0036 00BF     		.section	.text.ss_predict,"ax",%progbits
 316              		.align	2
 317              		.thumb
 318              		.thumb_func
 319              		.type	ss_predict, %function
 320              	ss_predict:
 321              	.LFB69:
 117:ctrl_pend.c   **** 
 118:ctrl_pend.c   **** /* z = A*x + B*u */
 119:ctrl_pend.c   **** static void ss_predict(CtrlLoop *lp, const float x[2], float u, float z[2])
 120:ctrl_pend.c   **** {
 322              		.loc 1 120 0
 323              		.cfi_startproc
 324              		@ args = 0, pretend = 0, frame = 0
 325              		@ frame_needed = 0, uses_anonymous_args = 0
 326              	.LVL45:
 327 0000 2DE9F041 		push	{r4, r5, r6, r7, r8, lr}
 328              		.cfi_def_cfa_offset 24
 329              		.cfi_offset 4, -24
 330              		.cfi_offset 5, -20
 331              		.cfi_offset 6, -16
 332              		.cfi_offset 7, -12
 333              		.cfi_offset 8, -8
 334              		.cfi_offset 14, -4
 335 0004 0446     		mov	r4, r0
ARM GAS  C:\Users\user\AppData\Local\Temp\ccJOy7it.s 			page 9


 336 0006 0D46     		mov	r5, r1
 337 0008 1746     		mov	r7, r2
 338 000a 1E46     		mov	r6, r3
 121:ctrl_pend.c   ****     z[0] = lp->A[0]*x[0] + lp->A[1]*x[1] + lp->B[0]*u;
 339              		.loc 1 121 0
 340 000c 0968     		ldr	r1, [r1]	@ float
 341              	.LVL46:
 342 000e 806C     		ldr	r0, [r0, #72]	@ float
 343              	.LVL47:
 344 0010 FFF7FEFF 		bl	__aeabi_fmul
 345              	.LVL48:
 346 0014 8046     		mov	r8, r0
 347 0016 6968     		ldr	r1, [r5, #4]	@ float
 348 0018 E06C     		ldr	r0, [r4, #76]	@ float
 349 001a FFF7FEFF 		bl	__aeabi_fmul
 350              	.LVL49:
 351 001e 0146     		mov	r1, r0
 352 0020 4046     		mov	r0, r8
 353 0022 FFF7FEFF 		bl	__aeabi_fadd
 354              	.LVL50:
 355 0026 8046     		mov	r8, r0
 356 0028 3946     		mov	r1, r7
 357 002a A06D     		ldr	r0, [r4, #88]	@ float
 358 002c FFF7FEFF 		bl	__aeabi_fmul
 359              	.LVL51:
 360 0030 0146     		mov	r1, r0
 361 0032 4046     		mov	r0, r8
 362 0034 FFF7FEFF 		bl	__aeabi_fadd
 363              	.LVL52:
 364 0038 3060     		str	r0, [r6]	@ float
 122:ctrl_pend.c   ****     z[1] = lp->A[2]*x[0] + lp->A[3]*x[1] + lp->B[1]*u;
 365              		.loc 1 122 0
 366 003a 2968     		ldr	r1, [r5]	@ float
 367 003c 206D     		ldr	r0, [r4, #80]	@ float
 368 003e FFF7FEFF 		bl	__aeabi_fmul
 369              	.LVL53:
 370 0042 8046     		mov	r8, r0
 371 0044 6968     		ldr	r1, [r5, #4]	@ float
 372 0046 606D     		ldr	r0, [r4, #84]	@ float
 373 0048 FFF7FEFF 		bl	__aeabi_fmul
 374              	.LVL54:
 375 004c 0146     		mov	r1, r0
 376 004e 4046     		mov	r0, r8
 377 0050 FFF7FEFF 		bl	__aeabi_fadd
 378              	.LVL55:
 379 0054 0546     		mov	r5, r0
 380              	.LVL56:
 381 0056 E16D     		ldr	r1, [r4, #92]	@ float
 382 0058 3846     		mov	r0, r7
 383 005a FFF7FEFF 		bl	__aeabi_fmul
 384              	.LVL57:
 385 005e 0146     		mov	r1, r0
 386 0060 2846     		mov	r0, r5
 387 0062 FFF7FEFF 		bl	__aeabi_fadd
 388              	.LVL58:
 389 0066 7060     		str	r0, [r6, #4]	@ float
 390 0068 BDE8F081 		pop	{r4, r5, r6, r7, r8, pc}
ARM GAS  C:\Users\user\AppData\Local\Temp\ccJOy7it.s 			page 10


 391              		.cfi_endproc
 392              	.LFE69:
 393              		.size	ss_predict, .-ss_predict
 394              		.section	.text.ss_u_cmd,"ax",%progbits
 395              		.align	2
 396              		.thumb
 397              		.thumb_func
 398              		.type	ss_u_cmd, %function
 399              	ss_u_cmd:
 400              	.LFB70:
 123:ctrl_pend.c   **** }
 124:ctrl_pend.c   **** 
 125:ctrl_pend.c   **** /* u_cmd = −K*xhat + Kx*(vint or r) */
 126:ctrl_pend.c   **** static float ss_u_cmd(CtrlLoop *lp)
 127:ctrl_pend.c   **** {
 401              		.loc 1 127 0
 402              		.cfi_startproc
 403              		@ args = 0, pretend = 0, frame = 0
 404              		@ frame_needed = 0, uses_anonymous_args = 0
 405              	.LVL59:
 406 0000 70B5     		push	{r4, r5, r6, lr}
 407              		.cfi_def_cfa_offset 16
 408              		.cfi_offset 4, -16
 409              		.cfi_offset 5, -12
 410              		.cfi_offset 6, -8
 411              		.cfi_offset 14, -4
 412 0002 0446     		mov	r4, r0
 128:ctrl_pend.c   ****     float extra = mode_has_i(lp->mode) ? (lp->Kx * lp->vint)
 413              		.loc 1 128 0
 414 0004 0078     		ldrb	r0, [r0]	@ zero_extendqisi2
 415              	.LVL60:
 416 0006 FFF7FEFF 		bl	mode_has_i
 417              	.LVL61:
 129:ctrl_pend.c   ****                                        : (lp->Kx * lp->ref);
 418              		.loc 1 129 0
 419 000a 30B1     		cbz	r0, .L18
 420              		.loc 1 129 0 is_stmt 0 discriminator 1
 421 000c D4F89010 		ldr	r1, [r4, #144]	@ float
 422 0010 E06F     		ldr	r0, [r4, #124]	@ float
 423 0012 FFF7FEFF 		bl	__aeabi_fmul
 424              	.LVL62:
 425 0016 0546     		mov	r5, r0
 426 0018 05E0     		b	.L19
 427              	.L18:
 428              		.loc 1 129 0 discriminator 2
 429 001a D4F89410 		ldr	r1, [r4, #148]	@ float
 430 001e E06F     		ldr	r0, [r4, #124]	@ float
 431 0020 FFF7FEFF 		bl	__aeabi_fmul
 432              	.LVL63:
 433 0024 0546     		mov	r5, r0
 434              	.L19:
 435              	.LVL64:
 130:ctrl_pend.c   ****     return extra - (lp->K[0]*lp->xhat[0] + lp->K[1]*lp->xhat[1]);
 436              		.loc 1 130 0 is_stmt 1
 437 0026 D4F88010 		ldr	r1, [r4, #128]	@ float
 438 002a 606F     		ldr	r0, [r4, #116]	@ float
 439 002c FFF7FEFF 		bl	__aeabi_fmul
ARM GAS  C:\Users\user\AppData\Local\Temp\ccJOy7it.s 			page 11


 440              	.LVL65:
 441 0030 0646     		mov	r6, r0
 442 0032 D4F88410 		ldr	r1, [r4, #132]	@ float
 443 0036 A06F     		ldr	r0, [r4, #120]	@ float
 444 0038 FFF7FEFF 		bl	__aeabi_fmul
 445              	.LVL66:
 446 003c 0146     		mov	r1, r0
 447 003e 3046     		mov	r0, r6
 448 0040 FFF7FEFF 		bl	__aeabi_fadd
 449              	.LVL67:
 450 0044 0146     		mov	r1, r0
 451 0046 2846     		mov	r0, r5
 452 0048 FFF7FEFF 		bl	__aeabi_fsub
 453              	.LVL68:
 131:ctrl_pend.c   **** }
 454              		.loc 1 131 0
 455 004c 70BD     		pop	{r4, r5, r6, pc}
 456              		.cfi_endproc
 457              	.LFE70:
 458              		.size	ss_u_cmd, .-ss_u_cmd
 459 004e 00BF     		.section	.text.ss_obs_pred,"ax",%progbits
 460              		.align	2
 461              		.thumb
 462              		.thumb_func
 463              		.type	ss_obs_pred, %function
 464              	ss_obs_pred:
 465              	.LFB71:
 132:ctrl_pend.c   **** 
 133:ctrl_pend.c   **** /* Predictor observer update:
 134:ctrl_pend.c   ****    innov = y − ŷ(xhat, u_prev)
 135:ctrl_pend.c   ****    xhat ← A*xhat + B*u + L*innov                                */
 136:ctrl_pend.c   **** static void ss_obs_pred(CtrlLoop *lp, float y, float u_prev, float u)
 137:ctrl_pend.c   **** {
 466              		.loc 1 137 0
 467              		.cfi_startproc
 468              		@ args = 0, pretend = 0, frame = 8
 469              		@ frame_needed = 0, uses_anonymous_args = 0
 470              	.LVL69:
 471 0000 F0B5     		push	{r4, r5, r6, r7, lr}
 472              		.cfi_def_cfa_offset 20
 473              		.cfi_offset 4, -20
 474              		.cfi_offset 5, -16
 475              		.cfi_offset 6, -12
 476              		.cfi_offset 7, -8
 477              		.cfi_offset 14, -4
 478 0002 83B0     		sub	sp, sp, #12
 479              		.cfi_def_cfa_offset 32
 480 0004 0446     		mov	r4, r0
 481 0006 0D46     		mov	r5, r1
 482 0008 1F46     		mov	r7, r3
 138:ctrl_pend.c   ****     float innov = y - ss_yhat(lp, lp->xhat, u_prev);
 483              		.loc 1 138 0
 484 000a 00F18006 		add	r6, r0, #128
 485 000e 3146     		mov	r1, r6
 486              	.LVL70:
 487 0010 FFF7FEFF 		bl	ss_yhat
 488              	.LVL71:
ARM GAS  C:\Users\user\AppData\Local\Temp\ccJOy7it.s 			page 12


 489 0014 0146     		mov	r1, r0
 490 0016 2846     		mov	r0, r5
 491 0018 FFF7FEFF 		bl	__aeabi_fsub
 492              	.LVL72:
 493 001c 0546     		mov	r5, r0
 494              	.LVL73:
 139:ctrl_pend.c   ****     float z[2];
 140:ctrl_pend.c   ****     ss_predict(lp, lp->xhat, u, z);
 495              		.loc 1 140 0
 496 001e 6B46     		mov	r3, sp
 497 0020 3A46     		mov	r2, r7
 498 0022 3146     		mov	r1, r6
 499 0024 2046     		mov	r0, r4
 500              	.LVL74:
 501 0026 FFF7FEFF 		bl	ss_predict
 502              	.LVL75:
 141:ctrl_pend.c   ****     lp->xhat[0] = z[0] + lp->L[0]*innov;
 503              		.loc 1 141 0
 504 002a 009E     		ldr	r6, [sp]	@ float
 505 002c E16E     		ldr	r1, [r4, #108]	@ float
 506 002e 2846     		mov	r0, r5
 507 0030 FFF7FEFF 		bl	__aeabi_fmul
 508              	.LVL76:
 509 0034 0146     		mov	r1, r0
 510 0036 3046     		mov	r0, r6
 511 0038 FFF7FEFF 		bl	__aeabi_fadd
 512              	.LVL77:
 513 003c C4F88000 		str	r0, [r4, #128]	@ float
 142:ctrl_pend.c   ****     lp->xhat[1] = z[1] + lp->L[1]*innov;
 514              		.loc 1 142 0
 515 0040 019E     		ldr	r6, [sp, #4]	@ float
 516 0042 216F     		ldr	r1, [r4, #112]	@ float
 517 0044 2846     		mov	r0, r5
 518 0046 FFF7FEFF 		bl	__aeabi_fmul
 519              	.LVL78:
 520 004a 0146     		mov	r1, r0
 521 004c 3046     		mov	r0, r6
 522 004e FFF7FEFF 		bl	__aeabi_fadd
 523              	.LVL79:
 524 0052 C4F88400 		str	r0, [r4, #132]	@ float
 143:ctrl_pend.c   **** }
 525              		.loc 1 143 0
 526 0056 03B0     		add	sp, sp, #12
 527              		.cfi_def_cfa_offset 20
 528              		@ sp needed
 529 0058 F0BD     		pop	{r4, r5, r6, r7, pc}
 530              		.cfi_endproc
 531              	.LFE71:
 532              		.size	ss_obs_pred, .-ss_obs_pred
 533 005a 00BF     		.section	.text.ss_obs_act_correct,"ax",%progbits
 534              		.align	2
 535              		.thumb
 536              		.thumb_func
 537              		.type	ss_obs_act_correct, %function
 538              	ss_obs_act_correct:
 539              	.LFB72:
 144:ctrl_pend.c   **** 
ARM GAS  C:\Users\user\AppData\Local\Temp\ccJOy7it.s 			page 13


 145:ctrl_pend.c   **** /* Actual observer:
 146:ctrl_pend.c   ****    Correct: xhat ← zhat + L*(y − ŷ(zhat, u_prev))
 147:ctrl_pend.c   ****    Predict: zhat ← A*xhat + B*u                                 */
 148:ctrl_pend.c   **** static void ss_obs_act_correct(CtrlLoop *lp, float y, float u_prev)
 149:ctrl_pend.c   **** {
 540              		.loc 1 149 0
 541              		.cfi_startproc
 542              		@ args = 0, pretend = 0, frame = 0
 543              		@ frame_needed = 0, uses_anonymous_args = 0
 544              	.LVL80:
 545 0000 70B5     		push	{r4, r5, r6, lr}
 546              		.cfi_def_cfa_offset 16
 547              		.cfi_offset 4, -16
 548              		.cfi_offset 5, -12
 549              		.cfi_offset 6, -8
 550              		.cfi_offset 14, -4
 551 0002 0446     		mov	r4, r0
 552 0004 0D46     		mov	r5, r1
 150:ctrl_pend.c   ****     float innov = y - ss_yhat(lp, lp->zhat, u_prev);
 553              		.loc 1 150 0
 554 0006 00F18801 		add	r1, r0, #136
 555              	.LVL81:
 556 000a FFF7FEFF 		bl	ss_yhat
 557              	.LVL82:
 558 000e 0146     		mov	r1, r0
 559 0010 2846     		mov	r0, r5
 560 0012 FFF7FEFF 		bl	__aeabi_fsub
 561              	.LVL83:
 562 0016 0646     		mov	r6, r0
 563              	.LVL84:
 151:ctrl_pend.c   ****     lp->xhat[0] = lp->zhat[0] + lp->L[0]*innov;
 564              		.loc 1 151 0
 565 0018 D4F88850 		ldr	r5, [r4, #136]	@ float
 566              	.LVL85:
 567 001c E16E     		ldr	r1, [r4, #108]	@ float
 568 001e FFF7FEFF 		bl	__aeabi_fmul
 569              	.LVL86:
 570 0022 0146     		mov	r1, r0
 571 0024 2846     		mov	r0, r5
 572 0026 FFF7FEFF 		bl	__aeabi_fadd
 573              	.LVL87:
 574 002a C4F88000 		str	r0, [r4, #128]	@ float
 152:ctrl_pend.c   ****     lp->xhat[1] = lp->zhat[1] + lp->L[1]*innov;
 575              		.loc 1 152 0
 576 002e D4F88C50 		ldr	r5, [r4, #140]	@ float
 577 0032 216F     		ldr	r1, [r4, #112]	@ float
 578 0034 3046     		mov	r0, r6
 579 0036 FFF7FEFF 		bl	__aeabi_fmul
 580              	.LVL88:
 581 003a 0146     		mov	r1, r0
 582 003c 2846     		mov	r0, r5
 583 003e FFF7FEFF 		bl	__aeabi_fadd
 584              	.LVL89:
 585 0042 C4F88400 		str	r0, [r4, #132]	@ float
 586 0046 70BD     		pop	{r4, r5, r6, pc}
 587              		.cfi_endproc
 588              	.LFE72:
ARM GAS  C:\Users\user\AppData\Local\Temp\ccJOy7it.s 			page 14


 589              		.size	ss_obs_act_correct, .-ss_obs_act_correct
 590              		.section	.text.ss_obs_act_predict,"ax",%progbits
 591              		.align	2
 592              		.thumb
 593              		.thumb_func
 594              		.type	ss_obs_act_predict, %function
 595              	ss_obs_act_predict:
 596              	.LFB73:
 153:ctrl_pend.c   **** }
 154:ctrl_pend.c   **** 
 155:ctrl_pend.c   **** static void ss_obs_act_predict(CtrlLoop *lp, float u)
 156:ctrl_pend.c   **** {
 597              		.loc 1 156 0
 598              		.cfi_startproc
 599              		@ args = 0, pretend = 0, frame = 8
 600              		@ frame_needed = 0, uses_anonymous_args = 0
 601              	.LVL90:
 602 0000 10B5     		push	{r4, lr}
 603              		.cfi_def_cfa_offset 8
 604              		.cfi_offset 4, -8
 605              		.cfi_offset 14, -4
 606 0002 82B0     		sub	sp, sp, #8
 607              		.cfi_def_cfa_offset 16
 608 0004 0446     		mov	r4, r0
 157:ctrl_pend.c   ****     float z[2];
 158:ctrl_pend.c   ****     ss_predict(lp, lp->xhat, u, z);
 609              		.loc 1 158 0
 610 0006 6B46     		mov	r3, sp
 611 0008 0A46     		mov	r2, r1
 612 000a 00F18001 		add	r1, r0, #128
 613              	.LVL91:
 614 000e FFF7FEFF 		bl	ss_predict
 615              	.LVL92:
 159:ctrl_pend.c   ****     lp->zhat[0] = z[0];
 616              		.loc 1 159 0
 617 0012 009B     		ldr	r3, [sp]	@ float
 618 0014 C4F88830 		str	r3, [r4, #136]	@ float
 160:ctrl_pend.c   ****     lp->zhat[1] = z[1];
 619              		.loc 1 160 0
 620 0018 019B     		ldr	r3, [sp, #4]	@ float
 621 001a C4F88C30 		str	r3, [r4, #140]	@ float
 161:ctrl_pend.c   **** }
 622              		.loc 1 161 0
 623 001e 02B0     		add	sp, sp, #8
 624              		.cfi_def_cfa_offset 8
 625              		@ sp needed
 626 0020 10BD     		pop	{r4, pc}
 627              		.cfi_endproc
 628              	.LFE73:
 629              		.size	ss_obs_act_predict, .-ss_obs_act_predict
 630 0022 00BF     		.section	.text.run_step,"ax",%progbits
 631              		.align	2
 632              		.thumb
 633              		.thumb_func
 634              		.type	run_step, %function
 635              	run_step:
 636              	.LFB74:
ARM GAS  C:\Users\user\AppData\Local\Temp\ccJOy7it.s 			page 15


 162:ctrl_pend.c   **** 
 163:ctrl_pend.c   **** /* ============================================================
 164:ctrl_pend.c   ****    Single loop step → returns raw output (unsaturated)
 165:ctrl_pend.c   ****    ============================================================ */
 166:ctrl_pend.c   **** static float run_step(CtrlLoop *lp, float y)
 167:ctrl_pend.c   **** {
 637              		.loc 1 167 0
 638              		.cfi_startproc
 639              		@ args = 0, pretend = 0, frame = 0
 640              		@ frame_needed = 0, uses_anonymous_args = 0
 641              	.LVL93:
 642 0000 F8B5     		push	{r3, r4, r5, r6, r7, lr}
 643              		.cfi_def_cfa_offset 24
 644              		.cfi_offset 3, -24
 645              		.cfi_offset 4, -20
 646              		.cfi_offset 5, -16
 647              		.cfi_offset 6, -12
 648              		.cfi_offset 7, -8
 649              		.cfi_offset 14, -4
 650 0002 0446     		mov	r4, r0
 651 0004 0E46     		mov	r6, r1
 652              	.LVL94:
 168:ctrl_pend.c   ****     float u      = 0.0f;
 169:ctrl_pend.c   ****     float u_prev = lp->u_out;
 653              		.loc 1 169 0
 654 0006 D0F89870 		ldr	r7, [r0, #152]	@ float
 655              	.LVL95:
 170:ctrl_pend.c   **** 
 171:ctrl_pend.c   ****     switch (lp->mode)
 656              		.loc 1 171 0
 657 000a 0078     		ldrb	r0, [r0]	@ zero_extendqisi2
 658              	.LVL96:
 659 000c 0528     		cmp	r0, #5
 660 000e 50D8     		bhi	.L36
 661 0010 DFE800F0 		tbb	[pc, r0]
 662              	.L30:
 663 0014 03       		.byte	(.L29-.L30)/2
 664 0015 0D       		.byte	(.L31-.L30)/2
 665 0016 2B       		.byte	(.L32-.L30)/2
 666 0017 0D       		.byte	(.L31-.L30)/2
 667 0018 2B       		.byte	(.L32-.L30)/2
 668 0019 4C       		.byte	(.L33-.L30)/2
 669              		.p2align 1
 670              	.L29:
 172:ctrl_pend.c   ****     {
 173:ctrl_pend.c   ****         case CTRL_MODE_TF:
 174:ctrl_pend.c   ****             u = tf_step(lp, lp->ref - y);
 671              		.loc 1 174 0
 672 001a D4F89400 		ldr	r0, [r4, #148]	@ float
 673 001e FFF7FEFF 		bl	__aeabi_fsub
 674              	.LVL97:
 675 0022 0146     		mov	r1, r0
 676 0024 2046     		mov	r0, r4
 677 0026 FFF7FEFF 		bl	tf_step
 678              	.LVL98:
 679 002a 0546     		mov	r5, r0
 680              	.LVL99:
ARM GAS  C:\Users\user\AppData\Local\Temp\ccJOy7it.s 			page 16


 175:ctrl_pend.c   ****             break;
 681              		.loc 1 175 0
 682 002c 42E0     		b	.L28
 683              	.LVL100:
 684              	.L31:
 176:ctrl_pend.c   **** 
 177:ctrl_pend.c   ****         case CTRL_MODE_SS_PRED_NOI:
 178:ctrl_pend.c   ****         case CTRL_MODE_SS_PRED_I:
 179:ctrl_pend.c   ****             if (mode_has_i(lp->mode)) lp->vint += (lp->ref - y) * g_Ts;
 685              		.loc 1 179 0
 686 002e FFF7FEFF 		bl	mode_has_i
 687              	.LVL101:
 688 0032 78B1     		cbz	r0, .L34
 689              		.loc 1 179 0 is_stmt 0 discriminator 1
 690 0034 3146     		mov	r1, r6
 691 0036 D4F89400 		ldr	r0, [r4, #148]	@ float
 692 003a FFF7FEFF 		bl	__aeabi_fsub
 693              	.LVL102:
 694 003e 1F4B     		ldr	r3, .L38
 695 0040 1968     		ldr	r1, [r3]	@ float
 696 0042 FFF7FEFF 		bl	__aeabi_fmul
 697              	.LVL103:
 698 0046 0146     		mov	r1, r0
 699 0048 D4F89000 		ldr	r0, [r4, #144]	@ float
 700 004c FFF7FEFF 		bl	__aeabi_fadd
 701              	.LVL104:
 702 0050 C4F89000 		str	r0, [r4, #144]	@ float
 703              	.L34:
 180:ctrl_pend.c   ****             u = ss_u_cmd(lp);
 704              		.loc 1 180 0 is_stmt 1
 705 0054 2046     		mov	r0, r4
 706 0056 FFF7FEFF 		bl	ss_u_cmd
 707              	.LVL105:
 708 005a 0546     		mov	r5, r0
 709              	.LVL106:
 181:ctrl_pend.c   ****             ss_obs_pred(lp, y, u_prev, u);
 710              		.loc 1 181 0
 711 005c 0346     		mov	r3, r0
 712 005e 3A46     		mov	r2, r7
 713 0060 3146     		mov	r1, r6
 714 0062 2046     		mov	r0, r4
 715              	.LVL107:
 716 0064 FFF7FEFF 		bl	ss_obs_pred
 717              	.LVL108:
 182:ctrl_pend.c   ****             break;
 718              		.loc 1 182 0
 719 0068 24E0     		b	.L28
 720              	.LVL109:
 721              	.L32:
 183:ctrl_pend.c   **** 
 184:ctrl_pend.c   ****         case CTRL_MODE_SS_ACT_NOI:
 185:ctrl_pend.c   ****         case CTRL_MODE_SS_ACT_I:
 186:ctrl_pend.c   ****             ss_obs_act_correct(lp, y, u_prev);
 722              		.loc 1 186 0
 723 006a 3A46     		mov	r2, r7
 724 006c 2046     		mov	r0, r4
 725 006e FFF7FEFF 		bl	ss_obs_act_correct
ARM GAS  C:\Users\user\AppData\Local\Temp\ccJOy7it.s 			page 17


 726              	.LVL110:
 187:ctrl_pend.c   ****             if (mode_has_i(lp->mode)) lp->vint += (lp->ref - y) * g_Ts;
 727              		.loc 1 187 0
 728 0072 2078     		ldrb	r0, [r4]	@ zero_extendqisi2
 729 0074 FFF7FEFF 		bl	mode_has_i
 730              	.LVL111:
 731 0078 78B1     		cbz	r0, .L35
 732              		.loc 1 187 0 is_stmt 0 discriminator 1
 733 007a 3146     		mov	r1, r6
 734 007c D4F89400 		ldr	r0, [r4, #148]	@ float
 735 0080 FFF7FEFF 		bl	__aeabi_fsub
 736              	.LVL112:
 737 0084 0D4B     		ldr	r3, .L38
 738 0086 1968     		ldr	r1, [r3]	@ float
 739 0088 FFF7FEFF 		bl	__aeabi_fmul
 740              	.LVL113:
 741 008c 0146     		mov	r1, r0
 742 008e D4F89000 		ldr	r0, [r4, #144]	@ float
 743 0092 FFF7FEFF 		bl	__aeabi_fadd
 744              	.LVL114:
 745 0096 C4F89000 		str	r0, [r4, #144]	@ float
 746              	.L35:
 188:ctrl_pend.c   ****             u = ss_u_cmd(lp);
 747              		.loc 1 188 0 is_stmt 1
 748 009a 2046     		mov	r0, r4
 749 009c FFF7FEFF 		bl	ss_u_cmd
 750              	.LVL115:
 751 00a0 0546     		mov	r5, r0
 752              	.LVL116:
 189:ctrl_pend.c   ****             ss_obs_act_predict(lp, u);
 753              		.loc 1 189 0
 754 00a2 0146     		mov	r1, r0
 755 00a4 2046     		mov	r0, r4
 756              	.LVL117:
 757 00a6 FFF7FEFF 		bl	ss_obs_act_predict
 758              	.LVL118:
 190:ctrl_pend.c   ****             break;
 759              		.loc 1 190 0
 760 00aa 03E0     		b	.L28
 761              	.LVL119:
 762              	.L33:
 191:ctrl_pend.c   **** 
 192:ctrl_pend.c   ****         case CTRL_MODE_OPEN_LOOP:
 193:ctrl_pend.c   ****             u = lp->ref;    /* output = reference directly */
 763              		.loc 1 193 0
 764 00ac D4F89450 		ldr	r5, [r4, #148]	@ float
 765              	.LVL120:
 194:ctrl_pend.c   ****             break;
 766              		.loc 1 194 0
 767 00b0 00E0     		b	.L28
 768              	.LVL121:
 769              	.L36:
 195:ctrl_pend.c   **** 
 196:ctrl_pend.c   ****         default:            /* CTRL_MODE_OFF */
 197:ctrl_pend.c   ****             u = 0.0f;
 770              		.loc 1 197 0
 771 00b2 0025     		movs	r5, #0
ARM GAS  C:\Users\user\AppData\Local\Temp\ccJOy7it.s 			page 18


 772              	.LVL122:
 773              	.L28:
 198:ctrl_pend.c   ****             break;
 199:ctrl_pend.c   ****     }
 200:ctrl_pend.c   **** 
 201:ctrl_pend.c   ****     lp->u_out = u;
 774              		.loc 1 201 0
 775 00b4 C4F89850 		str	r5, [r4, #152]	@ float
 202:ctrl_pend.c   ****     return u;
 203:ctrl_pend.c   **** }
 776              		.loc 1 203 0
 777 00b8 2846     		mov	r0, r5
 778 00ba F8BD     		pop	{r3, r4, r5, r6, r7, pc}
 779              	.LVL123:
 780              	.L39:
 781              		.align	2
 782              	.L38:
 783 00bc 00000000 		.word	.LANCHOR0
 784              		.cfi_endproc
 785              	.LFE74:
 786              		.size	run_step, .-run_step
 787              		.section	.text.ctrl_init,"ax",%progbits
 788              		.align	2
 789              		.global	ctrl_init
 790              		.thumb
 791              		.thumb_func
 792              		.type	ctrl_init, %function
 793              	ctrl_init:
 794              	.LFB75:
 204:ctrl_pend.c   **** 
 205:ctrl_pend.c   **** /* ============================================================
 206:ctrl_pend.c   ****    ctrl_init()
 207:ctrl_pend.c   ****    ============================================================ */
 208:ctrl_pend.c   **** void ctrl_init(void)
 209:ctrl_pend.c   **** {
 795              		.loc 1 209 0
 796              		.cfi_startproc
 797              		@ args = 0, pretend = 0, frame = 0
 798              		@ frame_needed = 0, uses_anonymous_args = 0
 799 0000 10B5     		push	{r4, lr}
 800              		.cfi_def_cfa_offset 8
 801              		.cfi_offset 4, -8
 802              		.cfi_offset 14, -4
 210:ctrl_pend.c   ****     uint8 p;
 211:ctrl_pend.c   ****     memset(g_lp, 0, sizeof(g_lp));
 803              		.loc 1 211 0
 804 0002 4FF4A072 		mov	r2, #320
 805 0006 0021     		movs	r1, #0
 806 0008 0C48     		ldr	r0, .L44
 807 000a FFF7FEFF 		bl	memset
 808              	.LVL124:
 212:ctrl_pend.c   ****     for (p = 0u; p < PLANT_COUNT; p++) {
 809              		.loc 1 212 0
 810 000e 0023     		movs	r3, #0
 811 0010 0BE0     		b	.L41
 812              	.LVL125:
 813              	.L42:
ARM GAS  C:\Users\user\AppData\Local\Temp\ccJOy7it.s 			page 19


 213:ctrl_pend.c   ****         g_lp[p].mode = CTRL_MODE_OFF;
 814              		.loc 1 213 0 discriminator 3
 815 0012 0A48     		ldr	r0, .L44
 816 0014 9A00     		lsls	r2, r3, #2
 817 0016 D418     		adds	r4, r2, r3
 818 0018 6101     		lsls	r1, r4, #5
 819 001a 0624     		movs	r4, #6
 820 001c 4454     		strb	r4, [r0, r1]
 214:ctrl_pend.c   ****         g_lp[p].N    = 1u;
 821              		.loc 1 214 0 discriminator 3
 822 001e 0144     		add	r1, r1, r0
 823 0020 0122     		movs	r2, #1
 824 0022 A1F89C20 		strh	r2, [r1, #156]	@ movhi
 212:ctrl_pend.c   ****     for (p = 0u; p < PLANT_COUNT; p++) {
 825              		.loc 1 212 0 discriminator 3
 826 0026 1344     		add	r3, r3, r2
 827              	.LVL126:
 828 0028 DBB2     		uxtb	r3, r3
 829              	.LVL127:
 830              	.L41:
 212:ctrl_pend.c   ****     for (p = 0u; p < PLANT_COUNT; p++) {
 831              		.loc 1 212 0 is_stmt 0 discriminator 1
 832 002a 012B     		cmp	r3, #1
 833 002c F1D9     		bls	.L42
 215:ctrl_pend.c   ****     }
 216:ctrl_pend.c   ****     g_running           = 0u;
 217:ctrl_pend.c   ****     ctrl_telem_ready    = 0u;
 834              		.loc 1 217 0 is_stmt 1
 835 002e 034B     		ldr	r3, .L44
 836              	.LVL128:
 837 0030 0022     		movs	r2, #0
 838 0032 83F84021 		strb	r2, [r3, #320]
 218:ctrl_pend.c   ****     ctrl_period_pending = 0u;
 839              		.loc 1 218 0
 840 0036 83F84121 		strb	r2, [r3, #321]
 841 003a 10BD     		pop	{r4, pc}
 842              	.L45:
 843              		.align	2
 844              	.L44:
 845 003c 00000000 		.word	.LANCHOR1
 846              		.cfi_endproc
 847              	.LFE75:
 848              		.size	ctrl_init, .-ctrl_init
 849              		.section	.text.ctrl_set_mode,"ax",%progbits
 850              		.align	2
 851              		.global	ctrl_set_mode
 852              		.thumb
 853              		.thumb_func
 854              		.type	ctrl_set_mode, %function
 855              	ctrl_set_mode:
 856              	.LFB76:
 219:ctrl_pend.c   **** }
 220:ctrl_pend.c   **** 
 221:ctrl_pend.c   **** /* ============================================================
 222:ctrl_pend.c   ****    ctrl_set_mode()
 223:ctrl_pend.c   ****    ============================================================ */
 224:ctrl_pend.c   **** void ctrl_set_mode(uint8 plant_id, uint8 mode)
ARM GAS  C:\Users\user\AppData\Local\Temp\ccJOy7it.s 			page 20


 225:ctrl_pend.c   **** {
 857              		.loc 1 225 0
 858              		.cfi_startproc
 859              		@ args = 0, pretend = 0, frame = 0
 860              		@ frame_needed = 0, uses_anonymous_args = 0
 861              		@ link register save eliminated.
 862              	.LVL129:
 226:ctrl_pend.c   ****     if (plant_id >= PLANT_COUNT) return;
 863              		.loc 1 226 0
 864 0000 0128     		cmp	r0, #1
 865 0002 07D8     		bhi	.L46
 227:ctrl_pend.c   ****     if (mode > CTRL_MODE_OFF) mode = CTRL_MODE_OFF;
 866              		.loc 1 227 0
 867 0004 0629     		cmp	r1, #6
 868 0006 00D9     		bls	.L48
 869 0008 0621     		movs	r1, #6
 870              	.LVL130:
 871              	.L48:
 228:ctrl_pend.c   ****     g_lp[plant_id].mode = mode;
 872              		.loc 1 228 0
 873 000a 00EB8000 		add	r0, r0, r0, lsl #2
 874              	.LVL131:
 875 000e 4301     		lsls	r3, r0, #5
 876 0010 014A     		ldr	r2, .L50
 877 0012 D154     		strb	r1, [r2, r3]
 878              	.L46:
 879 0014 7047     		bx	lr
 880              	.L51:
 881 0016 00BF     		.align	2
 882              	.L50:
 883 0018 00000000 		.word	.LANCHOR1
 884              		.cfi_endproc
 885              	.LFE76:
 886              		.size	ctrl_set_mode, .-ctrl_set_mode
 887              		.global	__aeabi_f2uiz
 888              		.global	__aeabi_fcmple
 889              		.global	__aeabi_fdiv
 890              		.global	__aeabi_fcmpeq
 891              		.section	.text.ctrl_apply_coeffs,"ax",%progbits
 892              		.align	2
 893              		.global	ctrl_apply_coeffs
 894              		.thumb
 895              		.thumb_func
 896              		.type	ctrl_apply_coeffs, %function
 897              	ctrl_apply_coeffs:
 898              	.LFB77:
 229:ctrl_pend.c   **** }
 230:ctrl_pend.c   **** 
 231:ctrl_pend.c   **** /* ============================================================
 232:ctrl_pend.c   ****    ctrl_apply_coeffs()
 233:ctrl_pend.c   ****    Parses 25 floats into the relevant controller state.
 234:ctrl_pend.c   ****    Mode MUST be set before calling this.
 235:ctrl_pend.c   ****    ============================================================ */
 236:ctrl_pend.c   **** void ctrl_apply_coeffs(uint8 plant_id, const float* c, uint16 n)
 237:ctrl_pend.c   **** {
 899              		.loc 1 237 0
 900              		.cfi_startproc
ARM GAS  C:\Users\user\AppData\Local\Temp\ccJOy7it.s 			page 21


 901              		@ args = 0, pretend = 0, frame = 0
 902              		@ frame_needed = 0, uses_anonymous_args = 0
 903              	.LVL132:
 238:ctrl_pend.c   ****     if (plant_id >= PLANT_COUNT) return;
 904              		.loc 1 238 0
 905 0000 0128     		cmp	r0, #1
 906 0002 00F2EA80 		bhi	.L77
 239:ctrl_pend.c   ****     if (!c || n < 16u) return;
 907              		.loc 1 239 0
 908 0006 0029     		cmp	r1, #0
 909 0008 00F0E780 		beq	.L77
 910              		.loc 1 239 0 is_stmt 0 discriminator 1
 911 000c 0F2A     		cmp	r2, #15
 912 000e 40F2E480 		bls	.L77
 237:ctrl_pend.c   ****     if (plant_id >= PLANT_COUNT) return;
 913              		.loc 1 237 0 is_stmt 1
 914 0012 2DE9F041 		push	{r4, r5, r6, r7, r8, lr}
 915              		.cfi_def_cfa_offset 24
 916              		.cfi_offset 4, -24
 917              		.cfi_offset 5, -20
 918              		.cfi_offset 6, -16
 919              		.cfi_offset 7, -12
 920              		.cfi_offset 8, -8
 921              		.cfi_offset 14, -4
 922 0016 0D46     		mov	r5, r1
 923 0018 0446     		mov	r4, r0
 240:ctrl_pend.c   **** 
 241:ctrl_pend.c   ****     CtrlLoop *lp = &g_lp[plant_id];
 924              		.loc 1 241 0
 925 001a 0646     		mov	r6, r0
 926              	.LVL133:
 927              	.LBB2:
 242:ctrl_pend.c   **** 
 243:ctrl_pend.c   ****     /* --- Always parse N and Fs --- */
 244:ctrl_pend.c   ****     {
 245:ctrl_pend.c   ****         uint32 Nv = (uint32)(c[14] + 0.5f);
 928              		.loc 1 245 0
 929 001c 4FF07C51 		mov	r1, #1056964608
 930              	.LVL134:
 931 0020 A86B     		ldr	r0, [r5, #56]	@ float
 932              	.LVL135:
 933 0022 FFF7FEFF 		bl	__aeabi_fadd
 934              	.LVL136:
 935 0026 FFF7FEFF 		bl	__aeabi_f2uiz
 936              	.LVL137:
 246:ctrl_pend.c   ****         if (Nv < 1u) Nv = 1u;
 937              		.loc 1 246 0
 938 002a 0146     		mov	r1, r0
 939 002c 00B9     		cbnz	r0, .L54
 940 002e 0121     		movs	r1, #1
 941              	.L54:
 942              	.LVL138:
 247:ctrl_pend.c   ****         lp->N = (uint16)(Nv & 0xFFFFu);
 943              		.loc 1 247 0
 944 0030 04EB8402 		add	r2, r4, r4, lsl #2
 945 0034 5301     		lsls	r3, r2, #5
 946 0036 694A     		ldr	r2, .L78
ARM GAS  C:\Users\user\AppData\Local\Temp\ccJOy7it.s 			page 22


 947 0038 1344     		add	r3, r3, r2
 948 003a A3F89C10 		strh	r1, [r3, #156]	@ movhi
 248:ctrl_pend.c   **** 
 249:ctrl_pend.c   ****         float fs = c[15];
 949              		.loc 1 249 0
 950 003e EF6B     		ldr	r7, [r5, #60]	@ float
 951              	.LVL139:
 250:ctrl_pend.c   ****         if (fs > 0.5f && fs <= 10000.0f) {
 952              		.loc 1 250 0
 953 0040 4FF07C51 		mov	r1, #1056964608
 954              	.LVL140:
 955 0044 3846     		mov	r0, r7
 956 0046 FFF7FEFF 		bl	__aeabi_fcmpgt
 957              	.LVL141:
 958 004a D8B1     		cbz	r0, .L55
 959              		.loc 1 250 0 is_stmt 0 discriminator 1
 960 004c 6449     		ldr	r1, .L78+4
 961 004e 3846     		mov	r0, r7
 962 0050 FFF7FEFF 		bl	__aeabi_fcmple
 963              	.LVL142:
 964 0054 B0B1     		cbz	r0, .L55
 965              	.LBB3:
 251:ctrl_pend.c   ****             g_Ts = 1.0f / fs;
 966              		.loc 1 251 0 is_stmt 1
 967 0056 3946     		mov	r1, r7
 968 0058 4FF07E50 		mov	r0, #1065353216
 969 005c FFF7FEFF 		bl	__aeabi_fdiv
 970              	.LVL143:
 971 0060 604B     		ldr	r3, .L78+8
 972 0062 1860     		str	r0, [r3]	@ float
 252:ctrl_pend.c   ****             uint32 period = (uint32)((float)TIMER_CLOCK_HZ / fs);
 973              		.loc 1 252 0
 974 0064 3946     		mov	r1, r7
 975 0066 6048     		ldr	r0, .L78+12
 976 0068 FFF7FEFF 		bl	__aeabi_fdiv
 977              	.LVL144:
 978 006c FFF7FEFF 		bl	__aeabi_f2uiz
 979              	.LVL145:
 253:ctrl_pend.c   ****             if (period < 2u) period = 2u;
 980              		.loc 1 253 0
 981 0070 0128     		cmp	r0, #1
 982 0072 00D8     		bhi	.L58
 983 0074 0220     		movs	r0, #2
 984              	.LVL146:
 985              	.L58:
 254:ctrl_pend.c   ****             ctrl_period_ticks   = period - 1u;
 986              		.loc 1 254 0
 987 0076 0138     		subs	r0, r0, #1
 988              	.LVL147:
 989 0078 584B     		ldr	r3, .L78
 990 007a C3F84401 		str	r0, [r3, #324]
 255:ctrl_pend.c   ****             ctrl_period_pending = 1u;
 991              		.loc 1 255 0
 992 007e 0122     		movs	r2, #1
 993 0080 83F84121 		strb	r2, [r3, #321]
 994              	.LVL148:
 995              	.L55:
ARM GAS  C:\Users\user\AppData\Local\Temp\ccJOy7it.s 			page 23


 996              	.LBE3:
 997              	.LBE2:
 256:ctrl_pend.c   ****         }
 257:ctrl_pend.c   ****     }
 258:ctrl_pend.c   **** 
 259:ctrl_pend.c   ****     /* --- TF coefficients --- */
 260:ctrl_pend.c   ****     if (lp->mode == CTRL_MODE_TF)
 998              		.loc 1 260 0
 999 0084 04EB8402 		add	r2, r4, r4, lsl #2
 1000 0088 5301     		lsls	r3, r2, #5
 1001 008a 544A     		ldr	r2, .L78
 1002 008c D05C     		ldrb	r0, [r2, r3]	@ zero_extendqisi2
 1003 008e A0B1     		cbz	r0, .L70
 1004 0090 69E0     		b	.L75
 1005              	.LVL149:
 1006              	.L61:
 1007              	.LBB4:
 261:ctrl_pend.c   ****     {
 262:ctrl_pend.c   ****         uint8 i;
 263:ctrl_pend.c   ****         for (i = 0u; i < 6u; i++) {
 264:ctrl_pend.c   ****             lp->tf_b[i] = c[i];
 1008              		.loc 1 264 0 discriminator 3
 1009 0092 55F82370 		ldr	r7, [r5, r3, lsl #2]	@ float
 1010 0096 5149     		ldr	r1, .L78
 1011 0098 B000     		lsls	r0, r6, #2
 1012 009a 3044     		add	r0, r0, r6
 1013 009c C200     		lsls	r2, r0, #3
 1014 009e 1A44     		add	r2, r2, r3
 1015 00a0 01EB8200 		add	r0, r1, r2, lsl #2
 1016 00a4 4760     		str	r7, [r0, #4]	@ float
 265:ctrl_pend.c   ****             lp->tf_a[i] = c[i + 6u];
 1017              		.loc 1 265 0 discriminator 3
 1018 00a6 981D     		adds	r0, r3, #6
 1019 00a8 55F82000 		ldr	r0, [r5, r0, lsl #2]	@ float
 1020 00ac 0632     		adds	r2, r2, #6
 1021 00ae 01EB8202 		add	r2, r1, r2, lsl #2
 1022 00b2 5060     		str	r0, [r2, #4]	@ float
 263:ctrl_pend.c   ****             lp->tf_b[i] = c[i];
 1023              		.loc 1 263 0 discriminator 3
 1024 00b4 0133     		adds	r3, r3, #1
 1025              	.LVL150:
 1026 00b6 DBB2     		uxtb	r3, r3
 1027              	.LVL151:
 1028 00b8 00E0     		b	.L59
 1029              	.LVL152:
 1030              	.L70:
 1031              	.LBE4:
 1032 00ba 0023     		movs	r3, #0
 1033              	.LVL153:
 1034              	.L59:
 1035              	.LBB7:
 263:ctrl_pend.c   ****             lp->tf_b[i] = c[i];
 1036              		.loc 1 263 0 is_stmt 0 discriminator 1
 1037 00bc 052B     		cmp	r3, #5
 1038 00be E8D9     		bls	.L61
 266:ctrl_pend.c   ****         }
 267:ctrl_pend.c   ****         /* normalise by a[0] */
ARM GAS  C:\Users\user\AppData\Local\Temp\ccJOy7it.s 			page 24


 268:ctrl_pend.c   ****         float a0 = lp->tf_a[0];
 1039              		.loc 1 268 0 is_stmt 1
 1040 00c0 04EB8402 		add	r2, r4, r4, lsl #2
 1041 00c4 5301     		lsls	r3, r2, #5
 1042              	.LVL154:
 1043 00c6 454A     		ldr	r2, .L78
 1044 00c8 1344     		add	r3, r3, r2
 1045 00ca DF69     		ldr	r7, [r3, #28]	@ float
 1046              	.LVL155:
 269:ctrl_pend.c   ****         if (a0 != 0.0f && a0 != 1.0f) {
 1047              		.loc 1 269 0
 1048 00cc 0021     		movs	r1, #0
 1049 00ce 3846     		mov	r0, r7
 1050 00d0 FFF7FEFF 		bl	__aeabi_fcmpeq
 1051              	.LVL156:
 1052 00d4 0028     		cmp	r0, #0
 1053 00d6 38D1     		bne	.L62
 1054              		.loc 1 269 0 is_stmt 0 discriminator 1
 1055 00d8 4FF07E51 		mov	r1, #1065353216
 1056 00dc 3846     		mov	r0, r7
 1057 00de FFF7FEFF 		bl	__aeabi_fcmpeq
 1058              	.LVL157:
 1059 00e2 90B1     		cbz	r0, .L71
 1060 00e4 31E0     		b	.L62
 1061              	.LVL158:
 1062              	.L65:
 1063              	.LBB5:
 270:ctrl_pend.c   ****             uint8 j;
 271:ctrl_pend.c   ****             for (j = 0u; j < 6u; j++) lp->tf_b[j] /= a0;
 1064              		.loc 1 271 0 is_stmt 1 discriminator 3
 1065 00e6 B300     		lsls	r3, r6, #2
 1066 00e8 3344     		add	r3, r3, r6
 1067 00ea 4FEAC308 		lsl	r8, r3, #3
 1068 00ee A844     		add	r8, r8, r5
 1069 00f0 3A4B     		ldr	r3, .L78
 1070 00f2 03EB8808 		add	r8, r3, r8, lsl #2
 1071 00f6 3946     		mov	r1, r7
 1072 00f8 D8F80400 		ldr	r0, [r8, #4]	@ float
 1073 00fc FFF7FEFF 		bl	__aeabi_fdiv
 1074              	.LVL159:
 1075 0100 C8F80400 		str	r0, [r8, #4]	@ float
 1076 0104 0135     		adds	r5, r5, #1
 1077              	.LVL160:
 1078 0106 EDB2     		uxtb	r5, r5
 1079              	.LVL161:
 1080 0108 00E0     		b	.L64
 1081              	.LVL162:
 1082              	.L71:
 1083              	.LBE5:
 1084 010a 0025     		movs	r5, #0
 1085              	.LVL163:
 1086              	.L64:
 1087              	.LBB6:
 1088              		.loc 1 271 0 is_stmt 0 discriminator 1
 1089 010c 052D     		cmp	r5, #5
 1090 010e EAD9     		bls	.L65
 1091 0110 0125     		movs	r5, #1
ARM GAS  C:\Users\user\AppData\Local\Temp\ccJOy7it.s 			page 25


 1092              	.LVL164:
 1093 0112 10E0     		b	.L66
 1094              	.LVL165:
 1095              	.L67:
 272:ctrl_pend.c   ****             for (j = 1u; j < 6u; j++) lp->tf_a[j] /= a0;
 1096              		.loc 1 272 0 is_stmt 1 discriminator 3
 1097 0114 B200     		lsls	r2, r6, #2
 1098 0116 3244     		add	r2, r2, r6
 1099 0118 D300     		lsls	r3, r2, #3
 1100 011a 2B44     		add	r3, r3, r5
 1101 011c 0633     		adds	r3, r3, #6
 1102 011e 2F4A     		ldr	r2, .L78
 1103 0120 02EB8308 		add	r8, r2, r3, lsl #2
 1104 0124 3946     		mov	r1, r7
 1105 0126 D8F80400 		ldr	r0, [r8, #4]	@ float
 1106 012a FFF7FEFF 		bl	__aeabi_fdiv
 1107              	.LVL166:
 1108 012e C8F80400 		str	r0, [r8, #4]	@ float
 1109 0132 0135     		adds	r5, r5, #1
 1110              	.LVL167:
 1111 0134 EDB2     		uxtb	r5, r5
 1112              	.LVL168:
 1113              	.L66:
 1114              		.loc 1 272 0 is_stmt 0 discriminator 1
 1115 0136 052D     		cmp	r5, #5
 1116 0138 ECD9     		bls	.L67
 273:ctrl_pend.c   ****             lp->tf_a[0] = 1.0f;
 1117              		.loc 1 273 0 is_stmt 1
 1118 013a 04EB8402 		add	r2, r4, r4, lsl #2
 1119 013e 5301     		lsls	r3, r2, #5
 1120 0140 264A     		ldr	r2, .L78
 1121 0142 1344     		add	r3, r3, r2
 1122 0144 4FF07E52 		mov	r2, #1065353216
 1123 0148 DA61     		str	r2, [r3, #28]	@ float
 1124              	.LVL169:
 1125              	.L62:
 1126              	.LBE6:
 274:ctrl_pend.c   ****         }
 275:ctrl_pend.c   ****         memset(lp->tf_w, 0, sizeof(lp->tf_w));
 1127              		.loc 1 275 0
 1128 014a 04EB8404 		add	r4, r4, r4, lsl #2
 1129              	.LVL170:
 1130 014e 6301     		lsls	r3, r4, #5
 1131 0150 3033     		adds	r3, r3, #48
 1132 0152 224A     		ldr	r2, .L78
 1133 0154 1344     		add	r3, r3, r2
 1134 0156 0022     		movs	r2, #0
 1135 0158 5A60     		str	r2, [r3, #4]	@ unaligned
 1136 015a 9A60     		str	r2, [r3, #8]	@ unaligned
 1137 015c DA60     		str	r2, [r3, #12]	@ unaligned
 1138 015e 1A61     		str	r2, [r3, #16]	@ unaligned
 1139 0160 5A61     		str	r2, [r3, #20]	@ unaligned
 1140              	.LBE7:
 1141 0162 BDE8F081 		pop	{r4, r5, r6, r7, r8, pc}
 1142              	.LVL171:
 1143              	.L75:
 276:ctrl_pend.c   ****     }
ARM GAS  C:\Users\user\AppData\Local\Temp\ccJOy7it.s 			page 26


 277:ctrl_pend.c   ****     /* --- SS coefficients --- */
 278:ctrl_pend.c   ****     else if (mode_ss(lp->mode))
 1144              		.loc 1 278 0
 1145 0166 FFF7FEFF 		bl	mode_ss
 1146              	.LVL172:
 1147 016a 0028     		cmp	r0, #0
 1148 016c 33D0     		beq	.L52
 279:ctrl_pend.c   ****     {
 280:ctrl_pend.c   ****         lp->A[0] = c[0];  lp->A[1] = c[1];
 1149              		.loc 1 280 0
 1150 016e 2968     		ldr	r1, [r5]	@ float
 1151 0170 1A48     		ldr	r0, .L78
 1152 0172 A600     		lsls	r6, r4, #2
 1153 0174 3319     		adds	r3, r6, r4
 1154 0176 5A01     		lsls	r2, r3, #5
 1155 0178 8318     		adds	r3, r0, r2
 1156 017a 9964     		str	r1, [r3, #72]	@ float
 1157 017c 6A68     		ldr	r2, [r5, #4]	@ float
 1158 017e DA64     		str	r2, [r3, #76]	@ float
 281:ctrl_pend.c   ****         lp->A[2] = c[2];  lp->A[3] = c[3];
 1159              		.loc 1 281 0
 1160 0180 AA68     		ldr	r2, [r5, #8]	@ float
 1161 0182 1A65     		str	r2, [r3, #80]	@ float
 1162 0184 EA68     		ldr	r2, [r5, #12]	@ float
 1163 0186 5A65     		str	r2, [r3, #84]	@ float
 282:ctrl_pend.c   ****         lp->B[0] = c[4];  lp->B[1] = c[5];
 1164              		.loc 1 282 0
 1165 0188 2A69     		ldr	r2, [r5, #16]	@ float
 1166 018a 9A65     		str	r2, [r3, #88]	@ float
 1167 018c 6A69     		ldr	r2, [r5, #20]	@ float
 1168 018e DA65     		str	r2, [r3, #92]	@ float
 283:ctrl_pend.c   ****         lp->C[0] = c[6];  lp->C[1] = c[7];
 1169              		.loc 1 283 0
 1170 0190 AA69     		ldr	r2, [r5, #24]	@ float
 1171 0192 1A66     		str	r2, [r3, #96]	@ float
 1172 0194 EA69     		ldr	r2, [r5, #28]	@ float
 1173 0196 5A66     		str	r2, [r3, #100]	@ float
 284:ctrl_pend.c   ****         lp->D    = c[8];
 1174              		.loc 1 284 0
 1175 0198 2A6A     		ldr	r2, [r5, #32]	@ float
 1176 019a 9A66     		str	r2, [r3, #104]	@ float
 285:ctrl_pend.c   ****         lp->L[0] = c[9];  lp->L[1] = c[10];
 1177              		.loc 1 285 0
 1178 019c 6A6A     		ldr	r2, [r5, #36]	@ float
 1179 019e DA66     		str	r2, [r3, #108]	@ float
 1180 01a0 AA6A     		ldr	r2, [r5, #40]	@ float
 1181 01a2 1A67     		str	r2, [r3, #112]	@ float
 286:ctrl_pend.c   ****         lp->K[0] = c[11]; lp->K[1] = c[12];
 1182              		.loc 1 286 0
 1183 01a4 EA6A     		ldr	r2, [r5, #44]	@ float
 1184 01a6 5A67     		str	r2, [r3, #116]	@ float
 1185 01a8 2A6B     		ldr	r2, [r5, #48]	@ float
 1186 01aa 9A67     		str	r2, [r3, #120]	@ float
 287:ctrl_pend.c   ****         lp->Kx   = c[13];
 1187              		.loc 1 287 0
 1188 01ac 6A6B     		ldr	r2, [r5, #52]	@ float
 1189 01ae DA67     		str	r2, [r3, #124]	@ float
ARM GAS  C:\Users\user\AppData\Local\Temp\ccJOy7it.s 			page 27


 288:ctrl_pend.c   ****         memset(lp->xhat, 0, sizeof(lp->xhat));
 1190              		.loc 1 288 0
 1191 01b0 3219     		adds	r2, r6, r4
 1192 01b2 5301     		lsls	r3, r2, #5
 1193 01b4 8033     		adds	r3, r3, #128
 1194 01b6 C118     		adds	r1, r0, r3
 1195 01b8 0022     		movs	r2, #0
 1196 01ba C250     		str	r2, [r0, r3]	@ unaligned
 1197 01bc 4A60     		str	r2, [r1, #4]	@ unaligned
 289:ctrl_pend.c   ****         memset(lp->zhat, 0, sizeof(lp->zhat));
 1198              		.loc 1 289 0
 1199 01be 3119     		adds	r1, r6, r4
 1200 01c0 4B01     		lsls	r3, r1, #5
 1201 01c2 8833     		adds	r3, r3, #136
 1202 01c4 C118     		adds	r1, r0, r3
 1203 01c6 C250     		str	r2, [r0, r3]	@ unaligned
 1204 01c8 4A60     		str	r2, [r1, #4]	@ unaligned
 290:ctrl_pend.c   ****         lp->vint = 0.0f;
 1205              		.loc 1 290 0
 1206 01ca 3444     		add	r4, r4, r6
 1207              	.LVL173:
 1208 01cc 6301     		lsls	r3, r4, #5
 1209 01ce 0344     		add	r3, r3, r0
 1210 01d0 0022     		movs	r2, #0
 1211 01d2 C3F89020 		str	r2, [r3, #144]	@ float
 1212              	.L52:
 1213 01d6 BDE8F081 		pop	{r4, r5, r6, r7, r8, pc}
 1214              	.LVL174:
 1215              	.L77:
 1216              		.cfi_def_cfa_offset 0
 1217              		.cfi_restore 4
 1218              		.cfi_restore 5
 1219              		.cfi_restore 6
 1220              		.cfi_restore 7
 1221              		.cfi_restore 8
 1222              		.cfi_restore 14
 1223 01da 7047     		bx	lr
 1224              	.L79:
 1225              		.align	2
 1226              	.L78:
 1227 01dc 00000000 		.word	.LANCHOR1
 1228 01e0 00401C46 		.word	1176256512
 1229 01e4 00000000 		.word	.LANCHOR0
 1230 01e8 001BB74B 		.word	1270291200
 1231              		.cfi_endproc
 1232              	.LFE77:
 1233              		.size	ctrl_apply_coeffs, .-ctrl_apply_coeffs
 1234              		.section	.text.ctrl_start,"ax",%progbits
 1235              		.align	2
 1236              		.global	ctrl_start
 1237              		.thumb
 1238              		.thumb_func
 1239              		.type	ctrl_start, %function
 1240              	ctrl_start:
 1241              	.LFB78:
 291:ctrl_pend.c   ****     }
 292:ctrl_pend.c   ****     /* OPEN_LOOP / OFF: only N and Fs matter, already parsed above */
ARM GAS  C:\Users\user\AppData\Local\Temp\ccJOy7it.s 			page 28


 293:ctrl_pend.c   **** }
 294:ctrl_pend.c   **** 
 295:ctrl_pend.c   **** /* ============================================================
 296:ctrl_pend.c   ****    ctrl_start()
 297:ctrl_pend.c   ****    ============================================================ */
 298:ctrl_pend.c   **** void ctrl_start(float ref_inner)
 299:ctrl_pend.c   **** {
 1242              		.loc 1 299 0
 1243              		.cfi_startproc
 1244              		@ args = 0, pretend = 0, frame = 0
 1245              		@ frame_needed = 0, uses_anonymous_args = 0
 1246              		@ link register save eliminated.
 1247              	.LVL175:
 1248 0000 70B4     		push	{r4, r5, r6}
 1249              		.cfi_def_cfa_offset 12
 1250              		.cfi_offset 4, -12
 1251              		.cfi_offset 5, -8
 1252              		.cfi_offset 6, -4
 1253              	.LVL176:
 300:ctrl_pend.c   ****     uint8 p;
 301:ctrl_pend.c   ****     for (p = 0u; p < PLANT_COUNT; p++) {
 1254              		.loc 1 301 0
 1255 0002 0023     		movs	r3, #0
 1256 0004 26E0     		b	.L81
 1257              	.LVL177:
 1258              	.L82:
 1259              	.LBB8:
 302:ctrl_pend.c   ****         CtrlLoop *lp = &g_lp[p];
 303:ctrl_pend.c   ****         memset(lp->tf_w, 0, sizeof(lp->tf_w));
 1260              		.loc 1 303 0 discriminator 3
 1261 0006 1A4C     		ldr	r4, .L84
 1262 0008 9900     		lsls	r1, r3, #2
 1263 000a CA18     		adds	r2, r1, r3
 1264 000c 5501     		lsls	r5, r2, #5
 1265 000e 3035     		adds	r5, r5, #48
 1266 0010 2544     		add	r5, r5, r4
 1267 0012 0022     		movs	r2, #0
 1268 0014 6A60     		str	r2, [r5, #4]	@ unaligned
 1269 0016 AA60     		str	r2, [r5, #8]	@ unaligned
 1270 0018 EA60     		str	r2, [r5, #12]	@ unaligned
 1271 001a 2A61     		str	r2, [r5, #16]	@ unaligned
 1272 001c 6A61     		str	r2, [r5, #20]	@ unaligned
 304:ctrl_pend.c   ****         memset(lp->xhat, 0, sizeof(lp->xhat));
 1273              		.loc 1 304 0 discriminator 3
 1274 001e CE18     		adds	r6, r1, r3
 1275 0020 7501     		lsls	r5, r6, #5
 1276 0022 8035     		adds	r5, r5, #128
 1277 0024 6619     		adds	r6, r4, r5
 1278 0026 6251     		str	r2, [r4, r5]	@ unaligned
 1279 0028 7260     		str	r2, [r6, #4]	@ unaligned
 305:ctrl_pend.c   ****         memset(lp->zhat, 0, sizeof(lp->zhat));
 1280              		.loc 1 305 0 discriminator 3
 1281 002a CE18     		adds	r6, r1, r3
 1282 002c 7501     		lsls	r5, r6, #5
 1283 002e 8835     		adds	r5, r5, #136
 1284 0030 6619     		adds	r6, r4, r5
 1285 0032 6251     		str	r2, [r4, r5]	@ unaligned
ARM GAS  C:\Users\user\AppData\Local\Temp\ccJOy7it.s 			page 29


 1286 0034 7260     		str	r2, [r6, #4]	@ unaligned
 306:ctrl_pend.c   ****         lp->vint  = 0.0f;
 1287              		.loc 1 306 0 discriminator 3
 1288 0036 CE18     		adds	r6, r1, r3
 1289 0038 7501     		lsls	r5, r6, #5
 1290 003a 2544     		add	r5, r5, r4
 1291 003c 0026     		movs	r6, #0
 1292 003e C5F89060 		str	r6, [r5, #144]	@ float
 307:ctrl_pend.c   ****         lp->u_out = 0.0f;
 1293              		.loc 1 307 0 discriminator 3
 1294 0042 C5F89860 		str	r6, [r5, #152]	@ float
 308:ctrl_pend.c   ****         lp->cnt   = 0u;
 1295              		.loc 1 308 0 discriminator 3
 1296 0046 1944     		add	r1, r1, r3
 1297 0048 4D01     		lsls	r5, r1, #5
 1298 004a 2C44     		add	r4, r4, r5
 1299 004c A4F89E20 		strh	r2, [r4, #158]	@ movhi
 1300              	.LBE8:
 301:ctrl_pend.c   ****         CtrlLoop *lp = &g_lp[p];
 1301              		.loc 1 301 0 discriminator 3
 1302 0050 0133     		adds	r3, r3, #1
 1303              	.LVL178:
 1304 0052 DBB2     		uxtb	r3, r3
 1305              	.LVL179:
 1306              	.L81:
 301:ctrl_pend.c   ****         CtrlLoop *lp = &g_lp[p];
 1307              		.loc 1 301 0 is_stmt 0 discriminator 1
 1308 0054 012B     		cmp	r3, #1
 1309 0056 D6D9     		bls	.L82
 309:ctrl_pend.c   ****     }
 310:ctrl_pend.c   **** 
 311:ctrl_pend.c   ****     g_lp[PLANT_INNER].ref = ref_inner;
 1310              		.loc 1 311 0 is_stmt 1
 1311 0058 054B     		ldr	r3, .L84
 1312              	.LVL180:
 1313 005a C3F89400 		str	r0, [r3, #148]	@ float
 312:ctrl_pend.c   ****     g_lp[PLANT_OUTER].ref = 0.0f;     /* pendulum upright = 0 rad */
 1314              		.loc 1 312 0
 1315 005e 0022     		movs	r2, #0
 1316 0060 C3F83421 		str	r2, [r3, #308]	@ float
 313:ctrl_pend.c   **** 
 314:ctrl_pend.c   ****     ctrl_telem_ready = 0u;
 1317              		.loc 1 314 0
 1318 0064 0022     		movs	r2, #0
 1319 0066 83F84021 		strb	r2, [r3, #320]
 315:ctrl_pend.c   ****     g_running        = 1u;
 316:ctrl_pend.c   **** }
 1320              		.loc 1 316 0
 1321 006a 70BC     		pop	{r4, r5, r6}
 1322              		.cfi_restore 6
 1323              		.cfi_restore 5
 1324              		.cfi_restore 4
 1325              		.cfi_def_cfa_offset 0
 1326 006c 7047     		bx	lr
 1327              	.L85:
 1328 006e 00BF     		.align	2
 1329              	.L84:
ARM GAS  C:\Users\user\AppData\Local\Temp\ccJOy7it.s 			page 30


 1330 0070 00000000 		.word	.LANCHOR1
 1331              		.cfi_endproc
 1332              	.LFE78:
 1333              		.size	ctrl_start, .-ctrl_start
 1334              		.section	.text.ctrl_stop,"ax",%progbits
 1335              		.align	2
 1336              		.global	ctrl_stop
 1337              		.thumb
 1338              		.thumb_func
 1339              		.type	ctrl_stop, %function
 1340              	ctrl_stop:
 1341              	.LFB79:
 317:ctrl_pend.c   **** 
 318:ctrl_pend.c   **** /* ============================================================
 319:ctrl_pend.c   ****    ctrl_stop()
 320:ctrl_pend.c   ****    ============================================================ */
 321:ctrl_pend.c   **** void ctrl_stop(void)
 322:ctrl_pend.c   **** {
 1342              		.loc 1 322 0
 1343              		.cfi_startproc
 1344              		@ args = 0, pretend = 0, frame = 0
 1345              		@ frame_needed = 0, uses_anonymous_args = 0
 1346 0000 08B5     		push	{r3, lr}
 1347              		.cfi_def_cfa_offset 8
 1348              		.cfi_offset 3, -8
 1349              		.cfi_offset 14, -4
 323:ctrl_pend.c   ****     g_running = 0u;
 324:ctrl_pend.c   ****     Motor_Free();
 1350              		.loc 1 324 0
 1351 0002 FFF7FEFF 		bl	Motor_Free
 1352              	.LVL181:
 1353 0006 08BD     		pop	{r3, pc}
 1354              		.cfi_endproc
 1355              	.LFE79:
 1356              		.size	ctrl_stop, .-ctrl_stop
 1357              		.global	__aeabi_i2f
 1358              		.global	__aeabi_f2iz
 1359              		.section	.text.ctrl_step,"ax",%progbits
 1360              		.align	2
 1361              		.global	ctrl_step
 1362              		.thumb
 1363              		.thumb_func
 1364              		.type	ctrl_step, %function
 1365              	ctrl_step:
 1366              	.LFB80:
 325:ctrl_pend.c   **** }
 326:ctrl_pend.c   **** 
 327:ctrl_pend.c   **** /* ============================================================
 328:ctrl_pend.c   ****    ctrl_step()   — call once per g_flag_control tick
 329:ctrl_pend.c   ****    ============================================================ */
 330:ctrl_pend.c   **** void ctrl_step(void)
 331:ctrl_pend.c   **** {
 1367              		.loc 1 331 0
 1368              		.cfi_startproc
 1369              		@ args = 0, pretend = 0, frame = 8
 1370              		@ frame_needed = 0, uses_anonymous_args = 0
 1371 0000 F0B5     		push	{r4, r5, r6, r7, lr}
ARM GAS  C:\Users\user\AppData\Local\Temp\ccJOy7it.s 			page 31


 1372              		.cfi_def_cfa_offset 20
 1373              		.cfi_offset 4, -20
 1374              		.cfi_offset 5, -16
 1375              		.cfi_offset 6, -12
 1376              		.cfi_offset 7, -8
 1377              		.cfi_offset 14, -4
 1378 0002 83B0     		sub	sp, sp, #12
 1379              		.cfi_def_cfa_offset 32
 332:ctrl_pend.c   ****     int32  theta_cnt;
 333:ctrl_pend.c   ****     int16  delta_om_cnt;
 334:ctrl_pend.c   **** 
 335:ctrl_pend.c   ****     pendulo_read(&theta_cnt, &delta_om_cnt);
 1380              		.loc 1 335 0
 1381 0004 0DF10201 		add	r1, sp, #2
 1382 0008 01A8     		add	r0, sp, #4
 1383 000a FFF7FEFF 		bl	pendulo_read
 1384              	.LVL182:
 336:ctrl_pend.c   **** 
 337:ctrl_pend.c   ****     /* --- Convert to physical units --- */
 338:ctrl_pend.c   ****     float y1 = (float)delta_om_cnt * (2.0f * PI_F / MOTOR_CPR_F)    / g_Ts; /* ω [rad/s] */
 1385              		.loc 1 338 0
 1386 000e BDF90200 		ldrsh	r0, [sp, #2]
 1387 0012 FFF7FEFF 		bl	__aeabi_i2f
 1388              	.LVL183:
 1389 0016 3549     		ldr	r1, .L94
 1390 0018 FFF7FEFF 		bl	__aeabi_fmul
 1391              	.LVL184:
 1392 001c 344B     		ldr	r3, .L94+4
 1393 001e 1968     		ldr	r1, [r3]	@ float
 1394 0020 FFF7FEFF 		bl	__aeabi_fdiv
 1395              	.LVL185:
 1396 0024 0546     		mov	r5, r0
 1397              	.LVL186:
 339:ctrl_pend.c   ****     float y2 = (float)theta_cnt    * (2.0f * PI_F / PENDULO_CPR_F);          /* θ [rad]   */
 1398              		.loc 1 339 0
 1399 0026 0198     		ldr	r0, [sp, #4]
 1400              	.LVL187:
 1401 0028 FFF7FEFF 		bl	__aeabi_i2f
 1402              	.LVL188:
 1403 002c 3149     		ldr	r1, .L94+8
 1404 002e FFF7FEFF 		bl	__aeabi_fmul
 1405              	.LVL189:
 1406 0032 0646     		mov	r6, r0
 1407              	.LVL190:
 340:ctrl_pend.c   **** 
 341:ctrl_pend.c   ****     CtrlLoop *inner = &g_lp[PLANT_INNER];
 342:ctrl_pend.c   ****     CtrlLoop *outer = &g_lp[PLANT_OUTER];
 343:ctrl_pend.c   **** 
 344:ctrl_pend.c   ****     float u1 = 0.0f;
 345:ctrl_pend.c   ****     float u2 = outer->u_out;    /* outer output: last computed omega_ref */
 1408              		.loc 1 345 0
 1409 0034 304B     		ldr	r3, .L94+12
 1410 0036 D3F83841 		ldr	r4, [r3, #312]	@ float
 1411              	.LVL191:
 346:ctrl_pend.c   **** 
 347:ctrl_pend.c   ****     /* --- Outer loop (runs every N inner ticks) --- */
 348:ctrl_pend.c   ****     if (outer->mode != CTRL_MODE_OFF)
ARM GAS  C:\Users\user\AppData\Local\Temp\ccJOy7it.s 			page 32


 1412              		.loc 1 348 0
 1413 003a 93F8A030 		ldrb	r3, [r3, #160]	@ zero_extendqisi2
 1414 003e 062B     		cmp	r3, #6
 1415 0040 1AD0     		beq	.L89
 349:ctrl_pend.c   ****     {
 350:ctrl_pend.c   ****         outer->cnt++;
 1416              		.loc 1 350 0
 1417 0042 2D4A     		ldr	r2, .L94+12
 1418 0044 B2F83E31 		ldrh	r3, [r2, #318]
 1419 0048 0133     		adds	r3, r3, #1
 1420 004a 9BB2     		uxth	r3, r3
 1421 004c A2F83E31 		strh	r3, [r2, #318]	@ movhi
 351:ctrl_pend.c   ****         if (outer->cnt >= outer->N)
 1422              		.loc 1 351 0
 1423 0050 B2F83C21 		ldrh	r2, [r2, #316]
 1424 0054 9342     		cmp	r3, r2
 1425 0056 0FD3     		bcc	.L89
 352:ctrl_pend.c   ****         {
 353:ctrl_pend.c   ****             outer->cnt = 0u;
 1426              		.loc 1 353 0
 1427 0058 274F     		ldr	r7, .L94+12
 1428 005a 0023     		movs	r3, #0
 1429 005c A7F83E31 		strh	r3, [r7, #318]	@ movhi
 354:ctrl_pend.c   ****             u2 = run_step(outer, y2);
 1430              		.loc 1 354 0
 1431 0060 0146     		mov	r1, r0
 1432 0062 07F1A000 		add	r0, r7, #160
 1433              	.LVL192:
 1434 0066 FFF7FEFF 		bl	run_step
 1435              	.LVL193:
 1436 006a 0446     		mov	r4, r0
 1437              	.LVL194:
 355:ctrl_pend.c   ****             /* outer output becomes inner reference */
 356:ctrl_pend.c   ****             if (inner->mode != CTRL_MODE_OFF) {
 1438              		.loc 1 356 0
 1439 006c 3B78     		ldrb	r3, [r7]	@ zero_extendqisi2
 1440 006e 062B     		cmp	r3, #6
 1441 0070 02D0     		beq	.L89
 357:ctrl_pend.c   ****                 inner->ref = u2;
 1442              		.loc 1 357 0
 1443 0072 3B46     		mov	r3, r7
 1444 0074 C3F89400 		str	r0, [r3, #148]	@ float
 1445              	.LVL195:
 1446              	.L89:
 358:ctrl_pend.c   ****             }
 359:ctrl_pend.c   ****         }
 360:ctrl_pend.c   ****     }
 361:ctrl_pend.c   **** 
 362:ctrl_pend.c   ****     /* --- Inner loop (runs every tick) --- */
 363:ctrl_pend.c   ****     if (inner->mode != CTRL_MODE_OFF)
 1447              		.loc 1 363 0
 1448 0078 1F4B     		ldr	r3, .L94+12
 1449 007a 1B78     		ldrb	r3, [r3]	@ zero_extendqisi2
 1450 007c 062B     		cmp	r3, #6
 1451 007e 0ED0     		beq	.L90
 364:ctrl_pend.c   ****     {
 365:ctrl_pend.c   ****         u1 = run_step(inner, y1);
ARM GAS  C:\Users\user\AppData\Local\Temp\ccJOy7it.s 			page 33


 1452              		.loc 1 365 0
 1453 0080 2946     		mov	r1, r5
 1454 0082 1D48     		ldr	r0, .L94+12
 1455 0084 FFF7FEFF 		bl	run_step
 1456              	.LVL196:
 1457 0088 0746     		mov	r7, r0
 1458              	.LVL197:
 366:ctrl_pend.c   ****         Motor_Control((int16)satf(u1, PWM_MIN_F, PWM_MAX_F));
 1459              		.loc 1 366 0
 1460 008a 1C4A     		ldr	r2, .L94+16
 1461 008c 1C49     		ldr	r1, .L94+20
 1462 008e FFF7FEFF 		bl	satf
 1463              	.LVL198:
 1464 0092 FFF7FEFF 		bl	__aeabi_f2iz
 1465              	.LVL199:
 1466 0096 00B2     		sxth	r0, r0
 1467 0098 FFF7FEFF 		bl	Motor_Control
 1468              	.LVL200:
 1469 009c 13E0     		b	.L91
 1470              	.LVL201:
 1471              	.L90:
 367:ctrl_pend.c   ****     }
 368:ctrl_pend.c   ****     else if (outer->mode != CTRL_MODE_OFF)
 1472              		.loc 1 368 0
 1473 009e 164B     		ldr	r3, .L94+12
 1474 00a0 93F8A030 		ldrb	r3, [r3, #160]	@ zero_extendqisi2
 1475 00a4 062B     		cmp	r3, #6
 1476 00a6 0BD0     		beq	.L92
 369:ctrl_pend.c   ****     {
 370:ctrl_pend.c   ****         /* Inner off, outer on → outer output drives motor directly */
 371:ctrl_pend.c   ****         u1 = satf(u2, PWM_MIN_F, PWM_MAX_F);
 1477              		.loc 1 371 0
 1478 00a8 144A     		ldr	r2, .L94+16
 1479 00aa 1549     		ldr	r1, .L94+20
 1480 00ac 2046     		mov	r0, r4
 1481 00ae FFF7FEFF 		bl	satf
 1482              	.LVL202:
 1483 00b2 0746     		mov	r7, r0
 1484              	.LVL203:
 372:ctrl_pend.c   ****         Motor_Control((int16)u1);
 1485              		.loc 1 372 0
 1486 00b4 FFF7FEFF 		bl	__aeabi_f2iz
 1487              	.LVL204:
 1488 00b8 00B2     		sxth	r0, r0
 1489 00ba FFF7FEFF 		bl	Motor_Control
 1490              	.LVL205:
 1491 00be 02E0     		b	.L91
 1492              	.LVL206:
 1493              	.L92:
 373:ctrl_pend.c   ****     }
 374:ctrl_pend.c   ****     else
 375:ctrl_pend.c   ****     {
 376:ctrl_pend.c   ****         Motor_Free();
 1494              		.loc 1 376 0
 1495 00c0 FFF7FEFF 		bl	Motor_Free
 1496              	.LVL207:
 344:ctrl_pend.c   ****     float u2 = outer->u_out;    /* outer output: last computed omega_ref */
ARM GAS  C:\Users\user\AppData\Local\Temp\ccJOy7it.s 			page 34


 1497              		.loc 1 344 0
 1498 00c4 0027     		movs	r7, #0
 1499              	.LVL208:
 1500              	.L91:
 1501              	.LBB9:
 377:ctrl_pend.c   ****     }
 378:ctrl_pend.c   **** 
 379:ctrl_pend.c   ****     /* --- Snapshot telemetry (atomic write) --- */
 380:ctrl_pend.c   ****     {
 381:ctrl_pend.c   ****         uint8 intr = CyEnterCriticalSection();
 1502              		.loc 1 381 0
 1503 00c6 FFF7FEFF 		bl	CyEnterCriticalSection
 1504              	.LVL209:
 382:ctrl_pend.c   ****         ctrl_telem_u1    = u1;
 1505              		.loc 1 382 0
 1506 00ca 0B4B     		ldr	r3, .L94+12
 1507 00cc C3F84871 		str	r7, [r3, #328]	@ float
 383:ctrl_pend.c   ****         ctrl_telem_y1    = y1;
 1508              		.loc 1 383 0
 1509 00d0 C3F84C51 		str	r5, [r3, #332]	@ float
 384:ctrl_pend.c   ****         ctrl_telem_u2    = u2;
 1510              		.loc 1 384 0
 1511 00d4 C3F85041 		str	r4, [r3, #336]	@ float
 385:ctrl_pend.c   ****         ctrl_telem_y2    = y2;
 1512              		.loc 1 385 0
 1513 00d8 C3F85461 		str	r6, [r3, #340]	@ float
 386:ctrl_pend.c   ****         ctrl_telem_ready = 1u;
 1514              		.loc 1 386 0
 1515 00dc 0122     		movs	r2, #1
 1516 00de 83F84021 		strb	r2, [r3, #320]
 387:ctrl_pend.c   ****         CyExitCriticalSection(intr);
 1517              		.loc 1 387 0
 1518 00e2 FFF7FEFF 		bl	CyExitCriticalSection
 1519              	.LVL210:
 1520              	.LBE9:
 388:ctrl_pend.c   ****     }
 389:ctrl_pend.c   **** }
 1521              		.loc 1 389 0
 1522 00e6 03B0     		add	sp, sp, #12
 1523              		.cfi_def_cfa_offset 20
 1524              		@ sp needed
 1525 00e8 F0BD     		pop	{r4, r5, r6, r7, pc}
 1526              	.LVL211:
 1527              	.L95:
 1528 00ea 00BF     		.align	2
 1529              	.L94:
 1530 00ec FBF7C53B 		.word	1002829819
 1531 00f0 00000000 		.word	.LANCHOR0
 1532 00f4 BEB5243A 		.word	975484350
 1533 00f8 00000000 		.word	.LANCHOR1
 1534 00fc 00009E44 		.word	1151205376
 1535 0100 00009EC4 		.word	-996278272
 1536              		.cfi_endproc
 1537              	.LFE80:
 1538              		.size	ctrl_step, .-ctrl_step
 1539              		.global	ctrl_period_ticks
 1540              		.global	ctrl_period_pending
ARM GAS  C:\Users\user\AppData\Local\Temp\ccJOy7it.s 			page 35


 1541              		.global	ctrl_telem_ready
 1542              		.global	ctrl_telem_y2
 1543              		.global	ctrl_telem_u2
 1544              		.global	ctrl_telem_y1
 1545              		.global	ctrl_telem_u1
 1546              		.data
 1547              		.align	2
 1548              		.set	.LANCHOR0,. + 0
 1549              		.type	g_Ts, %object
 1550              		.size	g_Ts, 4
 1551              	g_Ts:
 1552 0000 0AD7A33B 		.word	1000593162
 1553              		.bss
 1554              		.align	2
 1555              		.set	.LANCHOR1,. + 0
 1556              		.type	g_lp, %object
 1557              		.size	g_lp, 320
 1558              	g_lp:
 1559 0000 00000000 		.space	320
 1559      00000000 
 1559      00000000 
 1559      00000000 
 1559      00000000 
 1560              		.type	ctrl_telem_ready, %object
 1561              		.size	ctrl_telem_ready, 1
 1562              	ctrl_telem_ready:
 1563 0140 00       		.space	1
 1564              		.type	ctrl_period_pending, %object
 1565              		.size	ctrl_period_pending, 1
 1566              	ctrl_period_pending:
 1567 0141 00       		.space	1
 1568 0142 0000     		.space	2
 1569              		.type	ctrl_period_ticks, %object
 1570              		.size	ctrl_period_ticks, 4
 1571              	ctrl_period_ticks:
 1572 0144 00000000 		.space	4
 1573              		.type	ctrl_telem_u1, %object
 1574              		.size	ctrl_telem_u1, 4
 1575              	ctrl_telem_u1:
 1576 0148 00000000 		.space	4
 1577              		.type	ctrl_telem_y1, %object
 1578              		.size	ctrl_telem_y1, 4
 1579              	ctrl_telem_y1:
 1580 014c 00000000 		.space	4
 1581              		.type	ctrl_telem_u2, %object
 1582              		.size	ctrl_telem_u2, 4
 1583              	ctrl_telem_u2:
 1584 0150 00000000 		.space	4
 1585              		.type	ctrl_telem_y2, %object
 1586              		.size	ctrl_telem_y2, 4
 1587              	ctrl_telem_y2:
 1588 0154 00000000 		.space	4
 1589              		.text
 1590              	.Letext0:
 1591              		.file 2 "d:\\psoc\\psoc creator\\4.4\\psoc creator\\import\\gnu\\arm\\5.4.1\\arm-none-eabi\\includ
 1592              		.file 3 "d:\\psoc\\psoc creator\\4.4\\psoc creator\\import\\gnu\\arm\\5.4.1\\arm-none-eabi\\includ
 1593              		.file 4 "Generated_Source\\PSoC5/cytypes.h"
ARM GAS  C:\Users\user\AppData\Local\Temp\ccJOy7it.s 			page 36


 1594              		.file 5 "Generated_Source\\PSoC5/core_cm3.h"
 1595              		.file 6 "motor.h"
 1596              		.file 7 "Generated_Source\\PSoC5/CyLib.h"
 1597              		.file 8 "pendulo.h"