ARM GAS  C:\Users\user\AppData\Local\Temp\ccQbsKit.s 			page 1


   1              		.syntax unified
   2              		.cpu cortex-m3
   3              		.fpu softvfp
   4              		.eabi_attribute 20, 1
   5              		.eabi_attribute 21, 1
   6              		.eabi_attribute 23, 3
   7              		.eabi_attribute 24, 1
   8              		.eabi_attribute 25, 1
   9              		.eabi_attribute 26, 1
  10              		.eabi_attribute 30, 1
  11              		.eabi_attribute 34, 1
  12              		.eabi_attribute 18, 4
  13              		.thumb
  14              		.syntax unified
  15              		.file	"motor.c"
  16              		.text
  17              	.Ltext0:
  18              		.cfi_sections	.debug_frame
  19              		.section	.text.Motor_Control,"ax",%progbits
  20              		.align	2
  21              		.global	Motor_Control
  22              		.thumb
  23              		.thumb_func
  24              		.type	Motor_Control, %function
  25              	Motor_Control:
  26              	.LFB63:
  27              		.file 1 "motor.c"
   1:motor.c       **** /* ============================================================
   2:motor.c       ****    motor.c — Driver del motor DC vía L298N
   3:motor.c       ****    Proyecto: Péndulo Invertido — PSoC 5LP (control en MATLAB)
   4:motor.c       ****    ============================================================ */
   5:motor.c       **** #include "motor.h"
   6:motor.c       **** 
   7:motor.c       **** /* ============================================================
   8:motor.c       ****    Motor_Control()
   9:motor.c       ****    Aplica el esfuerzo calculado por MATLAB al puente H L298N.
  10:motor.c       **** 
  11:motor.c       ****    velocidad: int16 en [-1264, +1264]
  12:motor.c       ****      > 0  → IN1=1, IN2=0 (sentido horario)
  13:motor.c       ****      < 0  → IN1=0, IN2=1 (sentido antihorario)
  14:motor.c       ****      = 0  → IN1=0, IN2=0 (motor libre)
  15:motor.c       ****    ============================================================ */
  16:motor.c       **** void Motor_Control(int16 velocidad)
  17:motor.c       **** {
  28              		.loc 1 17 0
  29              		.cfi_startproc
  30              		@ args = 0, pretend = 0, frame = 0
  31              		@ frame_needed = 0, uses_anonymous_args = 0
  32              	.LVL0:
  33 0000 10B5     		push	{r4, lr}
  34              		.cfi_def_cfa_offset 8
  35              		.cfi_offset 4, -8
  36              		.cfi_offset 14, -4
  37 0002 0446     		mov	r4, r0
  18:motor.c       ****     /* saturación de seguridad */
  19:motor.c       ****     if (velocidad > MOTOR_MAX) velocidad =  MOTOR_MAX;
  38              		.loc 1 19 0
ARM GAS  C:\Users\user\AppData\Local\Temp\ccQbsKit.s 			page 2


  39 0004 B0F59E6F 		cmp	r0, #1264
  40 0008 01DD     		ble	.L2
  41 000a 4FF49E64 		mov	r4, #1264
  42              	.L2:
  43              	.LVL1:
  20:motor.c       ****     if (velocidad < MOTOR_MIN) velocidad =  MOTOR_MIN;
  44              		.loc 1 20 0
  45 000e 14F59E6F 		cmn	r4, #1264
  46 0012 00DA     		bge	.L3
  47 0014 114C     		ldr	r4, .L10
  48              	.LVL2:
  49              	.L3:
  21:motor.c       **** 
  22:motor.c       ****     if (velocidad > 0)
  50              		.loc 1 22 0
  51 0016 002C     		cmp	r4, #0
  52 0018 09DD     		ble	.L4
  23:motor.c       ****     {
  24:motor.c       ****         Pin_IN1_Write(1u);
  53              		.loc 1 24 0
  54 001a 0120     		movs	r0, #1
  55 001c FFF7FEFF 		bl	Pin_IN1_Write
  56              	.LVL3:
  25:motor.c       ****         Pin_IN2_Write(0u);
  57              		.loc 1 25 0
  58 0020 0020     		movs	r0, #0
  59 0022 FFF7FEFF 		bl	Pin_IN2_Write
  60              	.LVL4:
  26:motor.c       ****         PWM_Motor_WriteCompare((uint16)velocidad);
  61              		.loc 1 26 0
  62 0026 A0B2     		uxth	r0, r4
  63 0028 FFF7FEFF 		bl	PWM_Motor_WriteCompare
  64              	.LVL5:
  65 002c 10BD     		pop	{r4, pc}
  66              	.LVL6:
  67              	.L4:
  27:motor.c       ****     }
  28:motor.c       ****     else if (velocidad < 0)
  68              		.loc 1 28 0
  69 002e 002C     		cmp	r4, #0
  70 0030 0ADA     		bge	.L6
  29:motor.c       ****     {
  30:motor.c       ****         Pin_IN1_Write(0u);
  71              		.loc 1 30 0
  72 0032 0020     		movs	r0, #0
  73 0034 FFF7FEFF 		bl	Pin_IN1_Write
  74              	.LVL7:
  31:motor.c       ****         Pin_IN2_Write(1u);
  75              		.loc 1 31 0
  76 0038 0120     		movs	r0, #1
  77 003a FFF7FEFF 		bl	Pin_IN2_Write
  78              	.LVL8:
  32:motor.c       ****         PWM_Motor_WriteCompare((uint16)(-velocidad));
  79              		.loc 1 32 0
  80 003e 6042     		negs	r0, r4
  81 0040 80B2     		uxth	r0, r0
  82 0042 FFF7FEFF 		bl	PWM_Motor_WriteCompare
ARM GAS  C:\Users\user\AppData\Local\Temp\ccQbsKit.s 			page 3


  83              	.LVL9:
  84 0046 10BD     		pop	{r4, pc}
  85              	.LVL10:
  86              	.L6:
  33:motor.c       ****     }
  34:motor.c       ****     else
  35:motor.c       ****     {
  36:motor.c       ****         Pin_IN1_Write(0u);
  87              		.loc 1 36 0
  88 0048 0020     		movs	r0, #0
  89 004a FFF7FEFF 		bl	Pin_IN1_Write
  90              	.LVL11:
  37:motor.c       ****         Pin_IN2_Write(0u);
  91              		.loc 1 37 0
  92 004e 0020     		movs	r0, #0
  93 0050 FFF7FEFF 		bl	Pin_IN2_Write
  94              	.LVL12:
  38:motor.c       ****         PWM_Motor_WriteCompare(0u);
  95              		.loc 1 38 0
  96 0054 0020     		movs	r0, #0
  97 0056 FFF7FEFF 		bl	PWM_Motor_WriteCompare
  98              	.LVL13:
  99 005a 10BD     		pop	{r4, pc}
 100              	.LVL14:
 101              	.L11:
 102              		.align	2
 103              	.L10:
 104 005c 10FBFFFF 		.word	-1264
 105              		.cfi_endproc
 106              	.LFE63:
 107              		.size	Motor_Control, .-Motor_Control
 108              		.section	.text.Motor_Brake,"ax",%progbits
 109              		.align	2
 110              		.global	Motor_Brake
 111              		.thumb
 112              		.thumb_func
 113              		.type	Motor_Brake, %function
 114              	Motor_Brake:
 115              	.LFB64:
  39:motor.c       ****     }
  40:motor.c       **** }
  41:motor.c       **** 
  42:motor.c       **** /* ============================================================
  43:motor.c       ****    Motor_Brake()
  44:motor.c       ****    Freno activo: cortocircuita las bobinas del motor.
  45:motor.c       ****    ============================================================ */
  46:motor.c       **** void Motor_Brake(void)
  47:motor.c       **** {
 116              		.loc 1 47 0
 117              		.cfi_startproc
 118              		@ args = 0, pretend = 0, frame = 0
 119              		@ frame_needed = 0, uses_anonymous_args = 0
 120 0000 08B5     		push	{r3, lr}
 121              		.cfi_def_cfa_offset 8
 122              		.cfi_offset 3, -8
 123              		.cfi_offset 14, -4
  48:motor.c       ****     Pin_IN1_Write(0u);
ARM GAS  C:\Users\user\AppData\Local\Temp\ccQbsKit.s 			page 4


 124              		.loc 1 48 0
 125 0002 0020     		movs	r0, #0
 126 0004 FFF7FEFF 		bl	Pin_IN1_Write
 127              	.LVL15:
  49:motor.c       ****     Pin_IN2_Write(0u);
 128              		.loc 1 49 0
 129 0008 0020     		movs	r0, #0
 130 000a FFF7FEFF 		bl	Pin_IN2_Write
 131              	.LVL16:
  50:motor.c       ****     PWM_Motor_WriteCompare((uint16)PWM_PERIOD);
 132              		.loc 1 50 0
 133 000e 4FF49E60 		mov	r0, #1264
 134 0012 FFF7FEFF 		bl	PWM_Motor_WriteCompare
 135              	.LVL17:
 136 0016 08BD     		pop	{r3, pc}
 137              		.cfi_endproc
 138              	.LFE64:
 139              		.size	Motor_Brake, .-Motor_Brake
 140              		.section	.text.Motor_Free,"ax",%progbits
 141              		.align	2
 142              		.global	Motor_Free
 143              		.thumb
 144              		.thumb_func
 145              		.type	Motor_Free, %function
 146              	Motor_Free:
 147              	.LFB65:
  51:motor.c       **** }
  52:motor.c       **** 
  53:motor.c       **** /* ============================================================
  54:motor.c       ****    Motor_Free()
  55:motor.c       ****    Libera el motor (sin corriente, sin freno).
  56:motor.c       ****    Estado seguro al arrancar o detener el control.
  57:motor.c       ****    ============================================================ */
  58:motor.c       **** void Motor_Free(void)
  59:motor.c       **** {
 148              		.loc 1 59 0
 149              		.cfi_startproc
 150              		@ args = 0, pretend = 0, frame = 0
 151              		@ frame_needed = 0, uses_anonymous_args = 0
 152 0000 08B5     		push	{r3, lr}
 153              		.cfi_def_cfa_offset 8
 154              		.cfi_offset 3, -8
 155              		.cfi_offset 14, -4
  60:motor.c       ****     Pin_IN1_Write(0u);
 156              		.loc 1 60 0
 157 0002 0020     		movs	r0, #0
 158 0004 FFF7FEFF 		bl	Pin_IN1_Write
 159              	.LVL18:
  61:motor.c       ****     Pin_IN2_Write(0u);
 160              		.loc 1 61 0
 161 0008 0020     		movs	r0, #0
 162 000a FFF7FEFF 		bl	Pin_IN2_Write
 163              	.LVL19:
  62:motor.c       ****     PWM_Motor_WriteCompare(0u);
 164              		.loc 1 62 0
 165 000e 0020     		movs	r0, #0
 166 0010 FFF7FEFF 		bl	PWM_Motor_WriteCompare
ARM GAS  C:\Users\user\AppData\Local\Temp\ccQbsKit.s 			page 5


 167              	.LVL20:
 168 0014 08BD     		pop	{r3, pc}
 169              		.cfi_endproc
 170              	.LFE65:
 171              		.size	Motor_Free, .-Motor_Free
 172              		.global	__aeabi_fcmpgt
 173              		.global	__aeabi_fcmplt
 174              		.global	__aeabi_fcmpge
 175              		.global	__aeabi_fmul
 176              		.global	__aeabi_fadd
 177              		.global	__aeabi_fsub
 178              		.global	__aeabi_f2iz
 179 0016 00BF     		.section	.text.PWM_Desde_Voltaje,"ax",%progbits
 180              		.align	2
 181              		.global	PWM_Desde_Voltaje
 182              		.thumb
 183              		.thumb_func
 184              		.type	PWM_Desde_Voltaje, %function
 185              	PWM_Desde_Voltaje:
 186              	.LFB66:
  63:motor.c       **** }
  64:motor.c       **** 
  65:motor.c       **** /* ============================================================
  66:motor.c       ****    PWM_Desde_Voltaje()
  67:motor.c       ****    Convierte voltaje (V) a unidades PWM en [-1264, +1264].
  68:motor.c       ****    Usa polinomio Horner grado 4 calibrado en el banco.
  69:motor.c       ****    Bidireccional: preserva signo para marcha atrás.
  70:motor.c       ****    ============================================================ */
  71:motor.c       **** int16 PWM_Desde_Voltaje(float v)
  72:motor.c       **** {
 187              		.loc 1 72 0
 188              		.cfi_startproc
 189              		@ args = 0, pretend = 0, frame = 0
 190              		@ frame_needed = 0, uses_anonymous_args = 0
 191              	.LVL21:
 192 0000 38B5     		push	{r3, r4, r5, lr}
 193              		.cfi_def_cfa_offset 16
 194              		.cfi_offset 3, -16
 195              		.cfi_offset 4, -12
 196              		.cfi_offset 5, -8
 197              		.cfi_offset 14, -4
 198 0002 0446     		mov	r4, r0
  73:motor.c       ****     /* Clamp del voltaje al rango calibrado: por encima de ~25V el polinomio
  74:motor.c       ****        cruza cero (P1<0 domina) y el motor pararía cuando un controlador de
  75:motor.c       ****        alta ganancia demanda más esfuerzo del máximo físico. */
  76:motor.c       ****     if (v >  MOTOR_V_MAX) v =  MOTOR_V_MAX;
 199              		.loc 1 76 0
 200 0004 2449     		ldr	r1, .L30
 201 0006 FFF7FEFF 		bl	__aeabi_fcmpgt
 202              	.LVL22:
 203 000a 00B1     		cbz	r0, .L17
 204 000c 224C     		ldr	r4, .L30
 205              	.LVL23:
 206              	.L17:
  77:motor.c       ****     if (v < -MOTOR_V_MAX) v = -MOTOR_V_MAX;
 207              		.loc 1 77 0
 208 000e 2349     		ldr	r1, .L30+4
ARM GAS  C:\Users\user\AppData\Local\Temp\ccQbsKit.s 			page 6


 209 0010 2046     		mov	r0, r4
 210 0012 FFF7FEFF 		bl	__aeabi_fcmplt
 211              	.LVL24:
 212 0016 00B1     		cbz	r0, .L18
 213 0018 204C     		ldr	r4, .L30+4
 214              	.LVL25:
 215              	.L18:
  78:motor.c       **** 
  79:motor.c       ****     float av = (v >= 0.0f) ? v : -v;
 216              		.loc 1 79 0
 217 001a 0021     		movs	r1, #0
 218 001c 2046     		mov	r0, r4
 219 001e FFF7FEFF 		bl	__aeabi_fcmpge
 220              	.LVL26:
 221 0022 10B9     		cbnz	r0, .L25
 222              		.loc 1 79 0 is_stmt 0 discriminator 2
 223 0024 04F10045 		add	r5, r4, #-2147483648
 224 0028 00E0     		b	.L19
 225              	.L25:
 226              		.loc 1 79 0
 227 002a 2546     		mov	r5, r4
 228              	.L19:
 229              	.LVL27:
  80:motor.c       ****     /* Saturar en float ANTES del cast a int16 para evitar wrap-around
  81:motor.c       ****        (la conversión float→int16 fuera de rango es undefined behavior). */
  82:motor.c       ****     float pwm_f = (((PWM_P1*av + PWM_P2)*av + PWM_P3)*av + PWM_P4)*av + PWM_P5;
 230              		.loc 1 82 0 is_stmt 1 discriminator 4
 231 002c 1C49     		ldr	r1, .L30+8
 232 002e 2846     		mov	r0, r5
 233 0030 FFF7FEFF 		bl	__aeabi_fmul
 234              	.LVL28:
 235 0034 1B49     		ldr	r1, .L30+12
 236 0036 FFF7FEFF 		bl	__aeabi_fadd
 237              	.LVL29:
 238 003a 0146     		mov	r1, r0
 239 003c 2846     		mov	r0, r5
 240 003e FFF7FEFF 		bl	__aeabi_fmul
 241              	.LVL30:
 242 0042 1949     		ldr	r1, .L30+16
 243 0044 FFF7FEFF 		bl	__aeabi_fsub
 244              	.LVL31:
 245 0048 0146     		mov	r1, r0
 246 004a 2846     		mov	r0, r5
 247 004c FFF7FEFF 		bl	__aeabi_fmul
 248              	.LVL32:
 249 0050 1649     		ldr	r1, .L30+20
 250 0052 FFF7FEFF 		bl	__aeabi_fadd
 251              	.LVL33:
 252 0056 0146     		mov	r1, r0
 253 0058 2846     		mov	r0, r5
 254 005a FFF7FEFF 		bl	__aeabi_fmul
 255              	.LVL34:
 256 005e 1449     		ldr	r1, .L30+24
 257 0060 FFF7FEFF 		bl	__aeabi_fadd
 258              	.LVL35:
 259 0064 0546     		mov	r5, r0
 260              	.LVL36:
ARM GAS  C:\Users\user\AppData\Local\Temp\ccQbsKit.s 			page 7


  83:motor.c       ****     if (pwm_f > (float)MOTOR_MAX) pwm_f = (float)MOTOR_MAX;
 261              		.loc 1 83 0 discriminator 4
 262 0066 1349     		ldr	r1, .L30+28
 263 0068 FFF7FEFF 		bl	__aeabi_fcmpgt
 264              	.LVL37:
 265 006c 00B1     		cbz	r0, .L20
 266              		.loc 1 83 0 is_stmt 0
 267 006e 114D     		ldr	r5, .L30+28
 268              	.LVL38:
 269              	.L20:
  84:motor.c       ****     if (pwm_f < 0.0f)             pwm_f = 0.0f;
 270              		.loc 1 84 0 is_stmt 1
 271 0070 0021     		movs	r1, #0
 272 0072 2846     		mov	r0, r5
 273 0074 FFF7FEFF 		bl	__aeabi_fcmplt
 274              	.LVL39:
 275 0078 00B1     		cbz	r0, .L21
 276 007a 0025     		movs	r5, #0
 277              	.LVL40:
 278              	.L21:
  85:motor.c       ****     int16 pwm = (int16)pwm_f;
 279              		.loc 1 85 0
 280 007c 2846     		mov	r0, r5
 281 007e FFF7FEFF 		bl	__aeabi_f2iz
 282              	.LVL41:
 283 0082 05B2     		sxth	r5, r0
 284              	.LVL42:
  86:motor.c       ****     return (v >= 0.0f) ? pwm : -pwm;
 285              		.loc 1 86 0
 286 0084 0021     		movs	r1, #0
 287 0086 2046     		mov	r0, r4
 288 0088 FFF7FEFF 		bl	__aeabi_fcmpge
 289              	.LVL43:
 290 008c 10B9     		cbnz	r0, .L28
 291              		.loc 1 86 0 is_stmt 0 discriminator 2
 292 008e 6D42     		negs	r5, r5
 293              	.LVL44:
 294 0090 28B2     		sxth	r0, r5
 295 0092 38BD     		pop	{r3, r4, r5, pc}
 296              	.LVL45:
 297              	.L28:
 298              		.loc 1 86 0
 299 0094 2846     		mov	r0, r5
  87:motor.c       **** }
 300              		.loc 1 87 0 is_stmt 1
 301 0096 38BD     		pop	{r3, r4, r5, pc}
 302              	.LVL46:
 303              	.L31:
 304              		.align	2
 305              	.L30:
 306 0098 00004041 		.word	1094713344
 307 009c 000040C1 		.word	-1052770304
 308 00a0 2AA4E1BD 		.word	-1109285846
 309 00a4 86D88140 		.word	1082251398
 310 00a8 D3EAF541 		.word	1106635475
 311 00ac CC1F0443 		.word	1124343756
 312 00b0 FB2BFA42 		.word	1123691515
ARM GAS  C:\Users\user\AppData\Local\Temp\ccQbsKit.s 			page 8


 313 00b4 00009E44 		.word	1151205376
 314              		.cfi_endproc
 315              	.LFE66:
 316              		.size	PWM_Desde_Voltaje, .-PWM_Desde_Voltaje
 317              		.text
 318              	.Letext0:
 319              		.file 2 "d:\\psoc\\psoc creator\\4.4\\psoc creator\\import\\gnu\\arm\\5.4.1\\arm-none-eabi\\includ
 320              		.file 3 "d:\\psoc\\psoc creator\\4.4\\psoc creator\\import\\gnu\\arm\\5.4.1\\arm-none-eabi\\includ
 321              		.file 4 "Generated_Source\\PSoC5/cytypes.h"
 322              		.file 5 "Generated_Source\\PSoC5/Pin_IN1.h"
 323              		.file 6 "Generated_Source\\PSoC5/Pin_IN2.h"
 324              		.file 7 "Generated_Source\\PSoC5/PWM_Motor.h"
 325              		.file 8 "./core_cm3.h"