ARM GAS  C:\Users\user\AppData\Local\Temp\ccYOsMb8.s 			page 1


   1              		.syntax unified
   2              		.cpu cortex-m3
   3              		.fpu softvfp
   4              		.eabi_attribute 20, 1
   5              		.eabi_attribute 21, 1
   6              		.eabi_attribute 23, 3
   7              		.eabi_attribute 24, 1
   8              		.eabi_attribute 25, 1
   9              		.eabi_attribute 26, 1
  10              		.eabi_attribute 30, 1
  11              		.eabi_attribute 34, 1
  12              		.eabi_attribute 18, 4
  13              		.thumb
  14              		.syntax unified
  15              		.file	"pendulo.c"
  16              		.text
  17              	.Ltext0:
  18              		.cfi_sections	.debug_frame
  19              		.section	.text.Control_Timer_ISR,"ax",%progbits
  20              		.align	2
  21              		.global	Control_Timer_ISR
  22              		.thumb
  23              		.thumb_func
  24              		.type	Control_Timer_ISR, %function
  25              	Control_Timer_ISR:
  26              	.LFB63:
  27              		.file 1 "pendulo.c"
   1:pendulo.c     **** /* ============================================================
   2:pendulo.c     ****    pendulo.c — Implementación de sensado y timer de control
   3:pendulo.c     ****    Proyecto: Péndulo Invertido — PSoC 5LP (control en MATLAB)
   4:pendulo.c     ****    ============================================================ */
   5:pendulo.c     **** #include "pendulo.h"
   6:pendulo.c     **** #include "motor.h"
   7:pendulo.c     **** 
   8:pendulo.c     **** /* ============================================================
   9:pendulo.c     ****    Variables globales compartidas
  10:pendulo.c     ****    ============================================================ */
  11:pendulo.c     **** volatile uint8  g_flag_control     = 0u;
  12:pendulo.c     **** volatile int32  g_prev_motor_count = 0;
  13:pendulo.c     **** volatile int16  g_last_u_pwm       = 0;
  14:pendulo.c     **** 
  15:pendulo.c     **** /* ============================================================
  16:pendulo.c     ****    ISR del timer de control
  17:pendulo.c     ****    Dispara cada Ts_inner = 1 / Fs_inner.
  18:pendulo.c     ****    SOLO levanta la bandera — todo el trabajo se hace en main.
  19:pendulo.c     ****    ============================================================ */
  20:pendulo.c     **** CY_ISR(Control_Timer_ISR)
  21:pendulo.c     **** {
  28              		.loc 1 21 0
  29              		.cfi_startproc
  30              		@ args = 0, pretend = 0, frame = 0
  31              		@ frame_needed = 0, uses_anonymous_args = 0
  32 0000 08B5     		push	{r3, lr}
  33              		.cfi_def_cfa_offset 8
  34              		.cfi_offset 3, -8
  35              		.cfi_offset 14, -4
  22:pendulo.c     ****     Timer_1_ReadStatusRegister();   /* limpia la bandera del timer */
ARM GAS  C:\Users\user\AppData\Local\Temp\ccYOsMb8.s 			page 2


  36              		.loc 1 22 0
  37 0002 FFF7FEFF 		bl	Timer_1_ReadStatusRegister
  38              	.LVL0:
  23:pendulo.c     ****     g_flag_control = 1u;
  39              		.loc 1 23 0
  40 0006 0122     		movs	r2, #1
  41 0008 014B     		ldr	r3, .L3
  42 000a 1A70     		strb	r2, [r3]
  43 000c 08BD     		pop	{r3, pc}
  44              	.L4:
  45 000e 00BF     		.align	2
  46              	.L3:
  47 0010 00000000 		.word	.LANCHOR0
  48              		.cfi_endproc
  49              	.LFE63:
  50              		.size	Control_Timer_ISR, .-Control_Timer_ISR
  51              		.section	.text.pendulo_init,"ax",%progbits
  52              		.align	2
  53              		.global	pendulo_init
  54              		.thumb
  55              		.thumb_func
  56              		.type	pendulo_init, %function
  57              	pendulo_init:
  58              	.LFB64:
  24:pendulo.c     **** }
  25:pendulo.c     **** 
  26:pendulo.c     **** /* ============================================================
  27:pendulo.c     ****    pendulo_init()
  28:pendulo.c     ****    Arranca los periféricos de hardware del péndulo.
  29:pendulo.c     ****    Debe llamarse antes del loop principal.
  30:pendulo.c     ****    ============================================================ */
  31:pendulo.c     **** void pendulo_init(void)
  32:pendulo.c     **** {
  59              		.loc 1 32 0
  60              		.cfi_startproc
  61              		@ args = 0, pretend = 0, frame = 0
  62              		@ frame_needed = 0, uses_anonymous_args = 0
  63 0000 10B5     		push	{r4, lr}
  64              		.cfi_def_cfa_offset 8
  65              		.cfi_offset 4, -8
  66              		.cfi_offset 14, -4
  33:pendulo.c     ****     /* ---- Motor ---- */
  34:pendulo.c     ****     PWM_Motor_Start();
  67              		.loc 1 34 0
  68 0002 FFF7FEFF 		bl	PWM_Motor_Start
  69              	.LVL1:
  35:pendulo.c     ****     Motor_Free();                    /* estado seguro al arrancar */
  70              		.loc 1 35 0
  71 0006 FFF7FEFF 		bl	Motor_Free
  72              	.LVL2:
  36:pendulo.c     **** 
  37:pendulo.c     ****     /* ---- Encoders ---- */
  38:pendulo.c     ****     QuadDec_1_Start();
  73              		.loc 1 38 0
  74 000a FFF7FEFF 		bl	QuadDec_1_Start
  75              	.LVL3:
  39:pendulo.c     ****     QuadDec_2_Start();
ARM GAS  C:\Users\user\AppData\Local\Temp\ccYOsMb8.s 			page 3


  76              		.loc 1 39 0
  77 000e FFF7FEFF 		bl	QuadDec_2_Start
  78              	.LVL4:
  40:pendulo.c     ****     g_prev_motor_count = (int32)QuadDec_1_GetCounter();
  79              		.loc 1 40 0
  80 0012 FFF7FEFF 		bl	QuadDec_1_GetCounter
  81              	.LVL5:
  82 0016 054C     		ldr	r4, .L7
  83 0018 6060     		str	r0, [r4, #4]
  41:pendulo.c     **** 
  42:pendulo.c     ****     /* ---- Timer de control (periodo por defecto: 5 ms @ 24 MHz) ---- */
  43:pendulo.c     ****     Timer_1_Start();
  84              		.loc 1 43 0
  85 001a FFF7FEFF 		bl	Timer_1_Start
  86              	.LVL6:
  44:pendulo.c     ****     isr_1_StartEx(Control_Timer_ISR);
  87              		.loc 1 44 0
  88 001e 0448     		ldr	r0, .L7+4
  89 0020 FFF7FEFF 		bl	isr_1_StartEx
  90              	.LVL7:
  45:pendulo.c     **** 
  46:pendulo.c     ****     /* ---- Estado inicial ---- */
  47:pendulo.c     ****     g_flag_control = 0u;
  91              		.loc 1 47 0
  92 0024 0023     		movs	r3, #0
  93 0026 2370     		strb	r3, [r4]
  48:pendulo.c     ****     g_last_u_pwm   = 0;
  94              		.loc 1 48 0
  95 0028 2381     		strh	r3, [r4, #8]	@ movhi
  96 002a 10BD     		pop	{r4, pc}
  97              	.L8:
  98              		.align	2
  99              	.L7:
 100 002c 00000000 		.word	.LANCHOR0
 101 0030 00000000 		.word	Control_Timer_ISR
 102              		.cfi_endproc
 103              	.LFE64:
 104              		.size	pendulo_init, .-pendulo_init
 105              		.section	.text.pendulo_read,"ax",%progbits
 106              		.align	2
 107              		.global	pendulo_read
 108              		.thumb
 109              		.thumb_func
 110              		.type	pendulo_read, %function
 111              	pendulo_read:
 112              	.LFB65:
  49:pendulo.c     **** }
  50:pendulo.c     **** 
  51:pendulo.c     **** /* ============================================================
  52:pendulo.c     ****    pendulo_read()
  53:pendulo.c     ****    Lee ambos encoders y calcula el delta de velocidad del motor.
  54:pendulo.c     ****    Llamar UNA vez por tick de control.
  55:pendulo.c     ****    ============================================================ */
  56:pendulo.c     **** void pendulo_read(int32 *theta_counts, int16 *delta_omega_counts)
  57:pendulo.c     **** {
 113              		.loc 1 57 0
 114              		.cfi_startproc
ARM GAS  C:\Users\user\AppData\Local\Temp\ccYOsMb8.s 			page 4


 115              		@ args = 0, pretend = 0, frame = 0
 116              		@ frame_needed = 0, uses_anonymous_args = 0
 117              	.LVL8:
 118 0000 38B5     		push	{r3, r4, r5, lr}
 119              		.cfi_def_cfa_offset 16
 120              		.cfi_offset 3, -16
 121              		.cfi_offset 4, -12
 122              		.cfi_offset 5, -8
 123              		.cfi_offset 14, -4
 124 0002 0546     		mov	r5, r0
 125 0004 0C46     		mov	r4, r1
  58:pendulo.c     ****     int32 curr_motor;
  59:pendulo.c     ****     int32 delta;
  60:pendulo.c     **** 
  61:pendulo.c     ****     /* ángulo del péndulo (QuadDec_2) */
  62:pendulo.c     ****     *theta_counts = (int32)QuadDec_2_GetCounter();
 126              		.loc 1 62 0
 127 0006 FFF7FEFF 		bl	QuadDec_2_GetCounter
 128              	.LVL9:
 129 000a 2860     		str	r0, [r5]
  63:pendulo.c     **** 
  64:pendulo.c     ****     /* velocidad del motor: cuentas por Ts_inner (QuadDec_1) */
  65:pendulo.c     ****     curr_motor   = (int32)QuadDec_1_GetCounter();
 130              		.loc 1 65 0
 131 000c FFF7FEFF 		bl	QuadDec_1_GetCounter
 132              	.LVL10:
  66:pendulo.c     ****     delta        = curr_motor - g_prev_motor_count;
 133              		.loc 1 66 0
 134 0010 074A     		ldr	r2, .L15
 135 0012 5368     		ldr	r3, [r2, #4]
 136 0014 C31A     		subs	r3, r0, r3
 137              	.LVL11:
  67:pendulo.c     ****     g_prev_motor_count = curr_motor;
 138              		.loc 1 67 0
 139 0016 5060     		str	r0, [r2, #4]
  68:pendulo.c     **** 
  69:pendulo.c     ****     /* saturar a rango int16 (no debería ocurrir a velocidades normales) */
  70:pendulo.c     ****     if (delta >  32767) delta =  32767;
 140              		.loc 1 70 0
 141 0018 B3F5004F 		cmp	r3, #32768
 142 001c 01DB     		blt	.L10
 143 001e 47F6FF73 		movw	r3, #32767
 144              	.LVL12:
 145              	.L10:
  71:pendulo.c     ****     if (delta < -32768) delta = -32768;
 146              		.loc 1 71 0
 147 0022 13F5004F 		cmn	r3, #32768
 148 0026 00DA     		bge	.L11
 149 0028 024B     		ldr	r3, .L15+4
 150              	.LVL13:
 151              	.L11:
  72:pendulo.c     ****     *delta_omega_counts = (int16)delta;
 152              		.loc 1 72 0
 153 002a 2380     		strh	r3, [r4]	@ movhi
 154 002c 38BD     		pop	{r3, r4, r5, pc}
 155              	.LVL14:
 156              	.L16:
ARM GAS  C:\Users\user\AppData\Local\Temp\ccYOsMb8.s 			page 5


 157 002e 00BF     		.align	2
 158              	.L15:
 159 0030 00000000 		.word	.LANCHOR0
 160 0034 0080FFFF 		.word	-32768
 161              		.cfi_endproc
 162              	.LFE65:
 163              		.size	pendulo_read, .-pendulo_read
 164              		.global	__aeabi_fcmpgt
 165              		.global	__aeabi_fdiv
 166              		.global	__aeabi_f2uiz
 167              		.section	.text.pendulo_timer_set_fs,"ax",%progbits
 168              		.align	2
 169              		.global	pendulo_timer_set_fs
 170              		.thumb
 171              		.thumb_func
 172              		.type	pendulo_timer_set_fs, %function
 173              	pendulo_timer_set_fs:
 174              	.LFB66:
  73:pendulo.c     **** }
  74:pendulo.c     **** 
  75:pendulo.c     **** /* ============================================================
  76:pendulo.c     ****    pendulo_timer_set_fs()
  77:pendulo.c     ****    Recalcula y escribe el periodo del Timer_1.
  78:pendulo.c     ****    Timer_1 debe estar configurado con Clock = 24 MHz en PSoC Creator.
  79:pendulo.c     ****    ============================================================ */
  80:pendulo.c     **** void pendulo_timer_set_fs(float fs_inner_hz)
  81:pendulo.c     **** {
 175              		.loc 1 81 0
 176              		.cfi_startproc
 177              		@ args = 0, pretend = 0, frame = 0
 178              		@ frame_needed = 0, uses_anonymous_args = 0
 179              	.LVL15:
 180 0000 10B5     		push	{r4, lr}
 181              		.cfi_def_cfa_offset 8
 182              		.cfi_offset 4, -8
 183              		.cfi_offset 14, -4
 184 0002 0446     		mov	r4, r0
  82:pendulo.c     ****     uint32 period;
  83:pendulo.c     **** 
  84:pendulo.c     ****     if (!(fs_inner_hz > 0.0f)) return;
 185              		.loc 1 84 0
 186 0004 0021     		movs	r1, #0
 187 0006 FFF7FEFF 		bl	__aeabi_fcmpgt
 188              	.LVL16:
 189 000a 88B1     		cbz	r0, .L17
  85:pendulo.c     ****     if (fs_inner_hz > 10000.0f) fs_inner_hz = 10000.0f; /* máx 10 kHz */
 190              		.loc 1 85 0
 191 000c 0949     		ldr	r1, .L26
 192 000e 2046     		mov	r0, r4
 193 0010 FFF7FEFF 		bl	__aeabi_fcmpgt
 194              	.LVL17:
 195 0014 00B1     		cbz	r0, .L20
 196 0016 074C     		ldr	r4, .L26
 197              	.LVL18:
 198              	.L20:
  86:pendulo.c     **** 
  87:pendulo.c     ****     period = (uint32)((float)TIMER_CLOCK_HZ / fs_inner_hz);
ARM GAS  C:\Users\user\AppData\Local\Temp\ccYOsMb8.s 			page 6


 199              		.loc 1 87 0
 200 0018 2146     		mov	r1, r4
 201 001a 0748     		ldr	r0, .L26+4
 202 001c FFF7FEFF 		bl	__aeabi_fdiv
 203              	.LVL19:
 204 0020 FFF7FEFF 		bl	__aeabi_f2uiz
 205              	.LVL20:
  88:pendulo.c     ****     if (period < 2u) period = 2u;   /* mínimo 2 cuentas */
 206              		.loc 1 88 0
 207 0024 0128     		cmp	r0, #1
 208 0026 00D8     		bhi	.L21
 209 0028 0220     		movs	r0, #2
 210              	.LVL21:
 211              	.L21:
  89:pendulo.c     **** 
  90:pendulo.c     ****     /* Timer_1_WritePeriod toma (period - 1) en PSoC 5LP */
  91:pendulo.c     ****     Timer_1_WritePeriod(period - 1u);
 212              		.loc 1 91 0
 213 002a 0138     		subs	r0, r0, #1
 214              	.LVL22:
 215 002c FFF7FEFF 		bl	Timer_1_WritePeriod
 216              	.LVL23:
 217              	.L17:
 218 0030 10BD     		pop	{r4, pc}
 219              	.LVL24:
 220              	.L27:
 221 0032 00BF     		.align	2
 222              	.L26:
 223 0034 00401C46 		.word	1176256512
 224 0038 001BB74B 		.word	1270291200
 225              		.cfi_endproc
 226              	.LFE66:
 227              		.size	pendulo_timer_set_fs, .-pendulo_timer_set_fs
 228              		.global	g_last_u_pwm
 229              		.global	g_prev_motor_count
 230              		.global	g_flag_control
 231              		.bss
 232              		.align	2
 233              		.set	.LANCHOR0,. + 0
 234              		.type	g_flag_control, %object
 235              		.size	g_flag_control, 1
 236              	g_flag_control:
 237 0000 00       		.space	1
 238 0001 000000   		.space	3
 239              		.type	g_prev_motor_count, %object
 240              		.size	g_prev_motor_count, 4
 241              	g_prev_motor_count:
 242 0004 00000000 		.space	4
 243              		.type	g_last_u_pwm, %object
 244              		.size	g_last_u_pwm, 2
 245              	g_last_u_pwm:
 246 0008 0000     		.space	2
 247              		.text
 248              	.Letext0:
 249              		.file 2 "d:\\psoc\\psoc creator\\4.4\\psoc creator\\import\\gnu\\arm\\5.4.1\\arm-none-eabi\\includ
 250              		.file 3 "d:\\psoc\\psoc creator\\4.4\\psoc creator\\import\\gnu\\arm\\5.4.1\\arm-none-eabi\\includ
 251              		.file 4 "Generated_Source\\PSoC5/cytypes.h"
ARM GAS  C:\Users\user\AppData\Local\Temp\ccYOsMb8.s 			page 7


 252              		.file 5 "Generated_Source\\PSoC5/core_cm3.h"
 253              		.file 6 "Generated_Source\\PSoC5/Timer_1.h"
 254              		.file 7 "Generated_Source\\PSoC5/PWM_Motor.h"
 255              		.file 8 "motor.h"
 256              		.file 9 "Generated_Source\\PSoC5/QuadDec_1.h"
 257              		.file 10 "Generated_Source\\PSoC5/QuadDec_2.h"
 258              		.file 11 "Generated_Source\\PSoC5/isr_1.h"