ARM GAS  C:\Users\user\AppData\Local\Temp\ccQXzeha.s 			page 1


   1              		.syntax unified
   2              		.cpu cortex-m3
   3              		.fpu softvfp
   4              		.eabi_attribute 20, 1
   5              		.eabi_attribute 21, 1
   6              		.eabi_attribute 23, 3
   7              		.eabi_attribute 24, 1
   8              		.eabi_attribute 25, 1
   9              		.eabi_attribute 26, 1
  10              		.eabi_attribute 30, 1
  11              		.eabi_attribute 34, 1
  12              		.eabi_attribute 18, 4
  13              		.thumb
  14              		.syntax unified
  15              		.file	"pid.c"
  16              		.text
  17              	.Ltext0:
  18              		.cfi_sections	.debug_frame
  19              		.global	__aeabi_fsub
  20              		.global	__aeabi_fmul
  21              		.global	__aeabi_fadd
  22              		.global	__aeabi_fcmpgt
  23              		.global	__aeabi_fcmplt
  24              		.global	__aeabi_fdiv
  25              		.section	.text.PID_Compute,"ax",%progbits
  26              		.align	2
  27              		.global	PID_Compute
  28              		.thumb
  29              		.thumb_func
  30              		.type	PID_Compute, %function
  31              	PID_Compute:
  32              	.LFB63:
  33              		.file 1 "pid.c"
   1:pid.c         **** #include "pid.h"
   2:pid.c         **** #include "motor.h"   /* SAMPLE_TIME_S */
   3:pid.c         **** 
   4:pid.c         **** float PID_Compute(PID_t *pid, float setpoint, float measured)
   5:pid.c         **** {
  34              		.loc 1 5 0
  35              		.cfi_startproc
  36              		@ args = 0, pretend = 0, frame = 0
  37              		@ frame_needed = 0, uses_anonymous_args = 0
  38              	.LVL0:
  39 0000 2DE9F843 		push	{r3, r4, r5, r6, r7, r8, r9, lr}
  40              		.cfi_def_cfa_offset 32
  41              		.cfi_offset 3, -32
  42              		.cfi_offset 4, -28
  43              		.cfi_offset 5, -24
  44              		.cfi_offset 6, -20
  45              		.cfi_offset 7, -16
  46              		.cfi_offset 8, -12
  47              		.cfi_offset 9, -8
  48              		.cfi_offset 14, -4
  49 0004 0446     		mov	r4, r0
  50 0006 0846     		mov	r0, r1
  51              	.LVL1:
   6:pid.c         ****     float error  = setpoint - measured;
ARM GAS  C:\Users\user\AppData\Local\Temp\ccQXzeha.s 			page 2


  52              		.loc 1 6 0
  53 0008 1146     		mov	r1, r2
  54              	.LVL2:
  55 000a FFF7FEFF 		bl	__aeabi_fsub
  56              	.LVL3:
  57 000e 0646     		mov	r6, r0
  58              	.LVL4:
   7:pid.c         ****     float p_term = pid->kp * error;
  59              		.loc 1 7 0
  60 0010 2168     		ldr	r1, [r4]	@ float
  61 0012 FFF7FEFF 		bl	__aeabi_fmul
  62              	.LVL5:
  63 0016 8046     		mov	r8, r0
  64              	.LVL6:
   8:pid.c         **** 
   9:pid.c         ****     /* Integrador con anti-windup por saturación (clamping) */
  10:pid.c         ****     pid->integrator += pid->ki * error * SAMPLE_TIME_S;
  65              		.loc 1 10 0
  66 0018 6168     		ldr	r1, [r4, #4]	@ float
  67 001a 3046     		mov	r0, r6
  68              	.LVL7:
  69 001c FFF7FEFF 		bl	__aeabi_fmul
  70              	.LVL8:
  71 0020 1E49     		ldr	r1, .L11
  72 0022 FFF7FEFF 		bl	__aeabi_fmul
  73              	.LVL9:
  74 0026 E168     		ldr	r1, [r4, #12]	@ float
  75 0028 FFF7FEFF 		bl	__aeabi_fadd
  76              	.LVL10:
  77 002c 0746     		mov	r7, r0
  78 002e E060     		str	r0, [r4, #12]	@ float
  11:pid.c         ****     if      (pid->integrator > pid->out_max) pid->integrator = pid->out_max;
  79              		.loc 1 11 0
  80 0030 6569     		ldr	r5, [r4, #20]	@ float
  81 0032 2946     		mov	r1, r5
  82 0034 FFF7FEFF 		bl	__aeabi_fcmpgt
  83              	.LVL11:
  84 0038 08B1     		cbz	r0, .L9
  85              		.loc 1 11 0 is_stmt 0 discriminator 1
  86 003a E560     		str	r5, [r4, #12]	@ float
  87 003c 08E0     		b	.L4
  88              	.L9:
  12:pid.c         ****     else if (pid->integrator < pid->out_min) pid->integrator = pid->out_min;
  89              		.loc 1 12 0 is_stmt 1
  90 003e D4F81890 		ldr	r9, [r4, #24]	@ float
  91 0042 4946     		mov	r1, r9
  92 0044 3846     		mov	r0, r7
  93 0046 FFF7FEFF 		bl	__aeabi_fcmplt
  94              	.LVL12:
  95 004a 08B1     		cbz	r0, .L4
  96              		.loc 1 12 0 is_stmt 0 discriminator 1
  97 004c C4F80C90 		str	r9, [r4, #12]	@ float
  98              	.L4:
  13:pid.c         **** 
  14:pid.c         ****     float d_term = pid->kd * (error - pid->prev_error) / SAMPLE_TIME_S;
  99              		.loc 1 14 0 is_stmt 1
 100 0050 A768     		ldr	r7, [r4, #8]	@ float
ARM GAS  C:\Users\user\AppData\Local\Temp\ccQXzeha.s 			page 3


 101 0052 2169     		ldr	r1, [r4, #16]	@ float
 102 0054 3046     		mov	r0, r6
 103 0056 FFF7FEFF 		bl	__aeabi_fsub
 104              	.LVL13:
 105 005a 0146     		mov	r1, r0
 106 005c 3846     		mov	r0, r7
 107 005e FFF7FEFF 		bl	__aeabi_fmul
 108              	.LVL14:
 109 0062 0E49     		ldr	r1, .L11
 110 0064 FFF7FEFF 		bl	__aeabi_fdiv
 111              	.LVL15:
 112 0068 0746     		mov	r7, r0
 113              	.LVL16:
  15:pid.c         ****     pid->prev_error = error;
 114              		.loc 1 15 0
 115 006a 2661     		str	r6, [r4, #16]	@ float
  16:pid.c         **** 
  17:pid.c         ****     float output = p_term + pid->integrator + d_term;
 116              		.loc 1 17 0
 117 006c E168     		ldr	r1, [r4, #12]	@ float
 118 006e 4046     		mov	r0, r8
 119              	.LVL17:
 120 0070 FFF7FEFF 		bl	__aeabi_fadd
 121              	.LVL18:
 122 0074 0146     		mov	r1, r0
 123 0076 3846     		mov	r0, r7
 124 0078 FFF7FEFF 		bl	__aeabi_fadd
 125              	.LVL19:
 126 007c 0646     		mov	r6, r0
 127              	.LVL20:
  18:pid.c         ****     if      (output > pid->out_max) output = pid->out_max;
 128              		.loc 1 18 0
 129 007e 0146     		mov	r1, r0
 130 0080 2846     		mov	r0, r5
 131              	.LVL21:
 132 0082 FFF7FEFF 		bl	__aeabi_fcmplt
 133              	.LVL22:
 134 0086 30B9     		cbnz	r0, .L6
  19:pid.c         ****     else if (output < pid->out_min) output = pid->out_min;
 135              		.loc 1 19 0
 136 0088 A569     		ldr	r5, [r4, #24]	@ float
 137 008a 2946     		mov	r1, r5
 138 008c 3046     		mov	r0, r6
 139 008e FFF7FEFF 		bl	__aeabi_fcmplt
 140              	.LVL23:
 141 0092 00B9     		cbnz	r0, .L6
  17:pid.c         ****     if      (output > pid->out_max) output = pid->out_max;
 142              		.loc 1 17 0
 143 0094 3546     		mov	r5, r6
 144              	.L6:
 145              	.LVL24:
  20:pid.c         **** 
  21:pid.c         ****     return output;
  22:pid.c         **** }
 146              		.loc 1 22 0
 147 0096 2846     		mov	r0, r5
 148 0098 BDE8F883 		pop	{r3, r4, r5, r6, r7, r8, r9, pc}
ARM GAS  C:\Users\user\AppData\Local\Temp\ccQXzeha.s 			page 4


 149              	.LVL25:
 150              	.L12:
 151              		.align	2
 152              	.L11:
 153 009c 0AD7A33B 		.word	1000593162
 154              		.cfi_endproc
 155              	.LFE63:
 156              		.size	PID_Compute, .-PID_Compute
 157              		.section	.text.PID_Reset,"ax",%progbits
 158              		.align	2
 159              		.global	PID_Reset
 160              		.thumb
 161              		.thumb_func
 162              		.type	PID_Reset, %function
 163              	PID_Reset:
 164              	.LFB64:
  23:pid.c         **** 
  24:pid.c         **** void PID_Reset(PID_t *pid)
  25:pid.c         **** {
 165              		.loc 1 25 0
 166              		.cfi_startproc
 167              		@ args = 0, pretend = 0, frame = 0
 168              		@ frame_needed = 0, uses_anonymous_args = 0
 169              		@ link register save eliminated.
 170              	.LVL26:
  26:pid.c         ****     pid->integrator = 0.0f;
 171              		.loc 1 26 0
 172 0000 0023     		movs	r3, #0
 173 0002 C360     		str	r3, [r0, #12]	@ float
  27:pid.c         ****     pid->prev_error  = 0.0f;
 174              		.loc 1 27 0
 175 0004 0361     		str	r3, [r0, #16]	@ float
 176 0006 7047     		bx	lr
 177              		.cfi_endproc
 178              	.LFE64:
 179              		.size	PID_Reset, .-PID_Reset
 180              		.text
 181              	.Letext0:
 182              		.file 2 "pid.h"
 183              		.file 3 "d:\\psoc\\psoc creator\\4.4\\psoc creator\\import\\gnu\\arm\\5.4.1\\arm-none-eabi\\includ
 184              		.file 4 "d:\\psoc\\psoc creator\\4.4\\psoc creator\\import\\gnu\\arm\\5.4.1\\arm-none-eabi\\includ
 185              		.file 5 "./core_cm3.h"