ARM GAS  C:\Users\user\AppData\Local\Temp\ccNT2PNx.s 			page 1


   1              		.syntax unified
   2              		.cpu cortex-m3
   3              		.fpu softvfp
   4              		.eabi_attribute 20, 1
   5              		.eabi_attribute 21, 1
   6              		.eabi_attribute 23, 3
   7              		.eabi_attribute 24, 1
   8              		.eabi_attribute 25, 1
   9              		.eabi_attribute 26, 1
  10              		.eabi_attribute 30, 1
  11              		.eabi_attribute 34, 1
  12              		.eabi_attribute 18, 4
  13              		.thumb
  14              		.syntax unified
  15              		.file	"uartp_pend.c"
  16              		.text
  17              	.Ltext0:
  18              		.cfi_sections	.debug_frame
  19              		.section	.text.ll_wait_byte,"ax",%progbits
  20              		.align	2
  21              		.thumb
  22              		.thumb_func
  23              		.type	ll_wait_byte, %function
  24              	ll_wait_byte:
  25              	.LFB64:
  26              		.file 1 "uartp_pend.c"
   1:uartp_pend.c  **** /* ============================================================
   2:uartp_pend.c  ****    uartp_pend.c — Protocolo UART PSoC ↔ MATLAB
   3:uartp_pend.c  ****    Proyecto: Péndulo Invertido — PSoC 5LP (control en MATLAB)
   4:uartp_pend.c  ****    ============================================================ */
   5:uartp_pend.c  **** #include "uartp_pend.h"
   6:uartp_pend.c  **** #include "pendulo.h"
   7:uartp_pend.c  **** #include "motor.h"
   8:uartp_pend.c  **** 
   9:uartp_pend.c  **** /* ============================================================
  10:uartp_pend.c  ****    Estado global del protocolo
  11:uartp_pend.c  ****    ============================================================ */
  12:uartp_pend.c  **** volatile uartp_sys_mode_t UARTP_SysMode = UARTP_SYS_COMMAND;
  13:uartp_pend.c  **** 
  14:uartp_pend.c  **** /* ============================================================
  15:uartp_pend.c  ****    Estado interno del parser RX en modo CONTROL
  16:uartp_pend.c  ****    Máquina de estados de 2 bytes:
  17:uartp_pend.c  ****      IDLE       → espera primer byte de u_pwm (o 's' para stop)
  18:uartp_pend.c  ****      GOT_LSB    → ya tiene u_lsb, espera u_msb
  19:uartp_pend.c  ****    ============================================================ */
  20:uartp_pend.c  **** #define RX_IDLE    0u
  21:uartp_pend.c  **** #define RX_GOT_LSB 1u
  22:uartp_pend.c  **** static uint8 s_rx_state = RX_IDLE;
  23:uartp_pend.c  **** static uint8 s_rx_lsb   = 0u;
  24:uartp_pend.c  **** 
  25:uartp_pend.c  **** /* ============================================================
  26:uartp_pend.c  ****    LL helpers (handshake word-by-word, igual que uartp_sw.c)
  27:uartp_pend.c  ****    ============================================================ */
  28:uartp_pend.c  **** #define WORD_TIMEOUT_MS  500u
  29:uartp_pend.c  **** #define MAX_RETRIES      50u
  30:uartp_pend.c  **** 
  31:uartp_pend.c  **** static void ll_putchar(uint8 c)
ARM GAS  C:\Users\user\AppData\Local\Temp\ccNT2PNx.s 			page 2


  32:uartp_pend.c  **** {
  33:uartp_pend.c  ****     UART_1_WriteTxData(c);
  34:uartp_pend.c  **** }
  35:uartp_pend.c  **** 
  36:uartp_pend.c  **** /* Espera un byte en RX con timeout (devuelve 0xFF si timeout). */
  37:uartp_pend.c  **** static uint8 ll_wait_byte(uint32 timeout_ms)
  38:uartp_pend.c  **** {
  27              		.loc 1 38 0
  28              		.cfi_startproc
  29              		@ args = 0, pretend = 0, frame = 0
  30              		@ frame_needed = 0, uses_anonymous_args = 0
  31              	.LVL0:
  32 0000 38B5     		push	{r3, r4, r5, lr}
  33              		.cfi_def_cfa_offset 16
  34              		.cfi_offset 3, -16
  35              		.cfi_offset 4, -12
  36              		.cfi_offset 5, -8
  37              		.cfi_offset 14, -4
  38 0002 0546     		mov	r5, r0
  39              	.LVL1:
  39:uartp_pend.c  ****     uint32 cnt = 0u;
  40              		.loc 1 39 0
  41 0004 0024     		movs	r4, #0
  40:uartp_pend.c  ****     while (UART_1_GetRxBufferSize() == 0u)
  42              		.loc 1 40 0
  43 0006 05E0     		b	.L2
  44              	.LVL2:
  45              	.L4:
  41:uartp_pend.c  ****     {
  42:uartp_pend.c  ****         CyDelay(1u);
  46              		.loc 1 42 0
  47 0008 0120     		movs	r0, #1
  48 000a FFF7FEFF 		bl	CyDelay
  49              	.LVL3:
  43:uartp_pend.c  ****         if (++cnt >= timeout_ms) return 0xFFu;
  50              		.loc 1 43 0
  51 000e 0134     		adds	r4, r4, #1
  52              	.LVL4:
  53 0010 AC42     		cmp	r4, r5
  54 0012 06D2     		bcs	.L5
  55              	.LVL5:
  56              	.L2:
  40:uartp_pend.c  ****     while (UART_1_GetRxBufferSize() == 0u)
  57              		.loc 1 40 0
  58 0014 FFF7FEFF 		bl	UART_1_GetRxBufferSize
  59              	.LVL6:
  60 0018 0028     		cmp	r0, #0
  61 001a F5D0     		beq	.L4
  44:uartp_pend.c  ****     }
  45:uartp_pend.c  ****     return UART_1_ReadRxData();
  62              		.loc 1 45 0
  63 001c FFF7FEFF 		bl	UART_1_ReadRxData
  64              	.LVL7:
  65 0020 38BD     		pop	{r3, r4, r5, pc}
  66              	.LVL8:
  67              	.L5:
  43:uartp_pend.c  ****         if (++cnt >= timeout_ms) return 0xFFu;
ARM GAS  C:\Users\user\AppData\Local\Temp\ccNT2PNx.s 			page 3


  68              		.loc 1 43 0
  69 0022 FF20     		movs	r0, #255
  46:uartp_pend.c  **** }
  70              		.loc 1 46 0
  71 0024 38BD     		pop	{r3, r4, r5, pc}
  72              		.cfi_endproc
  73              	.LFE64:
  74              		.size	ll_wait_byte, .-ll_wait_byte
  75 0026 00BF     		.section	.text.ll_putchar,"ax",%progbits
  76              		.align	2
  77              		.thumb
  78              		.thumb_func
  79              		.type	ll_putchar, %function
  80              	ll_putchar:
  81              	.LFB63:
  32:uartp_pend.c  ****     UART_1_WriteTxData(c);
  82              		.loc 1 32 0
  83              		.cfi_startproc
  84              		@ args = 0, pretend = 0, frame = 0
  85              		@ frame_needed = 0, uses_anonymous_args = 0
  86              	.LVL9:
  87 0000 08B5     		push	{r3, lr}
  88              		.cfi_def_cfa_offset 8
  89              		.cfi_offset 3, -8
  90              		.cfi_offset 14, -4
  33:uartp_pend.c  **** }
  91              		.loc 1 33 0
  92 0002 FFF7FEFF 		bl	UART_1_WriteTxData
  93              	.LVL10:
  94 0006 08BD     		pop	{r3, pc}
  95              		.cfi_endproc
  96              	.LFE63:
  97              		.size	ll_putchar, .-ll_putchar
  98              		.section	.text.ll_recv_word4,"ax",%progbits
  99              		.align	2
 100              		.thumb
 101              		.thumb_func
 102              		.type	ll_recv_word4, %function
 103              	ll_recv_word4:
 104              	.LFB65:
  47:uartp_pend.c  **** 
  48:uartp_pend.c  **** /* Recibe una word de 4 bytes con eco-confirmación (igual que MATLAB).
  49:uartp_pend.c  ****    Devuelve 1 si OK, 0 si timeout/retries agotados. */
  50:uartp_pend.c  **** static uint8 ll_recv_word4(uint8 *out4)
  51:uartp_pend.c  **** {
 105              		.loc 1 51 0
 106              		.cfi_startproc
 107              		@ args = 0, pretend = 0, frame = 8
 108              		@ frame_needed = 0, uses_anonymous_args = 0
 109              	.LVL11:
 110 0000 70B5     		push	{r4, r5, r6, lr}
 111              		.cfi_def_cfa_offset 16
 112              		.cfi_offset 4, -16
 113              		.cfi_offset 5, -12
 114              		.cfi_offset 6, -8
 115              		.cfi_offset 14, -4
 116 0002 82B0     		sub	sp, sp, #8
ARM GAS  C:\Users\user\AppData\Local\Temp\ccNT2PNx.s 			page 4


 117              		.cfi_def_cfa_offset 24
 118 0004 0646     		mov	r6, r0
 119              	.LVL12:
  52:uartp_pend.c  ****     uint8 i;
  53:uartp_pend.c  ****     uint8 w[4];
  54:uartp_pend.c  ****     uint8 ctl;
  55:uartp_pend.c  ****     uint8 tries = 0u;
 120              		.loc 1 55 0
 121 0006 0025     		movs	r5, #0
 122              	.LVL13:
 123              	.L16:
  56:uartp_pend.c  **** 
  57:uartp_pend.c  ****     for (;;)
  58:uartp_pend.c  ****     {
  59:uartp_pend.c  ****         if (++tries > MAX_RETRIES) return 0u;
 124              		.loc 1 59 0
 125 0008 0135     		adds	r5, r5, #1
 126              	.LVL14:
 127 000a EDB2     		uxtb	r5, r5
 128              	.LVL15:
 129 000c 322D     		cmp	r5, #50
 130 000e 37D8     		bhi	.L17
 131 0010 0024     		movs	r4, #0
 132 0012 0BE0     		b	.L11
 133              	.LVL16:
 134              	.L12:
  60:uartp_pend.c  **** 
  61:uartp_pend.c  ****         /* Recibir 4 bytes */
  62:uartp_pend.c  ****         for (i = 0u; i < 4u; i++)
  63:uartp_pend.c  ****         {
  64:uartp_pend.c  ****             w[i] = ll_wait_byte(WORD_TIMEOUT_MS);
 135              		.loc 1 64 0
 136 0014 4FF4FA70 		mov	r0, #500
 137 0018 FFF7FEFF 		bl	ll_wait_byte
 138              	.LVL17:
 139 001c 02AB     		add	r3, sp, #8
 140 001e 2344     		add	r3, r3, r4
 141 0020 03F8040C 		strb	r0, [r3, #-4]
  65:uartp_pend.c  ****             if (w[i] == 0xFFu) return 0u;  /* timeout */
 142              		.loc 1 65 0
 143 0024 FF28     		cmp	r0, #255
 144 0026 2DD0     		beq	.L18
  62:uartp_pend.c  ****         {
 145              		.loc 1 62 0 discriminator 2
 146 0028 0134     		adds	r4, r4, #1
 147              	.LVL18:
 148 002a E4B2     		uxtb	r4, r4
 149              	.LVL19:
 150              	.L11:
  62:uartp_pend.c  ****         {
 151              		.loc 1 62 0 is_stmt 0 discriminator 1
 152 002c 032C     		cmp	r4, #3
 153 002e F1D9     		bls	.L12
 154 0030 0024     		movs	r4, #0
 155              	.LVL20:
 156 0032 07E0     		b	.L13
 157              	.LVL21:
ARM GAS  C:\Users\user\AppData\Local\Temp\ccNT2PNx.s 			page 5


 158              	.L14:
  66:uartp_pend.c  ****         }
  67:uartp_pend.c  **** 
  68:uartp_pend.c  ****         /* Echo (igual que MATLAB espera) */
  69:uartp_pend.c  ****         for (i = 0u; i < 4u; i++) ll_putchar(w[i]);
 159              		.loc 1 69 0 is_stmt 1 discriminator 3
 160 0034 02AB     		add	r3, sp, #8
 161 0036 2344     		add	r3, r3, r4
 162 0038 13F8040C 		ldrb	r0, [r3, #-4]	@ zero_extendqisi2
 163 003c FFF7FEFF 		bl	ll_putchar
 164              	.LVL22:
 165 0040 0134     		adds	r4, r4, #1
 166              	.LVL23:
 167 0042 E4B2     		uxtb	r4, r4
 168              	.LVL24:
 169              	.L13:
 170              		.loc 1 69 0 is_stmt 0 discriminator 1
 171 0044 032C     		cmp	r4, #3
 172 0046 F5D9     		bls	.L14
  70:uartp_pend.c  **** 
  71:uartp_pend.c  ****         /* Esperar ACK o NAK de MATLAB */
  72:uartp_pend.c  ****         ctl = ll_wait_byte(WORD_TIMEOUT_MS);
 173              		.loc 1 72 0 is_stmt 1
 174 0048 4FF4FA70 		mov	r0, #500
 175 004c FFF7FEFF 		bl	ll_wait_byte
 176              	.LVL25:
  73:uartp_pend.c  ****         if (ctl == 0xFFu) return 0u;
 177              		.loc 1 73 0
 178 0050 FF28     		cmp	r0, #255
 179 0052 19D0     		beq	.L19
  74:uartp_pend.c  **** 
  75:uartp_pend.c  ****         if (ctl == (uint8)'A')
 180              		.loc 1 75 0
 181 0054 4128     		cmp	r0, #65
 182 0056 0FD1     		bne	.L15
  76:uartp_pend.c  ****         {
  77:uartp_pend.c  ****             /* MATLAB confirmó → enviar ACK y retornar */
  78:uartp_pend.c  ****             ll_putchar((uint8)'A');
 183              		.loc 1 78 0
 184 0058 FFF7FEFF 		bl	ll_putchar
 185              	.LVL26:
  79:uartp_pend.c  ****             out4[0] = w[0]; out4[1] = w[1];
 186              		.loc 1 79 0
 187 005c 9DF80430 		ldrb	r3, [sp, #4]	@ zero_extendqisi2
 188 0060 3370     		strb	r3, [r6]
 189 0062 9DF80530 		ldrb	r3, [sp, #5]	@ zero_extendqisi2
 190 0066 7370     		strb	r3, [r6, #1]
  80:uartp_pend.c  ****             out4[2] = w[2]; out4[3] = w[3];
 191              		.loc 1 80 0
 192 0068 9DF80630 		ldrb	r3, [sp, #6]	@ zero_extendqisi2
 193 006c B370     		strb	r3, [r6, #2]
 194 006e 9DF80730 		ldrb	r3, [sp, #7]	@ zero_extendqisi2
 195 0072 F370     		strb	r3, [r6, #3]
  81:uartp_pend.c  ****             return 1u;
 196              		.loc 1 81 0
 197 0074 0120     		movs	r0, #1
 198 0076 08E0     		b	.L10
ARM GAS  C:\Users\user\AppData\Local\Temp\ccNT2PNx.s 			page 6


 199              	.LVL27:
 200              	.L15:
  82:uartp_pend.c  ****         }
  83:uartp_pend.c  ****         else
  84:uartp_pend.c  ****         {
  85:uartp_pend.c  ****             /* MATLAB envió NAK → re-enviar NAK y reintentar */
  86:uartp_pend.c  ****             ll_putchar((uint8)'N');
 201              		.loc 1 86 0
 202 0078 4E20     		movs	r0, #78
 203              	.LVL28:
 204 007a FFF7FEFF 		bl	ll_putchar
 205              	.LVL29:
  87:uartp_pend.c  ****         }
  88:uartp_pend.c  ****     }
 206              		.loc 1 88 0
 207 007e C3E7     		b	.L16
 208              	.LVL30:
 209              	.L17:
  59:uartp_pend.c  **** 
 210              		.loc 1 59 0
 211 0080 0020     		movs	r0, #0
 212 0082 02E0     		b	.L10
 213              	.LVL31:
 214              	.L18:
  65:uartp_pend.c  ****         }
 215              		.loc 1 65 0
 216 0084 0020     		movs	r0, #0
 217 0086 00E0     		b	.L10
 218              	.LVL32:
 219              	.L19:
  73:uartp_pend.c  **** 
 220              		.loc 1 73 0
 221 0088 0020     		movs	r0, #0
 222              	.LVL33:
 223              	.L10:
  89:uartp_pend.c  **** }
 224              		.loc 1 89 0
 225 008a 02B0     		add	sp, sp, #8
 226              		.cfi_def_cfa_offset 16
 227              		@ sp needed
 228 008c 70BD     		pop	{r4, r5, r6, pc}
 229              		.cfi_endproc
 230              	.LFE65:
 231              		.size	ll_recv_word4, .-ll_recv_word4
 232 008e 00BF     		.section	.text.UARTP_Init,"ax",%progbits
 233              		.align	2
 234              		.global	UARTP_Init
 235              		.thumb
 236              		.thumb_func
 237              		.type	UARTP_Init, %function
 238              	UARTP_Init:
 239              	.LFB66:
  90:uartp_pend.c  **** 
  91:uartp_pend.c  **** /* ============================================================
  92:uartp_pend.c  ****    UARTP_Init()
  93:uartp_pend.c  ****    ============================================================ */
  94:uartp_pend.c  **** void UARTP_Init(void)
ARM GAS  C:\Users\user\AppData\Local\Temp\ccNT2PNx.s 			page 7


  95:uartp_pend.c  **** {
 240              		.loc 1 95 0
 241              		.cfi_startproc
 242              		@ args = 0, pretend = 0, frame = 0
 243              		@ frame_needed = 0, uses_anonymous_args = 0
 244 0000 08B5     		push	{r3, lr}
 245              		.cfi_def_cfa_offset 8
 246              		.cfi_offset 3, -8
 247              		.cfi_offset 14, -4
  96:uartp_pend.c  ****     UART_1_Start();
 248              		.loc 1 96 0
 249 0002 FFF7FEFF 		bl	UART_1_Start
 250              	.LVL34:
  97:uartp_pend.c  ****     UARTP_SysMode = UARTP_SYS_COMMAND;
 251              		.loc 1 97 0
 252 0006 034B     		ldr	r3, .L23
 253 0008 0022     		movs	r2, #0
 254 000a 1A70     		strb	r2, [r3]
  98:uartp_pend.c  ****     s_rx_state = RX_IDLE;
 255              		.loc 1 98 0
 256 000c 5A70     		strb	r2, [r3, #1]
  99:uartp_pend.c  ****     s_rx_lsb   = 0u;
 257              		.loc 1 99 0
 258 000e 9A70     		strb	r2, [r3, #2]
 259 0010 08BD     		pop	{r3, pc}
 260              	.L24:
 261 0012 00BF     		.align	2
 262              	.L23:
 263 0014 00000000 		.word	.LANCHOR0
 264              		.cfi_endproc
 265              	.LFE66:
 266              		.size	UARTP_Init, .-UARTP_Init
 267              		.section	.text.UARTP_ProcessCommand,"ax",%progbits
 268              		.align	2
 269              		.global	UARTP_ProcessCommand
 270              		.thumb
 271              		.thumb_func
 272              		.type	UARTP_ProcessCommand, %function
 273              	UARTP_ProcessCommand:
 274              	.LFB67:
 100:uartp_pend.c  **** }
 101:uartp_pend.c  **** 
 102:uartp_pend.c  **** /* ============================================================
 103:uartp_pend.c  ****    UARTP_ProcessCommand()
 104:uartp_pend.c  ****    Procesa UN comando en modo COMMAND.
 105:uartp_pend.c  ****    Llamar repetidamente desde el loop principal.
 106:uartp_pend.c  ****    ============================================================ */
 107:uartp_pend.c  **** void UARTP_ProcessCommand(void)
 108:uartp_pend.c  **** {
 275              		.loc 1 108 0
 276              		.cfi_startproc
 277              		@ args = 0, pretend = 0, frame = 8
 278              		@ frame_needed = 0, uses_anonymous_args = 0
 279 0000 00B5     		push	{lr}
 280              		.cfi_def_cfa_offset 4
 281              		.cfi_offset 14, -4
 282 0002 83B0     		sub	sp, sp, #12
ARM GAS  C:\Users\user\AppData\Local\Temp\ccNT2PNx.s 			page 8


 283              		.cfi_def_cfa_offset 16
 109:uartp_pend.c  ****     uint8 cmd;
 110:uartp_pend.c  ****     uint8 payload[4];
 111:uartp_pend.c  ****     float fs_hz;
 112:uartp_pend.c  ****     uint8 *pf;
 113:uartp_pend.c  **** 
 114:uartp_pend.c  ****     if (UART_1_GetRxBufferSize() == 0u) return;
 284              		.loc 1 114 0
 285 0004 FFF7FEFF 		bl	UART_1_GetRxBufferSize
 286              	.LVL35:
 287 0008 0028     		cmp	r0, #0
 288 000a 56D0     		beq	.L25
 115:uartp_pend.c  **** 
 116:uartp_pend.c  ****     cmd = UART_1_ReadRxData();
 289              		.loc 1 116 0
 290 000c FFF7FEFF 		bl	UART_1_ReadRxData
 291              	.LVL36:
 117:uartp_pend.c  **** 
 118:uartp_pend.c  ****     switch (cmd)
 292              		.loc 1 118 0
 293 0010 6638     		subs	r0, r0, #102
 294              	.LVL37:
 295 0012 0D28     		cmp	r0, #13
 296 0014 51D8     		bhi	.L25
 297 0016 DFE800F0 		tbb	[pc, r0]
 298              	.L29:
 299 001a 14       		.byte	(.L28-.L29)/2
 300 001b 50       		.byte	(.L25-.L29)/2
 301 001c 50       		.byte	(.L25-.L29)/2
 302 001d 36       		.byte	(.L30-.L29)/2
 303 001e 50       		.byte	(.L25-.L29)/2
 304 001f 50       		.byte	(.L25-.L29)/2
 305 0020 50       		.byte	(.L25-.L29)/2
 306 0021 50       		.byte	(.L25-.L29)/2
 307 0022 50       		.byte	(.L25-.L29)/2
 308 0023 50       		.byte	(.L25-.L29)/2
 309 0024 50       		.byte	(.L25-.L29)/2
 310 0025 50       		.byte	(.L25-.L29)/2
 311 0026 07       		.byte	(.L31-.L29)/2
 312 0027 46       		.byte	(.L32-.L29)/2
 313              		.p2align 1
 314              	.L31:
 119:uartp_pend.c  ****     {
 120:uartp_pend.c  ****         /* ---- Reset ---- */
 121:uartp_pend.c  ****         case (uint8)'r':
 122:uartp_pend.c  ****             Motor_Free();
 315              		.loc 1 122 0
 316 0028 FFF7FEFF 		bl	Motor_Free
 317              	.LVL38:
 123:uartp_pend.c  ****             g_last_u_pwm   = 0;
 318              		.loc 1 123 0
 319 002c 0023     		movs	r3, #0
 320 002e 244A     		ldr	r2, .L36
 321 0030 1380     		strh	r3, [r2]	@ movhi
 124:uartp_pend.c  ****             g_flag_control = 0u;
 322              		.loc 1 124 0
 323 0032 244A     		ldr	r2, .L36+4
ARM GAS  C:\Users\user\AppData\Local\Temp\ccNT2PNx.s 			page 9


 324 0034 1370     		strb	r3, [r2]
 125:uartp_pend.c  ****             UARTP_SysMode  = UARTP_SYS_COMMAND;
 325              		.loc 1 125 0
 326 0036 244A     		ldr	r2, .L36+8
 327 0038 1370     		strb	r3, [r2]
 126:uartp_pend.c  ****             ll_putchar((uint8)'K');
 328              		.loc 1 126 0
 329 003a 4B20     		movs	r0, #75
 330 003c FFF7FEFF 		bl	ll_putchar
 331              	.LVL39:
 127:uartp_pend.c  ****             break;
 332              		.loc 1 127 0
 333 0040 3BE0     		b	.L25
 334              	.L28:
 128:uartp_pend.c  **** 
 129:uartp_pend.c  ****         /* ---- Set Fs_inner ---- */
 130:uartp_pend.c  ****         case (uint8)'f':
 131:uartp_pend.c  ****             ll_putchar((uint8)'R');                 /* ready to receive */
 335              		.loc 1 131 0
 336 0042 5220     		movs	r0, #82
 337 0044 FFF7FEFF 		bl	ll_putchar
 338              	.LVL40:
 132:uartp_pend.c  ****             if (ll_recv_word4(payload))
 339              		.loc 1 132 0
 340 0048 01A8     		add	r0, sp, #4
 341 004a FFF7FEFF 		bl	ll_recv_word4
 342              	.LVL41:
 343 004e B0B1     		cbz	r0, .L33
 344              	.LVL42:
 133:uartp_pend.c  ****             {
 134:uartp_pend.c  ****                 /* Interpreta 4 bytes como float32 little-endian */
 135:uartp_pend.c  ****                 pf    = (uint8*)&fs_hz;
 136:uartp_pend.c  ****                 pf[0] = payload[0]; pf[1] = payload[1];
 345              		.loc 1 136 0
 346 0050 9DF80430 		ldrb	r3, [sp, #4]	@ zero_extendqisi2
 347 0054 8DF80030 		strb	r3, [sp]
 348 0058 9DF80530 		ldrb	r3, [sp, #5]	@ zero_extendqisi2
 349 005c 8DF80130 		strb	r3, [sp, #1]
 137:uartp_pend.c  ****                 pf[2] = payload[2]; pf[3] = payload[3];
 350              		.loc 1 137 0
 351 0060 9DF80630 		ldrb	r3, [sp, #6]	@ zero_extendqisi2
 352 0064 8DF80230 		strb	r3, [sp, #2]
 353 0068 9DF80730 		ldrb	r3, [sp, #7]	@ zero_extendqisi2
 354 006c 8DF80330 		strb	r3, [sp, #3]
 138:uartp_pend.c  ****                 pendulo_timer_set_fs(fs_hz);
 355              		.loc 1 138 0
 356 0070 0098     		ldr	r0, [sp]	@ float
 357 0072 FFF7FEFF 		bl	pendulo_timer_set_fs
 358              	.LVL43:
 139:uartp_pend.c  ****                 ll_putchar((uint8)'K');
 359              		.loc 1 139 0
 360 0076 4B20     		movs	r0, #75
 361 0078 FFF7FEFF 		bl	ll_putchar
 362              	.LVL44:
 363 007c 1DE0     		b	.L25
 364              	.LVL45:
 365              	.L33:
ARM GAS  C:\Users\user\AppData\Local\Temp\ccNT2PNx.s 			page 10


 140:uartp_pend.c  ****             }
 141:uartp_pend.c  ****             else
 142:uartp_pend.c  ****             {
 143:uartp_pend.c  ****                 ll_putchar((uint8)'!');
 366              		.loc 1 143 0
 367 007e 2120     		movs	r0, #33
 368 0080 FFF7FEFF 		bl	ll_putchar
 369              	.LVL46:
 370 0084 19E0     		b	.L25
 371              	.L30:
 144:uartp_pend.c  ****             }
 145:uartp_pend.c  ****             break;
 146:uartp_pend.c  **** 
 147:uartp_pend.c  ****         /* ---- Iniciar control ---- */
 148:uartp_pend.c  ****         case (uint8)'i':
 149:uartp_pend.c  ****             Motor_Free();
 372              		.loc 1 149 0
 373 0086 FFF7FEFF 		bl	Motor_Free
 374              	.LVL47:
 150:uartp_pend.c  ****             g_last_u_pwm   = 0;
 375              		.loc 1 150 0
 376 008a 0023     		movs	r3, #0
 377 008c 0C4A     		ldr	r2, .L36
 378 008e 1380     		strh	r3, [r2]	@ movhi
 151:uartp_pend.c  ****             g_flag_control = 0u;
 379              		.loc 1 151 0
 380 0090 0C4A     		ldr	r2, .L36+4
 381 0092 1370     		strb	r3, [r2]
 152:uartp_pend.c  ****             s_rx_state     = RX_IDLE;
 382              		.loc 1 152 0
 383 0094 0C4A     		ldr	r2, .L36+8
 384 0096 5370     		strb	r3, [r2, #1]
 153:uartp_pend.c  ****             s_rx_lsb       = 0u;
 385              		.loc 1 153 0
 386 0098 9370     		strb	r3, [r2, #2]
 154:uartp_pend.c  ****             UARTP_SysMode  = UARTP_SYS_CONTROL;
 387              		.loc 1 154 0
 388 009a 0123     		movs	r3, #1
 389 009c 1370     		strb	r3, [r2]
 155:uartp_pend.c  ****             ll_putchar((uint8)'K');
 390              		.loc 1 155 0
 391 009e 4B20     		movs	r0, #75
 392 00a0 FFF7FEFF 		bl	ll_putchar
 393              	.LVL48:
 156:uartp_pend.c  ****             break;
 394              		.loc 1 156 0
 395 00a4 09E0     		b	.L25
 396              	.L32:
 157:uartp_pend.c  **** 
 158:uartp_pend.c  ****         /* ---- Stop (también válido en COMMAND, por si llega tarde) ---- */
 159:uartp_pend.c  ****         case (uint8)'s':
 160:uartp_pend.c  ****             Motor_Free();
 397              		.loc 1 160 0
 398 00a6 FFF7FEFF 		bl	Motor_Free
 399              	.LVL49:
 161:uartp_pend.c  ****             g_last_u_pwm  = 0;
 400              		.loc 1 161 0
ARM GAS  C:\Users\user\AppData\Local\Temp\ccNT2PNx.s 			page 11


 401 00aa 0023     		movs	r3, #0
 402 00ac 044A     		ldr	r2, .L36
 403 00ae 1380     		strh	r3, [r2]	@ movhi
 162:uartp_pend.c  ****             UARTP_SysMode = UARTP_SYS_COMMAND;
 404              		.loc 1 162 0
 405 00b0 054A     		ldr	r2, .L36+8
 406 00b2 1370     		strb	r3, [r2]
 163:uartp_pend.c  ****             ll_putchar((uint8)'K');
 407              		.loc 1 163 0
 408 00b4 4B20     		movs	r0, #75
 409 00b6 FFF7FEFF 		bl	ll_putchar
 410              	.LVL50:
 411              	.L25:
 164:uartp_pend.c  ****             break;
 165:uartp_pend.c  **** 
 166:uartp_pend.c  ****         default:
 167:uartp_pend.c  ****             /* Byte desconocido: ignorar */
 168:uartp_pend.c  ****             break;
 169:uartp_pend.c  ****     }
 170:uartp_pend.c  **** }
 412              		.loc 1 170 0
 413 00ba 03B0     		add	sp, sp, #12
 414              		.cfi_def_cfa_offset 4
 415              		@ sp needed
 416 00bc 5DF804FB 		ldr	pc, [sp], #4
 417              	.L37:
 418              		.align	2
 419              	.L36:
 420 00c0 00000000 		.word	g_last_u_pwm
 421 00c4 00000000 		.word	g_flag_control
 422 00c8 00000000 		.word	.LANCHOR0
 423              		.cfi_endproc
 424              	.LFE67:
 425              		.size	UARTP_ProcessCommand, .-UARTP_ProcessCommand
 426              		.section	.text.UARTP_ControlRxPoll,"ax",%progbits
 427              		.align	2
 428              		.global	UARTP_ControlRxPoll
 429              		.thumb
 430              		.thumb_func
 431              		.type	UARTP_ControlRxPoll, %function
 432              	UARTP_ControlRxPoll:
 433              	.LFB68:
 171:uartp_pend.c  **** 
 172:uartp_pend.c  **** /* ============================================================
 173:uartp_pend.c  ****    UARTP_ControlRxPoll()
 174:uartp_pend.c  ****    Gestiona los bytes RX durante el modo CONTROL.
 175:uartp_pend.c  ****    Llamar desde el loop principal (NO desde ISR).
 176:uartp_pend.c  **** 
 177:uartp_pend.c  ****    Protocolo de recepción:
 178:uartp_pend.c  ****      Bytes de u_pwm: int16 little-endian (2 bytes)
 179:uartp_pend.c  ****      Byte de stop:   's' = 0x73  (llega solo, no como parte de u)
 180:uartp_pend.c  **** 
 181:uartp_pend.c  ****    MATLAB garantiza secuencia [0x00, 0x00, 's'] para stop limpio:
 182:uartp_pend.c  ****      PSoC lee [0x00, 0x00] como u=0, luego 's' como stop.
 183:uartp_pend.c  ****    ============================================================ */
 184:uartp_pend.c  **** void UARTP_ControlRxPoll(void)
 185:uartp_pend.c  **** {
ARM GAS  C:\Users\user\AppData\Local\Temp\ccNT2PNx.s 			page 12


 434              		.loc 1 185 0
 435              		.cfi_startproc
 436              		@ args = 0, pretend = 0, frame = 0
 437              		@ frame_needed = 0, uses_anonymous_args = 0
 438 0000 08B5     		push	{r3, lr}
 439              		.cfi_def_cfa_offset 8
 440              		.cfi_offset 3, -8
 441              		.cfi_offset 14, -4
 186:uartp_pend.c  ****     uint8 b;
 187:uartp_pend.c  **** 
 188:uartp_pend.c  ****     while (UART_1_GetRxBufferSize() > 0u)
 442              		.loc 1 188 0
 443 0002 1FE0     		b	.L39
 444              	.L44:
 189:uartp_pend.c  ****     {
 190:uartp_pend.c  ****         b = UART_1_ReadRxData();
 445              		.loc 1 190 0
 446 0004 FFF7FEFF 		bl	UART_1_ReadRxData
 447              	.LVL51:
 191:uartp_pend.c  **** 
 192:uartp_pend.c  ****         if (s_rx_state == RX_IDLE)
 448              		.loc 1 192 0
 449 0008 114B     		ldr	r3, .L46
 450 000a 5B78     		ldrb	r3, [r3, #1]	@ zero_extendqisi2
 451 000c 8BB9     		cbnz	r3, .L40
 193:uartp_pend.c  ****         {
 194:uartp_pend.c  ****             if (b == (uint8)'s')
 452              		.loc 1 194 0
 453 000e 7328     		cmp	r0, #115
 454 0010 0AD1     		bne	.L41
 195:uartp_pend.c  ****             {
 196:uartp_pend.c  ****                 /* Stop command recibido */
 197:uartp_pend.c  ****                 Motor_Free();
 455              		.loc 1 197 0
 456 0012 FFF7FEFF 		bl	Motor_Free
 457              	.LVL52:
 198:uartp_pend.c  ****                 g_last_u_pwm  = 0;
 458              		.loc 1 198 0
 459 0016 0023     		movs	r3, #0
 460 0018 0E4A     		ldr	r2, .L46+4
 461 001a 1380     		strh	r3, [r2]	@ movhi
 199:uartp_pend.c  ****                 UARTP_SysMode = UARTP_SYS_COMMAND;
 462              		.loc 1 199 0
 463 001c 0C4A     		ldr	r2, .L46
 464 001e 1370     		strb	r3, [r2]
 200:uartp_pend.c  ****                 ll_putchar((uint8)'K');
 465              		.loc 1 200 0
 466 0020 4B20     		movs	r0, #75
 467 0022 FFF7FEFF 		bl	ll_putchar
 468              	.LVL53:
 201:uartp_pend.c  ****                 return;
 469              		.loc 1 201 0
 470 0026 08BD     		pop	{r3, pc}
 471              	.LVL54:
 472              	.L41:
 202:uartp_pend.c  ****             }
 203:uartp_pend.c  ****             /* Primer byte del par u_pwm */
ARM GAS  C:\Users\user\AppData\Local\Temp\ccNT2PNx.s 			page 13


 204:uartp_pend.c  ****             s_rx_lsb   = b;
 473              		.loc 1 204 0
 474 0028 094B     		ldr	r3, .L46
 475 002a 9870     		strb	r0, [r3, #2]
 205:uartp_pend.c  ****             s_rx_state = RX_GOT_LSB;
 476              		.loc 1 205 0
 477 002c 0122     		movs	r2, #1
 478 002e 5A70     		strb	r2, [r3, #1]
 479 0030 08E0     		b	.L39
 480              	.L40:
 206:uartp_pend.c  ****         }
 207:uartp_pend.c  ****         else  /* RX_GOT_LSB */
 208:uartp_pend.c  ****         {
 209:uartp_pend.c  ****             /* Segundo byte: completar int16 */
 210:uartp_pend.c  ****             g_last_u_pwm = (int16)((uint16)s_rx_lsb | ((uint16)b << 8));
 481              		.loc 1 210 0
 482 0032 074A     		ldr	r2, .L46
 483 0034 9378     		ldrb	r3, [r2, #2]	@ zero_extendqisi2
 484 0036 43EA0020 		orr	r0, r3, r0, lsl #8
 485              	.LVL55:
 486 003a 00B2     		sxth	r0, r0
 487 003c 054B     		ldr	r3, .L46+4
 488 003e 1880     		strh	r0, [r3]	@ movhi
 211:uartp_pend.c  ****             s_rx_state   = RX_IDLE;
 489              		.loc 1 211 0
 490 0040 0023     		movs	r3, #0
 491 0042 5370     		strb	r3, [r2, #1]
 492              	.L39:
 188:uartp_pend.c  ****     {
 493              		.loc 1 188 0
 494 0044 FFF7FEFF 		bl	UART_1_GetRxBufferSize
 495              	.LVL56:
 496 0048 0028     		cmp	r0, #0
 497 004a DBD1     		bne	.L44
 498 004c 08BD     		pop	{r3, pc}
 499              	.L47:
 500 004e 00BF     		.align	2
 501              	.L46:
 502 0050 00000000 		.word	.LANCHOR0
 503 0054 00000000 		.word	g_last_u_pwm
 504              		.cfi_endproc
 505              	.LFE68:
 506              		.size	UARTP_ControlRxPoll, .-UARTP_ControlRxPoll
 507              		.global	UARTP_SysMode
 508              		.bss
 509              		.set	.LANCHOR0,. + 0
 510              		.type	UARTP_SysMode, %object
 511              		.size	UARTP_SysMode, 1
 512              	UARTP_SysMode:
 513 0000 00       		.space	1
 514              		.type	s_rx_state, %object
 515              		.size	s_rx_state, 1
 516              	s_rx_state:
 517 0001 00       		.space	1
 518              		.type	s_rx_lsb, %object
 519              		.size	s_rx_lsb, 1
 520              	s_rx_lsb:
ARM GAS  C:\Users\user\AppData\Local\Temp\ccNT2PNx.s 			page 14


 521 0002 00       		.space	1
 522              		.text
 523              	.Letext0:
 524              		.file 2 "d:\\psoc\\psoc creator\\4.4\\psoc creator\\import\\gnu\\arm\\5.4.1\\arm-none-eabi\\includ
 525              		.file 3 "d:\\psoc\\psoc creator\\4.4\\psoc creator\\import\\gnu\\arm\\5.4.1\\arm-none-eabi\\includ
 526              		.file 4 "Generated_Source\\PSoC5/cytypes.h"
 527              		.file 5 "uartp_pend.h"
 528              		.file 6 "Generated_Source\\PSoC5/core_cm3.h"
 529              		.file 7 "pendulo.h"
 530              		.file 8 "Generated_Source\\PSoC5/CyLib.h"
 531              		.file 9 "Generated_Source\\PSoC5/UART_1.h"
 532              		.file 10 "motor.h"