ARM GAS  C:\Users\user\AppData\Local\Temp\ccFGCMCO.s 			page 1


   1              		.syntax unified
   2              		.cpu cortex-m3
   3              		.fpu softvfp
   4              		.eabi_attribute 20, 1
   5              		.eabi_attribute 21, 1
   6              		.eabi_attribute 23, 3
   7              		.eabi_attribute 24, 1
   8              		.eabi_attribute 25, 1
   9              		.eabi_attribute 26, 1
  10              		.eabi_attribute 30, 1
  11              		.eabi_attribute 34, 1
  12              		.eabi_attribute 18, 4
  13              		.thumb
  14              		.syntax unified
  15              		.file	"uartp2.c"
  16              		.text
  17              	.Ltext0:
  18              		.cfi_sections	.debug_frame
  19              		.section	.text.ll_flush,"ax",%progbits
  20              		.align	2
  21              		.thumb
  22              		.thumb_func
  23              		.type	ll_flush, %function
  24              	ll_flush:
  25              	.LFB64:
  26              		.file 1 "uartp2.c"
   1:uartp2.c      **** /* ============================================================
   2:uartp2.c      ****    uartp2.c — Two-plant UARTP protocol implementation
   3:uartp2.c      ****    ============================================================ */
   4:uartp2.c      **** #include "uartp2.h"
   5:uartp2.c      **** #include "ctrl_pend.h"
   6:uartp2.c      **** #include <string.h>
   7:uartp2.c      **** 
   8:uartp2.c      **** volatile uartp2_mode_t UARTP2_Mode = UARTP2_CMD;
   9:uartp2.c      **** 
  10:uartp2.c      **** /* ============================================================
  11:uartp2.c      ****    Protocol constants
  12:uartp2.c      ****    ============================================================ */
  13:uartp2.c      **** #define STEP_TMO_MS   500u   /* per-byte timeout */
  14:uartp2.c      **** #define MAX_RETRIES    50u   /* per word */
  15:uartp2.c      **** #define ABORT_TMO       3u   /* consecutive timeouts before abort */
  16:uartp2.c      **** 
  17:uartp2.c      **** /* ============================================================
  18:uartp2.c      ****    Low-level byte I/O
  19:uartp2.c      ****    ============================================================ */
  20:uartp2.c      **** static void ll_put(uint8 b)
  21:uartp2.c      **** {
  22:uartp2.c      ****     UART_1_WriteTxData(b);
  23:uartp2.c      **** }
  24:uartp2.c      **** 
  25:uartp2.c      **** static void ll_flush(void)
  26:uartp2.c      **** {
  27              		.loc 1 26 0
  28              		.cfi_startproc
  29              		@ args = 0, pretend = 0, frame = 0
  30              		@ frame_needed = 0, uses_anonymous_args = 0
  31 0000 08B5     		push	{r3, lr}
ARM GAS  C:\Users\user\AppData\Local\Temp\ccFGCMCO.s 			page 2


  32              		.cfi_def_cfa_offset 8
  33              		.cfi_offset 3, -8
  34              		.cfi_offset 14, -4
  27:uartp2.c      ****     while (UART_1_GetRxBufferSize() > 0u) (void)UART_1_ReadRxData();
  35              		.loc 1 27 0
  36 0002 01E0     		b	.L2
  37              	.L3:
  38              		.loc 1 27 0 is_stmt 0 discriminator 2
  39 0004 FFF7FEFF 		bl	UART_1_ReadRxData
  40              	.LVL0:
  41              	.L2:
  42              		.loc 1 27 0 discriminator 1
  43 0008 FFF7FEFF 		bl	UART_1_GetRxBufferSize
  44              	.LVL1:
  45 000c 0028     		cmp	r0, #0
  46 000e F9D1     		bne	.L3
  28:uartp2.c      **** }
  47              		.loc 1 28 0 is_stmt 1
  48 0010 08BD     		pop	{r3, pc}
  49              		.cfi_endproc
  50              	.LFE64:
  51              		.size	ll_flush, .-ll_flush
  52 0012 00BF     		.section	.text.ll_wait,"ax",%progbits
  53              		.align	2
  54              		.thumb
  55              		.thumb_func
  56              		.type	ll_wait, %function
  57              	ll_wait:
  58              	.LFB65:
  29:uartp2.c      **** 
  30:uartp2.c      **** /* Wait for one RX byte; returns 0xFF on timeout */
  31:uartp2.c      **** static uint8 ll_wait(uint32 tmo_ms)
  32:uartp2.c      **** {
  59              		.loc 1 32 0
  60              		.cfi_startproc
  61              		@ args = 0, pretend = 0, frame = 0
  62              		@ frame_needed = 0, uses_anonymous_args = 0
  63              	.LVL2:
  64 0000 38B5     		push	{r3, r4, r5, lr}
  65              		.cfi_def_cfa_offset 16
  66              		.cfi_offset 3, -16
  67              		.cfi_offset 4, -12
  68              		.cfi_offset 5, -8
  69              		.cfi_offset 14, -4
  70 0002 0546     		mov	r5, r0
  71              	.LVL3:
  33:uartp2.c      ****     uint32 t = 0u;
  72              		.loc 1 33 0
  73 0004 0024     		movs	r4, #0
  34:uartp2.c      ****     while (UART_1_GetRxBufferSize() == 0u) {
  74              		.loc 1 34 0
  75 0006 05E0     		b	.L6
  76              	.LVL4:
  77              	.L8:
  35:uartp2.c      ****         CyDelay(1u);
  78              		.loc 1 35 0
  79 0008 0120     		movs	r0, #1
ARM GAS  C:\Users\user\AppData\Local\Temp\ccFGCMCO.s 			page 3


  80 000a FFF7FEFF 		bl	CyDelay
  81              	.LVL5:
  36:uartp2.c      ****         if (++t >= tmo_ms) return 0xFFu;
  82              		.loc 1 36 0
  83 000e 0134     		adds	r4, r4, #1
  84              	.LVL6:
  85 0010 AC42     		cmp	r4, r5
  86 0012 06D2     		bcs	.L9
  87              	.LVL7:
  88              	.L6:
  34:uartp2.c      ****     while (UART_1_GetRxBufferSize() == 0u) {
  89              		.loc 1 34 0
  90 0014 FFF7FEFF 		bl	UART_1_GetRxBufferSize
  91              	.LVL8:
  92 0018 0028     		cmp	r0, #0
  93 001a F5D0     		beq	.L8
  37:uartp2.c      ****     }
  38:uartp2.c      ****     return UART_1_ReadRxData();
  94              		.loc 1 38 0
  95 001c FFF7FEFF 		bl	UART_1_ReadRxData
  96              	.LVL9:
  97 0020 38BD     		pop	{r3, r4, r5, pc}
  98              	.LVL10:
  99              	.L9:
  36:uartp2.c      ****         if (++t >= tmo_ms) return 0xFFu;
 100              		.loc 1 36 0
 101 0022 FF20     		movs	r0, #255
  39:uartp2.c      **** }
 102              		.loc 1 39 0
 103 0024 38BD     		pop	{r3, r4, r5, pc}
 104              		.cfi_endproc
 105              	.LFE65:
 106              		.size	ll_wait, .-ll_wait
 107 0026 00BF     		.section	.text.ll_put,"ax",%progbits
 108              		.align	2
 109              		.thumb
 110              		.thumb_func
 111              		.type	ll_put, %function
 112              	ll_put:
 113              	.LFB63:
  21:uartp2.c      ****     UART_1_WriteTxData(b);
 114              		.loc 1 21 0
 115              		.cfi_startproc
 116              		@ args = 0, pretend = 0, frame = 0
 117              		@ frame_needed = 0, uses_anonymous_args = 0
 118              	.LVL11:
 119 0000 08B5     		push	{r3, lr}
 120              		.cfi_def_cfa_offset 8
 121              		.cfi_offset 3, -8
 122              		.cfi_offset 14, -4
  22:uartp2.c      **** }
 123              		.loc 1 22 0
 124 0002 FFF7FEFF 		bl	UART_1_WriteTxData
 125              	.LVL12:
 126 0006 08BD     		pop	{r3, pc}
 127              		.cfi_endproc
 128              	.LFE63:
ARM GAS  C:\Users\user\AppData\Local\Temp\ccFGCMCO.s 			page 4


 129              		.size	ll_put, .-ll_put
 130              		.section	.text.rx_word,"ax",%progbits
 131              		.align	2
 132              		.thumb
 133              		.thumb_func
 134              		.type	rx_word, %function
 135              	rx_word:
 136              	.LFB66:
  40:uartp2.c      **** 
  41:uartp2.c      **** /* ============================================================
  42:uartp2.c      ****    rx_word — receive one 4-byte word with echo-confirm.
  43:uartp2.c      ****    Returns 1 if ACK'd, 0 on timeout/error.
  44:uartp2.c      ****    ============================================================ */
  45:uartp2.c      **** static uint8 rx_word(uint8 dst[4])
  46:uartp2.c      **** {
 137              		.loc 1 46 0
 138              		.cfi_startproc
 139              		@ args = 0, pretend = 0, frame = 8
 140              		@ frame_needed = 0, uses_anonymous_args = 0
 141              	.LVL13:
 142 0000 70B5     		push	{r4, r5, r6, lr}
 143              		.cfi_def_cfa_offset 16
 144              		.cfi_offset 4, -16
 145              		.cfi_offset 5, -12
 146              		.cfi_offset 6, -8
 147              		.cfi_offset 14, -4
 148 0002 82B0     		sub	sp, sp, #8
 149              		.cfi_def_cfa_offset 24
 150 0004 0646     		mov	r6, r0
 151              	.LVL14:
  47:uartp2.c      ****     uint8 tries = 0u;
 152              		.loc 1 47 0
 153 0006 0025     		movs	r5, #0
 154              	.LVL15:
 155              	.L20:
 156              	.LBB2:
  48:uartp2.c      ****     for (;;) {
  49:uartp2.c      ****         uint8 w[4]; uint8 i; uint8 ctl;
  50:uartp2.c      ****         if (++tries > MAX_RETRIES) return 0u;
 157              		.loc 1 50 0
 158 0008 0135     		adds	r5, r5, #1
 159              	.LVL16:
 160 000a EDB2     		uxtb	r5, r5
 161              	.LVL17:
 162 000c 322D     		cmp	r5, #50
 163 000e 37D8     		bhi	.L21
 164 0010 0024     		movs	r4, #0
 165 0012 0BE0     		b	.L15
 166              	.LVL18:
 167              	.L16:
  51:uartp2.c      **** 
  52:uartp2.c      ****         for (i = 0u; i < 4u; i++) {
  53:uartp2.c      ****             w[i] = ll_wait(STEP_TMO_MS);
 168              		.loc 1 53 0
 169 0014 4FF4FA70 		mov	r0, #500
 170 0018 FFF7FEFF 		bl	ll_wait
 171              	.LVL19:
ARM GAS  C:\Users\user\AppData\Local\Temp\ccFGCMCO.s 			page 5


 172 001c 02AB     		add	r3, sp, #8
 173 001e 2344     		add	r3, r3, r4
 174 0020 03F8040C 		strb	r0, [r3, #-4]
  54:uartp2.c      ****             if (w[i] == 0xFFu) return 0u;   /* byte timeout */
 175              		.loc 1 54 0
 176 0024 FF28     		cmp	r0, #255
 177 0026 2DD0     		beq	.L22
  52:uartp2.c      ****             w[i] = ll_wait(STEP_TMO_MS);
 178              		.loc 1 52 0 discriminator 2
 179 0028 0134     		adds	r4, r4, #1
 180              	.LVL20:
 181 002a E4B2     		uxtb	r4, r4
 182              	.LVL21:
 183              	.L15:
  52:uartp2.c      ****             w[i] = ll_wait(STEP_TMO_MS);
 184              		.loc 1 52 0 is_stmt 0 discriminator 1
 185 002c 032C     		cmp	r4, #3
 186 002e F1D9     		bls	.L16
 187 0030 0024     		movs	r4, #0
 188              	.LVL22:
 189 0032 07E0     		b	.L17
 190              	.LVL23:
 191              	.L18:
  55:uartp2.c      ****         }
  56:uartp2.c      ****         for (i = 0u; i < 4u; i++) ll_put(w[i]);  /* echo */
 192              		.loc 1 56 0 is_stmt 1 discriminator 3
 193 0034 02AB     		add	r3, sp, #8
 194 0036 2344     		add	r3, r3, r4
 195 0038 13F8040C 		ldrb	r0, [r3, #-4]	@ zero_extendqisi2
 196 003c FFF7FEFF 		bl	ll_put
 197              	.LVL24:
 198 0040 0134     		adds	r4, r4, #1
 199              	.LVL25:
 200 0042 E4B2     		uxtb	r4, r4
 201              	.LVL26:
 202              	.L17:
 203              		.loc 1 56 0 is_stmt 0 discriminator 1
 204 0044 032C     		cmp	r4, #3
 205 0046 F5D9     		bls	.L18
  57:uartp2.c      **** 
  58:uartp2.c      ****         ctl = ll_wait(STEP_TMO_MS);
 206              		.loc 1 58 0 is_stmt 1
 207 0048 4FF4FA70 		mov	r0, #500
 208 004c FFF7FEFF 		bl	ll_wait
 209              	.LVL27:
  59:uartp2.c      ****         if (ctl == 0xFFu) return 0u;
 210              		.loc 1 59 0
 211 0050 FF28     		cmp	r0, #255
 212 0052 19D0     		beq	.L23
  60:uartp2.c      **** 
  61:uartp2.c      ****         if (ctl == (uint8)'A') {
 213              		.loc 1 61 0
 214 0054 4128     		cmp	r0, #65
 215 0056 0FD1     		bne	.L19
  62:uartp2.c      ****             dst[0]=w[0]; dst[1]=w[1]; dst[2]=w[2]; dst[3]=w[3];
 216              		.loc 1 62 0
 217 0058 9DF80430 		ldrb	r3, [sp, #4]	@ zero_extendqisi2
ARM GAS  C:\Users\user\AppData\Local\Temp\ccFGCMCO.s 			page 6


 218 005c 3370     		strb	r3, [r6]
 219 005e 9DF80530 		ldrb	r3, [sp, #5]	@ zero_extendqisi2
 220 0062 7370     		strb	r3, [r6, #1]
 221 0064 9DF80630 		ldrb	r3, [sp, #6]	@ zero_extendqisi2
 222 0068 B370     		strb	r3, [r6, #2]
 223 006a 9DF80730 		ldrb	r3, [sp, #7]	@ zero_extendqisi2
 224 006e F370     		strb	r3, [r6, #3]
  63:uartp2.c      ****             ll_put((uint8)'A');
 225              		.loc 1 63 0
 226 0070 FFF7FEFF 		bl	ll_put
 227              	.LVL28:
  64:uartp2.c      ****             return 1u;
 228              		.loc 1 64 0
 229 0074 0120     		movs	r0, #1
 230 0076 08E0     		b	.L14
 231              	.LVL29:
 232              	.L19:
  65:uartp2.c      ****         }
  66:uartp2.c      ****         ll_put((uint8)'N');   /* NAK → host will retry */
 233              		.loc 1 66 0
 234 0078 4E20     		movs	r0, #78
 235              	.LVL30:
 236 007a FFF7FEFF 		bl	ll_put
 237              	.LVL31:
 238              	.LBE2:
  67:uartp2.c      ****     }
 239              		.loc 1 67 0
 240 007e C3E7     		b	.L20
 241              	.LVL32:
 242              	.L21:
 243              	.LBB3:
  50:uartp2.c      **** 
 244              		.loc 1 50 0
 245 0080 0020     		movs	r0, #0
 246 0082 02E0     		b	.L14
 247              	.LVL33:
 248              	.L22:
  54:uartp2.c      ****         }
 249              		.loc 1 54 0
 250 0084 0020     		movs	r0, #0
 251 0086 00E0     		b	.L14
 252              	.LVL34:
 253              	.L23:
  59:uartp2.c      **** 
 254              		.loc 1 59 0
 255 0088 0020     		movs	r0, #0
 256              	.LVL35:
 257              	.L14:
 258              	.LBE3:
  68:uartp2.c      **** }
 259              		.loc 1 68 0 discriminator 2
 260 008a 02B0     		add	sp, sp, #8
 261              		.cfi_def_cfa_offset 16
 262              		@ sp needed
 263 008c 70BD     		pop	{r4, r5, r6, pc}
 264              		.cfi_endproc
 265              	.LFE66:
ARM GAS  C:\Users\user\AppData\Local\Temp\ccFGCMCO.s 			page 7


 266              		.size	rx_word, .-rx_word
 267 008e 00BF     		.section	.text.recv_payload,"ax",%progbits
 268              		.align	2
 269              		.thumb
 270              		.thumb_func
 271              		.type	recv_payload, %function
 272              	recv_payload:
 273              	.LFB67:
  69:uartp2.c      **** 
  70:uartp2.c      **** /* ============================================================
  71:uartp2.c      ****    recv_payload — receive nbytes via word-by-word handshake.
  72:uartp2.c      ****    Returns 1 on success, 0 on abort.
  73:uartp2.c      ****    ============================================================ */
  74:uartp2.c      **** static uint8 recv_payload(uint8 *dst, uint16 nbytes)
  75:uartp2.c      **** {
 274              		.loc 1 75 0
 275              		.cfi_startproc
 276              		@ args = 0, pretend = 0, frame = 8
 277              		@ frame_needed = 0, uses_anonymous_args = 0
 278              	.LVL36:
 279 0000 2DE9F043 		push	{r4, r5, r6, r7, r8, r9, lr}
 280              		.cfi_def_cfa_offset 28
 281              		.cfi_offset 4, -28
 282              		.cfi_offset 5, -24
 283              		.cfi_offset 6, -20
 284              		.cfi_offset 7, -16
 285              		.cfi_offset 8, -12
 286              		.cfi_offset 9, -8
 287              		.cfi_offset 14, -4
 288 0004 83B0     		sub	sp, sp, #12
 289              		.cfi_def_cfa_offset 40
 290 0006 0746     		mov	r7, r0
 291 0008 0E46     		mov	r6, r1
 292              	.LVL37:
  76:uartp2.c      ****     uint16 off = 0u;
  77:uartp2.c      ****     uint8  tmo_streak = 0u;
 293              		.loc 1 77 0
 294 000a 4FF00008 		mov	r8, #0
  76:uartp2.c      ****     uint16 off = 0u;
 295              		.loc 1 76 0
 296 000e 4546     		mov	r5, r8
  78:uartp2.c      **** 
  79:uartp2.c      ****     while (off < nbytes) {
 297              		.loc 1 79 0
 298 0010 25E0     		b	.L26
 299              	.LVL38:
 300              	.L33:
 301              	.LBB4:
  80:uartp2.c      ****         uint8  tmp[4] = {0u, 0u, 0u, 0u};
 302              		.loc 1 80 0
 303 0012 0023     		movs	r3, #0
 304 0014 0193     		str	r3, [sp, #4]
  81:uartp2.c      ****         uint16 store  = (uint16)(nbytes - off);
 305              		.loc 1 81 0
 306 0016 741B     		subs	r4, r6, r5
 307 0018 A4B2     		uxth	r4, r4
 308              	.LVL39:
ARM GAS  C:\Users\user\AppData\Local\Temp\ccFGCMCO.s 			page 8


  82:uartp2.c      ****         if (store > 4u) store = 4u;
 309              		.loc 1 82 0
 310 001a 042C     		cmp	r4, #4
 311 001c 00D9     		bls	.L27
 312 001e 0424     		movs	r4, #4
 313              	.LVL40:
 314              	.L27:
  83:uartp2.c      **** 
  84:uartp2.c      ****         if (!rx_word(tmp)) {
 315              		.loc 1 84 0
 316 0020 01A8     		add	r0, sp, #4
 317 0022 FFF7FEFF 		bl	rx_word
 318              	.LVL41:
 319 0026 8146     		mov	r9, r0
 320 0028 90B9     		cbnz	r0, .L35
  85:uartp2.c      ****             if (++tmo_streak >= ABORT_TMO) { ll_flush(); return 0u; }
 321              		.loc 1 85 0
 322 002a 08F10108 		add	r8, r8, #1
 323              	.LVL42:
 324 002e 5FFA88F8 		uxtb	r8, r8
 325              	.LVL43:
 326 0032 B8F1020F 		cmp	r8, #2
 327 0036 12D9     		bls	.L26
 328              		.loc 1 85 0 is_stmt 0 discriminator 1
 329 0038 FFF7FEFF 		bl	ll_flush
 330              	.LVL44:
 331 003c 13E0     		b	.L30
 332              	.LVL45:
 333              	.L32:
  86:uartp2.c      ****             continue;
  87:uartp2.c      ****         }
  88:uartp2.c      ****         tmo_streak = 0u;
  89:uartp2.c      **** 
  90:uartp2.c      ****         uint16 i;
  91:uartp2.c      ****         for (i = 0u; i < store; i++) dst[off + i] = tmp[i];
 334              		.loc 1 91 0 is_stmt 1 discriminator 3
 335 003e EA18     		adds	r2, r5, r3
 336 0040 02A9     		add	r1, sp, #8
 337 0042 1944     		add	r1, r1, r3
 338 0044 11F8041C 		ldrb	r1, [r1, #-4]	@ zero_extendqisi2
 339 0048 B954     		strb	r1, [r7, r2]
 340 004a 0133     		adds	r3, r3, #1
 341              	.LVL46:
 342 004c 9BB2     		uxth	r3, r3
 343              	.LVL47:
 344 004e 00E0     		b	.L28
 345              	.LVL48:
 346              	.L35:
 347 0050 0023     		movs	r3, #0
 348              	.L28:
 349              	.LVL49:
 350              		.loc 1 91 0 is_stmt 0 discriminator 1
 351 0052 9C42     		cmp	r4, r3
 352 0054 F3D8     		bhi	.L32
  92:uartp2.c      ****         off = (uint16)(off + store);
 353              		.loc 1 92 0 is_stmt 1
 354 0056 2C44     		add	r4, r4, r5
ARM GAS  C:\Users\user\AppData\Local\Temp\ccFGCMCO.s 			page 9


 355              	.LVL50:
 356 0058 A5B2     		uxth	r5, r4
 357              	.LVL51:
  88:uartp2.c      **** 
 358              		.loc 1 88 0
 359 005a 4FF00008 		mov	r8, #0
 360              	.LVL52:
 361              	.L26:
 362              	.LBE4:
  79:uartp2.c      ****         uint8  tmp[4] = {0u, 0u, 0u, 0u};
 363              		.loc 1 79 0
 364 005e B542     		cmp	r5, r6
 365 0060 D7D3     		bcc	.L33
  93:uartp2.c      ****     }
  94:uartp2.c      ****     return 1u;
 366              		.loc 1 94 0
 367 0062 4FF00109 		mov	r9, #1
 368              	.L30:
  95:uartp2.c      **** }
 369              		.loc 1 95 0
 370 0066 4846     		mov	r0, r9
 371 0068 03B0     		add	sp, sp, #12
 372              		.cfi_def_cfa_offset 28
 373              		@ sp needed
 374 006a BDE8F083 		pop	{r4, r5, r6, r7, r8, r9, pc}
 375              		.cfi_endproc
 376              	.LFE67:
 377              		.size	recv_payload, .-recv_payload
 378 006e 00BF     		.section	.text.handle_setmode,"ax",%progbits
 379              		.align	2
 380              		.thumb
 381              		.thumb_func
 382              		.type	handle_setmode, %function
 383              	handle_setmode:
 384              	.LFB68:
  96:uartp2.c      **** 
  97:uartp2.c      **** /* ============================================================
  98:uartp2.c      ****    Command handlers
  99:uartp2.c      ****    ============================================================ */
 100:uartp2.c      **** static void handle_setmode(uint8 plant_id)
 101:uartp2.c      **** {
 385              		.loc 1 101 0
 386              		.cfi_startproc
 387              		@ args = 0, pretend = 0, frame = 8
 388              		@ frame_needed = 0, uses_anonymous_args = 0
 389              	.LVL53:
 390 0000 10B5     		push	{r4, lr}
 391              		.cfi_def_cfa_offset 8
 392              		.cfi_offset 4, -8
 393              		.cfi_offset 14, -4
 394 0002 82B0     		sub	sp, sp, #8
 395              		.cfi_def_cfa_offset 16
 396 0004 0446     		mov	r4, r0
 102:uartp2.c      ****     ll_put((uint8)'R');
 397              		.loc 1 102 0
 398 0006 5220     		movs	r0, #82
 399              	.LVL54:
ARM GAS  C:\Users\user\AppData\Local\Temp\ccFGCMCO.s 			page 10


 400 0008 FFF7FEFF 		bl	ll_put
 401              	.LVL55:
 103:uartp2.c      ****     uint8 raw[4];
 104:uartp2.c      ****     if (!recv_payload(raw, 4u)) { ll_put((uint8)'!'); return; }
 402              		.loc 1 104 0
 403 000c 0421     		movs	r1, #4
 404 000e 0DEB0100 		add	r0, sp, r1
 405 0012 FFF7FEFF 		bl	recv_payload
 406              	.LVL56:
 407 0016 18B9     		cbnz	r0, .L38
 408              		.loc 1 104 0 is_stmt 0 discriminator 1
 409 0018 2120     		movs	r0, #33
 410 001a FFF7FEFF 		bl	ll_put
 411              	.LVL57:
 412 001e 07E0     		b	.L37
 413              	.L38:
 105:uartp2.c      ****     ctrl_set_mode(plant_id, raw[0]);
 414              		.loc 1 105 0 is_stmt 1
 415 0020 9DF80410 		ldrb	r1, [sp, #4]	@ zero_extendqisi2
 416 0024 2046     		mov	r0, r4
 417 0026 FFF7FEFF 		bl	ctrl_set_mode
 418              	.LVL58:
 106:uartp2.c      ****     ll_put((uint8)'K');
 419              		.loc 1 106 0
 420 002a 4B20     		movs	r0, #75
 421 002c FFF7FEFF 		bl	ll_put
 422              	.LVL59:
 423              	.L37:
 107:uartp2.c      **** }
 424              		.loc 1 107 0
 425 0030 02B0     		add	sp, sp, #8
 426              		.cfi_def_cfa_offset 8
 427              		@ sp needed
 428 0032 10BD     		pop	{r4, pc}
 429              		.cfi_endproc
 430              	.LFE68:
 431              		.size	handle_setmode, .-handle_setmode
 432              		.section	.text.handle_coeffs,"ax",%progbits
 433              		.align	2
 434              		.thumb
 435              		.thumb_func
 436              		.type	handle_coeffs, %function
 437              	handle_coeffs:
 438              	.LFB69:
 108:uartp2.c      **** 
 109:uartp2.c      **** static void handle_coeffs(uint8 plant_id)
 110:uartp2.c      **** {
 439              		.loc 1 110 0
 440              		.cfi_startproc
 441              		@ args = 0, pretend = 0, frame = 200
 442              		@ frame_needed = 0, uses_anonymous_args = 0
 443              	.LVL60:
 444 0000 10B5     		push	{r4, lr}
 445              		.cfi_def_cfa_offset 8
 446              		.cfi_offset 4, -8
 447              		.cfi_offset 14, -4
 448 0002 B2B0     		sub	sp, sp, #200
ARM GAS  C:\Users\user\AppData\Local\Temp\ccFGCMCO.s 			page 11


 449              		.cfi_def_cfa_offset 208
 450 0004 0446     		mov	r4, r0
 111:uartp2.c      ****     ll_put((uint8)'R');
 451              		.loc 1 111 0
 452 0006 5220     		movs	r0, #82
 453              	.LVL61:
 454 0008 FFF7FEFF 		bl	ll_put
 455              	.LVL62:
 112:uartp2.c      ****     uint8 raw[100];
 113:uartp2.c      ****     if (!recv_payload(raw, 100u)) { ll_put((uint8)'!'); return; }
 456              		.loc 1 113 0
 457 000c 6421     		movs	r1, #100
 458 000e 0DEB0100 		add	r0, sp, r1
 459 0012 FFF7FEFF 		bl	recv_payload
 460              	.LVL63:
 461 0016 18B9     		cbnz	r0, .L42
 462              		.loc 1 113 0 is_stmt 0 discriminator 1
 463 0018 2120     		movs	r0, #33
 464 001a FFF7FEFF 		bl	ll_put
 465              	.LVL64:
 466 001e 0DE0     		b	.L41
 467              	.L42:
 114:uartp2.c      ****     float c[25];
 115:uartp2.c      ****     memcpy(c, raw, 100u);
 468              		.loc 1 115 0 is_stmt 1
 469 0020 6422     		movs	r2, #100
 470 0022 0DEB0201 		add	r1, sp, r2
 471 0026 6846     		mov	r0, sp
 472 0028 FFF7FEFF 		bl	memcpy
 473              	.LVL65:
 116:uartp2.c      ****     ctrl_apply_coeffs(plant_id, c, 25u);
 474              		.loc 1 116 0
 475 002c 1922     		movs	r2, #25
 476 002e 6946     		mov	r1, sp
 477 0030 2046     		mov	r0, r4
 478 0032 FFF7FEFF 		bl	ctrl_apply_coeffs
 479              	.LVL66:
 117:uartp2.c      ****     ll_put((uint8)'K');
 480              		.loc 1 117 0
 481 0036 4B20     		movs	r0, #75
 482 0038 FFF7FEFF 		bl	ll_put
 483              	.LVL67:
 484              	.L41:
 118:uartp2.c      **** }
 485              		.loc 1 118 0
 486 003c 32B0     		add	sp, sp, #200
 487              		.cfi_def_cfa_offset 8
 488              		@ sp needed
 489 003e 10BD     		pop	{r4, pc}
 490              		.cfi_endproc
 491              	.LFE69:
 492              		.size	handle_coeffs, .-handle_coeffs
 493              		.section	.text.handle_start,"ax",%progbits
 494              		.align	2
 495              		.thumb
 496              		.thumb_func
 497              		.type	handle_start, %function
ARM GAS  C:\Users\user\AppData\Local\Temp\ccFGCMCO.s 			page 12


 498              	handle_start:
 499              	.LFB70:
 119:uartp2.c      **** 
 120:uartp2.c      **** static void handle_start(void)
 121:uartp2.c      **** {
 500              		.loc 1 121 0
 501              		.cfi_startproc
 502              		@ args = 0, pretend = 0, frame = 8
 503              		@ frame_needed = 0, uses_anonymous_args = 0
 504 0000 00B5     		push	{lr}
 505              		.cfi_def_cfa_offset 4
 506              		.cfi_offset 14, -4
 507 0002 83B0     		sub	sp, sp, #12
 508              		.cfi_def_cfa_offset 16
 122:uartp2.c      ****     ll_put((uint8)'R');
 509              		.loc 1 122 0
 510 0004 5220     		movs	r0, #82
 511 0006 FFF7FEFF 		bl	ll_put
 512              	.LVL68:
 123:uartp2.c      ****     uint8 raw[4];
 124:uartp2.c      ****     if (!recv_payload(raw, 4u)) { ll_put((uint8)'!'); return; }
 513              		.loc 1 124 0
 514 000a 0421     		movs	r1, #4
 515 000c 0DEB0100 		add	r0, sp, r1
 516 0010 FFF7FEFF 		bl	recv_payload
 517              	.LVL69:
 518 0014 18B9     		cbnz	r0, .L46
 519              		.loc 1 124 0 is_stmt 0 discriminator 1
 520 0016 2120     		movs	r0, #33
 521 0018 FFF7FEFF 		bl	ll_put
 522              	.LVL70:
 523 001c 0AE0     		b	.L45
 524              	.L46:
 125:uartp2.c      ****     float ref0;
 126:uartp2.c      ****     memcpy(&ref0, raw, 4u);
 525              		.loc 1 126 0 is_stmt 1
 526 001e 019B     		ldr	r3, [sp, #4]
 527 0020 0093     		str	r3, [sp]
 127:uartp2.c      ****     ctrl_start(ref0);
 528              		.loc 1 127 0
 529 0022 0098     		ldr	r0, [sp]	@ float
 530 0024 FFF7FEFF 		bl	ctrl_start
 531              	.LVL71:
 128:uartp2.c      ****     ll_put((uint8)'K');
 532              		.loc 1 128 0
 533 0028 4B20     		movs	r0, #75
 534 002a FFF7FEFF 		bl	ll_put
 535              	.LVL72:
 129:uartp2.c      ****     UARTP2_Mode = UARTP2_CTRL;
 536              		.loc 1 129 0
 537 002e 0122     		movs	r2, #1
 538 0030 024B     		ldr	r3, .L49
 539 0032 1A70     		strb	r2, [r3]
 540              	.L45:
 130:uartp2.c      **** }
 541              		.loc 1 130 0
 542 0034 03B0     		add	sp, sp, #12
ARM GAS  C:\Users\user\AppData\Local\Temp\ccFGCMCO.s 			page 13


 543              		.cfi_def_cfa_offset 4
 544              		@ sp needed
 545 0036 5DF804FB 		ldr	pc, [sp], #4
 546              	.L50:
 547 003a 00BF     		.align	2
 548              	.L49:
 549 003c 00000000 		.word	.LANCHOR0
 550              		.cfi_endproc
 551              	.LFE70:
 552              		.size	handle_start, .-handle_start
 553              		.section	.text.UARTP2_Init,"ax",%progbits
 554              		.align	2
 555              		.global	UARTP2_Init
 556              		.thumb
 557              		.thumb_func
 558              		.type	UARTP2_Init, %function
 559              	UARTP2_Init:
 560              	.LFB71:
 131:uartp2.c      **** 
 132:uartp2.c      **** /* ============================================================
 133:uartp2.c      ****    UARTP2_Init()
 134:uartp2.c      ****    ============================================================ */
 135:uartp2.c      **** void UARTP2_Init(void)
 136:uartp2.c      **** {
 561              		.loc 1 136 0
 562              		.cfi_startproc
 563              		@ args = 0, pretend = 0, frame = 0
 564              		@ frame_needed = 0, uses_anonymous_args = 0
 565 0000 08B5     		push	{r3, lr}
 566              		.cfi_def_cfa_offset 8
 567              		.cfi_offset 3, -8
 568              		.cfi_offset 14, -4
 137:uartp2.c      ****     UART_1_Start();
 569              		.loc 1 137 0
 570 0002 FFF7FEFF 		bl	UART_1_Start
 571              	.LVL73:
 138:uartp2.c      ****     ll_flush();
 572              		.loc 1 138 0
 573 0006 FFF7FEFF 		bl	ll_flush
 574              	.LVL74:
 139:uartp2.c      ****     UARTP2_Mode = UARTP2_CMD;
 575              		.loc 1 139 0
 576 000a 0022     		movs	r2, #0
 577 000c 014B     		ldr	r3, .L53
 578 000e 1A70     		strb	r2, [r3]
 579 0010 08BD     		pop	{r3, pc}
 580              	.L54:
 581 0012 00BF     		.align	2
 582              	.L53:
 583 0014 00000000 		.word	.LANCHOR0
 584              		.cfi_endproc
 585              	.LFE71:
 586              		.size	UARTP2_Init, .-UARTP2_Init
 587              		.section	.text.UARTP2_ProcessOnce,"ax",%progbits
 588              		.align	2
 589              		.global	UARTP2_ProcessOnce
 590              		.thumb
ARM GAS  C:\Users\user\AppData\Local\Temp\ccFGCMCO.s 			page 14


 591              		.thumb_func
 592              		.type	UARTP2_ProcessOnce, %function
 593              	UARTP2_ProcessOnce:
 594              	.LFB72:
 140:uartp2.c      **** }
 141:uartp2.c      **** 
 142:uartp2.c      **** /* ============================================================
 143:uartp2.c      ****    UARTP2_ProcessOnce()  — call from COMMAND loop
 144:uartp2.c      ****    ============================================================ */
 145:uartp2.c      **** void UARTP2_ProcessOnce(void)
 146:uartp2.c      **** {
 595              		.loc 1 146 0
 596              		.cfi_startproc
 597              		@ args = 0, pretend = 0, frame = 0
 598              		@ frame_needed = 0, uses_anonymous_args = 0
 599 0000 08B5     		push	{r3, lr}
 600              		.cfi_def_cfa_offset 8
 601              		.cfi_offset 3, -8
 602              		.cfi_offset 14, -4
 147:uartp2.c      ****     if (UART_1_GetRxBufferSize() == 0u) return;
 603              		.loc 1 147 0
 604 0002 FFF7FEFF 		bl	UART_1_GetRxBufferSize
 605              	.LVL75:
 606 0006 0028     		cmp	r0, #0
 607 0008 52D0     		beq	.L55
 148:uartp2.c      ****     uint8 cmd = UART_1_ReadRxData();
 608              		.loc 1 148 0
 609 000a FFF7FEFF 		bl	UART_1_ReadRxData
 610              	.LVL76:
 149:uartp2.c      **** 
 150:uartp2.c      ****     switch (cmd)
 611              		.loc 1 150 0
 612 000e 3138     		subs	r0, r0, #49
 613              	.LVL77:
 614 0010 4228     		cmp	r0, #66
 615 0012 4AD8     		bhi	.L57
 616 0014 DFE800F0 		tbb	[pc, r0]
 617              	.L59:
 618 0018 36       		.byte	(.L58-.L59)/2
 619 0019 3A       		.byte	(.L60-.L59)/2
 620 001a 49       		.byte	(.L57-.L59)/2
 621 001b 49       		.byte	(.L57-.L59)/2
 622 001c 49       		.byte	(.L57-.L59)/2
 623 001d 49       		.byte	(.L57-.L59)/2
 624 001e 49       		.byte	(.L57-.L59)/2
 625 001f 49       		.byte	(.L57-.L59)/2
 626 0020 49       		.byte	(.L57-.L59)/2
 627 0021 49       		.byte	(.L57-.L59)/2
 628 0022 49       		.byte	(.L57-.L59)/2
 629 0023 49       		.byte	(.L57-.L59)/2
 630 0024 49       		.byte	(.L57-.L59)/2
 631 0025 49       		.byte	(.L57-.L59)/2
 632 0026 49       		.byte	(.L57-.L59)/2
 633 0027 49       		.byte	(.L57-.L59)/2
 634 0028 49       		.byte	(.L57-.L59)/2
 635 0029 49       		.byte	(.L57-.L59)/2
 636 002a 49       		.byte	(.L57-.L59)/2
ARM GAS  C:\Users\user\AppData\Local\Temp\ccFGCMCO.s 			page 15


 637 002b 49       		.byte	(.L57-.L59)/2
 638 002c 49       		.byte	(.L57-.L59)/2
 639 002d 49       		.byte	(.L57-.L59)/2
 640 002e 49       		.byte	(.L57-.L59)/2
 641 002f 49       		.byte	(.L57-.L59)/2
 642 0030 49       		.byte	(.L57-.L59)/2
 643 0031 49       		.byte	(.L57-.L59)/2
 644 0032 49       		.byte	(.L57-.L59)/2
 645 0033 49       		.byte	(.L57-.L59)/2
 646 0034 49       		.byte	(.L57-.L59)/2
 647 0035 49       		.byte	(.L57-.L59)/2
 648 0036 49       		.byte	(.L57-.L59)/2
 649 0037 49       		.byte	(.L57-.L59)/2
 650 0038 49       		.byte	(.L57-.L59)/2
 651 0039 49       		.byte	(.L57-.L59)/2
 652 003a 49       		.byte	(.L57-.L59)/2
 653 003b 49       		.byte	(.L57-.L59)/2
 654 003c 49       		.byte	(.L57-.L59)/2
 655 003d 49       		.byte	(.L57-.L59)/2
 656 003e 49       		.byte	(.L57-.L59)/2
 657 003f 49       		.byte	(.L57-.L59)/2
 658 0040 49       		.byte	(.L57-.L59)/2
 659 0041 49       		.byte	(.L57-.L59)/2
 660 0042 49       		.byte	(.L57-.L59)/2
 661 0043 49       		.byte	(.L57-.L59)/2
 662 0044 49       		.byte	(.L57-.L59)/2
 663 0045 49       		.byte	(.L57-.L59)/2
 664 0046 49       		.byte	(.L57-.L59)/2
 665 0047 49       		.byte	(.L57-.L59)/2
 666 0048 3E       		.byte	(.L61-.L59)/2
 667 0049 42       		.byte	(.L62-.L59)/2
 668 004a 49       		.byte	(.L57-.L59)/2
 669 004b 49       		.byte	(.L57-.L59)/2
 670 004c 49       		.byte	(.L57-.L59)/2
 671 004d 49       		.byte	(.L57-.L59)/2
 672 004e 49       		.byte	(.L57-.L59)/2
 673 004f 49       		.byte	(.L57-.L59)/2
 674 0050 46       		.byte	(.L63-.L59)/2
 675 0051 49       		.byte	(.L57-.L59)/2
 676 0052 49       		.byte	(.L57-.L59)/2
 677 0053 49       		.byte	(.L57-.L59)/2
 678 0054 49       		.byte	(.L57-.L59)/2
 679 0055 49       		.byte	(.L57-.L59)/2
 680 0056 49       		.byte	(.L57-.L59)/2
 681 0057 49       		.byte	(.L57-.L59)/2
 682 0058 49       		.byte	(.L57-.L59)/2
 683 0059 22       		.byte	(.L64-.L59)/2
 684 005a 2D       		.byte	(.L65-.L59)/2
 685 005b 00       		.p2align 1
 686              	.L64:
 151:uartp2.c      ****     {
 152:uartp2.c      ****         case (uint8)'r':                          /* reset / stop */
 153:uartp2.c      ****             ctrl_stop();
 687              		.loc 1 153 0
 688 005c FFF7FEFF 		bl	ctrl_stop
 689              	.LVL78:
 154:uartp2.c      ****             ll_flush();
ARM GAS  C:\Users\user\AppData\Local\Temp\ccFGCMCO.s 			page 16


 690              		.loc 1 154 0
 691 0060 FFF7FEFF 		bl	ll_flush
 692              	.LVL79:
 155:uartp2.c      ****             UARTP2_Mode = UARTP2_CMD;
 693              		.loc 1 155 0
 694 0064 0022     		movs	r2, #0
 695 0066 134B     		ldr	r3, .L67
 696 0068 1A70     		strb	r2, [r3]
 156:uartp2.c      ****             ll_put((uint8)'K');
 697              		.loc 1 156 0
 698 006a 4B20     		movs	r0, #75
 699 006c FFF7FEFF 		bl	ll_put
 700              	.LVL80:
 157:uartp2.c      ****             break;
 701              		.loc 1 157 0
 702 0070 08BD     		pop	{r3, pc}
 703              	.L65:
 158:uartp2.c      **** 
 159:uartp2.c      ****         case (uint8)'s':                          /* stop */
 160:uartp2.c      ****             ctrl_stop();
 704              		.loc 1 160 0
 705 0072 FFF7FEFF 		bl	ctrl_stop
 706              	.LVL81:
 161:uartp2.c      ****             UARTP2_Mode = UARTP2_CMD;
 707              		.loc 1 161 0
 708 0076 0022     		movs	r2, #0
 709 0078 0E4B     		ldr	r3, .L67
 710 007a 1A70     		strb	r2, [r3]
 162:uartp2.c      ****             ll_put((uint8)'K');
 711              		.loc 1 162 0
 712 007c 4B20     		movs	r0, #75
 713 007e FFF7FEFF 		bl	ll_put
 714              	.LVL82:
 163:uartp2.c      ****             break;
 715              		.loc 1 163 0
 716 0082 08BD     		pop	{r3, pc}
 717              	.L58:
 164:uartp2.c      **** 
 165:uartp2.c      ****         case (uint8)'1':                          /* set mode plant 0 (inner) */
 166:uartp2.c      ****             handle_setmode(PLANT_INNER);
 718              		.loc 1 166 0
 719 0084 0020     		movs	r0, #0
 720 0086 FFF7FEFF 		bl	handle_setmode
 721              	.LVL83:
 167:uartp2.c      ****             break;
 722              		.loc 1 167 0
 723 008a 08BD     		pop	{r3, pc}
 724              	.L60:
 168:uartp2.c      **** 
 169:uartp2.c      ****         case (uint8)'2':                          /* set mode plant 1 (outer) */
 170:uartp2.c      ****             handle_setmode(PLANT_OUTER);
 725              		.loc 1 170 0
 726 008c 0120     		movs	r0, #1
 727 008e FFF7FEFF 		bl	handle_setmode
 728              	.LVL84:
 171:uartp2.c      ****             break;
 729              		.loc 1 171 0
ARM GAS  C:\Users\user\AppData\Local\Temp\ccFGCMCO.s 			page 17


 730 0092 08BD     		pop	{r3, pc}
 731              	.L61:
 172:uartp2.c      **** 
 173:uartp2.c      ****         case (uint8)'a':                          /* coefficients plant 0 */
 174:uartp2.c      ****             handle_coeffs(PLANT_INNER);
 732              		.loc 1 174 0
 733 0094 0020     		movs	r0, #0
 734 0096 FFF7FEFF 		bl	handle_coeffs
 735              	.LVL85:
 175:uartp2.c      ****             break;
 736              		.loc 1 175 0
 737 009a 08BD     		pop	{r3, pc}
 738              	.L62:
 176:uartp2.c      **** 
 177:uartp2.c      ****         case (uint8)'b':                          /* coefficients plant 1 */
 178:uartp2.c      ****             handle_coeffs(PLANT_OUTER);
 739              		.loc 1 178 0
 740 009c 0120     		movs	r0, #1
 741 009e FFF7FEFF 		bl	handle_coeffs
 742              	.LVL86:
 179:uartp2.c      ****             break;
 743              		.loc 1 179 0
 744 00a2 08BD     		pop	{r3, pc}
 745              	.L63:
 180:uartp2.c      **** 
 181:uartp2.c      ****         case (uint8)'i':                          /* start control */
 182:uartp2.c      ****             handle_start();
 746              		.loc 1 182 0
 747 00a4 FFF7FEFF 		bl	handle_start
 748              	.LVL87:
 183:uartp2.c      ****             break;
 749              		.loc 1 183 0
 750 00a8 08BD     		pop	{r3, pc}
 751              	.L57:
 184:uartp2.c      **** 
 185:uartp2.c      ****         default:
 186:uartp2.c      ****             ll_put((uint8)'!');
 752              		.loc 1 186 0
 753 00aa 2120     		movs	r0, #33
 754 00ac FFF7FEFF 		bl	ll_put
 755              	.LVL88:
 756              	.L55:
 757 00b0 08BD     		pop	{r3, pc}
 758              	.L68:
 759 00b2 00BF     		.align	2
 760              	.L67:
 761 00b4 00000000 		.word	.LANCHOR0
 762              		.cfi_endproc
 763              	.LFE72:
 764              		.size	UARTP2_ProcessOnce, .-UARTP2_ProcessOnce
 765              		.global	UARTP2_Mode
 766              		.bss
 767              		.set	.LANCHOR0,. + 0
 768              		.type	UARTP2_Mode, %object
 769              		.size	UARTP2_Mode, 1
 770              	UARTP2_Mode:
 771 0000 00       		.space	1
ARM GAS  C:\Users\user\AppData\Local\Temp\ccFGCMCO.s 			page 18


 772              		.text
 773              	.Letext0:
 774              		.file 2 "d:\\psoc\\psoc creator\\4.4\\psoc creator\\import\\gnu\\arm\\5.4.1\\arm-none-eabi\\includ
 775              		.file 3 "d:\\psoc\\psoc creator\\4.4\\psoc creator\\import\\gnu\\arm\\5.4.1\\arm-none-eabi\\includ
 776              		.file 4 "Generated_Source\\PSoC5/cytypes.h"
 777              		.file 5 "uartp2.h"
 778              		.file 6 "Generated_Source\\PSoC5/core_cm3.h"
 779              		.file 7 "Generated_Source\\PSoC5/UART_1.h"
 780              		.file 8 "Generated_Source\\PSoC5/CyLib.h"
 781              		.file 9 "ctrl_pend.h"