ARM GAS  C:\Users\user\AppData\Local\Temp\cc10KRYZ.s 			page 1


   1              		.syntax unified
   2              		.cpu cortex-m3
   3              		.fpu softvfp
   4              		.eabi_attribute 20, 1
   5              		.eabi_attribute 21, 1
   6              		.eabi_attribute 23, 3
   7              		.eabi_attribute 24, 1
   8              		.eabi_attribute 25, 1
   9              		.eabi_attribute 26, 1
  10              		.eabi_attribute 30, 1
  11              		.eabi_attribute 34, 1
  12              		.eabi_attribute 18, 4
  13              		.thumb
  14              		.syntax unified
  15              		.file	"main.c"
  16              		.text
  17              	.Ltext0:
  18              		.cfi_sections	.debug_frame
  19              		.global	__aeabi_i2f
  20              		.global	__aeabi_fmul
  21              		.global	__aeabi_fdiv
  22              		.section	.text.Motor_Speed_ISR,"ax",%progbits
  23              		.align	2
  24              		.global	Motor_Speed_ISR
  25              		.thumb
  26              		.thumb_func
  27              		.type	Motor_Speed_ISR, %function
  28              	Motor_Speed_ISR:
  29              	.LFB66:
  30              		.file 1 "main.c"
   1:main.c        **** #include "project.h"
   2:main.c        **** #include <stdlib.h>
   3:main.c        **** #include <stdio.h>
   4:main.c        **** #include <math.h>
   5:main.c        **** 
   6:main.c        **** /*******************************************************************************
   7:main.c        **** * DEFINICIONES
   8:main.c        **** *******************************************************************************/
   9:main.c        **** 
  10:main.c        **** // Configuración del PWM
  11:main.c        **** #define PWM_PERIOD          1264
  12:main.c        **** 
  13:main.c        **** // Límites de velocidad
  14:main.c        **** #define MOTOR_MAX           PWM_PERIOD
  15:main.c        **** #define MOTOR_MIN           -PWM_PERIOD
  16:main.c        **** 
  17:main.c        **** // Encoder del motor: cuentas por revolución mecánica
  18:main.c        **** // QuadDec usa modo x4 → si el encoder tiene N PPR, CPR = 4*N
  19:main.c        **** // Ajustar según el encoder físico utilizado
  20:main.c        **** #define ENCODER_CPR         1040u
  21:main.c        **** 
  22:main.c        **** // Tiempo de muestreo en segundos.
  23:main.c        **** // clk_Timer = 24 MHz, period = 240000 cuentas
  24:main.c        **** //   T = 240000 / 24000000 = 0.01 s  (10 ms)
  25:main.c        **** #define SAMPLE_TIME_S       0.01f
  26:main.c        **** 
  27:main.c        **** // Coeficientes Poly4: RPM = f(PWM)
ARM GAS  C:\Users\user\AppData\Local\Temp\cc10KRYZ.s 			page 2


  28:main.c        **** #define RPM_P1   2.264e-11f
  29:main.c        **** #define RPM_P2  -6.042e-08f
  30:main.c        **** #define RPM_P3   4.570e-05f
  31:main.c        **** #define RPM_P4   1.611e-03f
  32:main.c        **** #define RPM_P5  -8.532e-01f
  33:main.c        **** 
  34:main.c        **** // Coeficientes Poly4: PWM = f(Voltaje)
  35:main.c        **** #define PWM_P1  -1.101764e-01f
  36:main.c        **** #define PWM_P2   4.057681e+00f
  37:main.c        **** #define PWM_P3  -3.073966e+01f
  38:main.c        **** #define PWM_P4   1.321242e+02f
  39:main.c        **** #define PWM_P5   1.250859e+02f
  40:main.c        **** 
  41:main.c        **** /*******************************************************************************
  42:main.c        **** * POLINOMIO DE AJUSTE — RPM estimado a partir del PWM
  43:main.c        **** * Usa el método de Horner para minimizar operaciones
  44:main.c        **** *******************************************************************************/
  45:main.c        **** 
  46:main.c        **** float RPM_Estimado(int16 pwm)
  47:main.c        **** {
  48:main.c        ****     float x = (float)pwm;
  49:main.c        ****     return (((RPM_P1 * x + RPM_P2) * x + RPM_P3) * x + RPM_P4) * x + RPM_P5;
  50:main.c        **** }
  51:main.c        **** 
  52:main.c        **** int16 PWM_Desde_Voltaje(float v)
  53:main.c        **** {
  54:main.c        ****     int16 pwm = (int16)((((PWM_P1 * v + PWM_P2) * v + PWM_P3) * v + PWM_P4) * v + PWM_P5);
  55:main.c        ****     if (pwm > MOTOR_MAX) pwm = MOTOR_MAX;
  56:main.c        ****     if (pwm < 0)         pwm = 0;
  57:main.c        ****     return pwm;
  58:main.c        **** }
  59:main.c        **** 
  60:main.c        **** /*******************************************************************************
  61:main.c        **** * VARIABLES GLOBALES — VELOCIDAD DEL MOTOR
  62:main.c        **** *******************************************************************************/
  63:main.c        **** 
  64:main.c        **** volatile int32 encoder_prev_count = 0;
  65:main.c        **** volatile float motor_speed_rpm    = 0.0f;   // Positivo = adelante, negativo = atrás
  66:main.c        **** 
  67:main.c        **** /*******************************************************************************
  68:main.c        **** * ISR DEL TIMER_1 — Cálculo periódico de velocidad del motor
  69:main.c        **** *
  70:main.c        **** * Se ejecuta cada SAMPLE_TIME_S segundos al llegar el Timer_1 a terminal count.
  71:main.c        **** * Fórmula: RPM = (delta_cuentas * 60) / (ENCODER_CPR * SAMPLE_TIME_S)
  72:main.c        **** *******************************************************************************/
  73:main.c        **** 
  74:main.c        **** CY_ISR(Motor_Speed_ISR)
  75:main.c        **** {
  31              		.loc 1 75 0
  32              		.cfi_startproc
  33              		@ args = 0, pretend = 0, frame = 0
  34              		@ frame_needed = 0, uses_anonymous_args = 0
  35 0000 10B5     		push	{r4, lr}
  36              		.cfi_def_cfa_offset 8
  37              		.cfi_offset 4, -8
  38              		.cfi_offset 14, -4
  76:main.c        ****     int32 current_count;
ARM GAS  C:\Users\user\AppData\Local\Temp\cc10KRYZ.s 			page 3


  77:main.c        ****     int32 delta_counts;
  78:main.c        **** 
  79:main.c        ****     // Leer posición actual del encoder
  80:main.c        ****     current_count = QuadDec_1_GetCounter();
  39              		.loc 1 80 0
  40 0002 FFF7FEFF 		bl	QuadDec_1_GetCounter
  41              	.LVL0:
  81:main.c        **** 
  82:main.c        ****     // Delta con signo (positivo = adelante, negativo = atrás)
  83:main.c        ****     delta_counts = current_count - encoder_prev_count;
  42              		.loc 1 83 0
  43 0006 084C     		ldr	r4, .L3
  44 0008 2368     		ldr	r3, [r4]
  45              	.LVL1:
  84:main.c        ****     encoder_prev_count = current_count;
  46              		.loc 1 84 0
  47 000a 2060     		str	r0, [r4]
  85:main.c        **** 
  86:main.c        ****     // Calcular RPM
  87:main.c        ****     motor_speed_rpm = ((float)delta_counts * 60.0f) /
  48              		.loc 1 87 0
  49 000c C01A     		subs	r0, r0, r3
  50              	.LVL2:
  51 000e FFF7FEFF 		bl	__aeabi_i2f
  52              	.LVL3:
  53 0012 0649     		ldr	r1, .L3+4
  54 0014 FFF7FEFF 		bl	__aeabi_fmul
  55              	.LVL4:
  56 0018 0549     		ldr	r1, .L3+8
  57 001a FFF7FEFF 		bl	__aeabi_fdiv
  58              	.LVL5:
  59 001e 6060     		str	r0, [r4, #4]	@ float
  88:main.c        ****                       ((float)ENCODER_CPR * SAMPLE_TIME_S);
  89:main.c        **** 
  90:main.c        ****     // Limpiar flag de interrupción del Timer_1
  91:main.c        ****     Timer_1_ReadStatusRegister();
  60              		.loc 1 91 0
  61 0020 FFF7FEFF 		bl	Timer_1_ReadStatusRegister
  62              	.LVL6:
  63 0024 10BD     		pop	{r4, pc}
  64              	.L4:
  65 0026 00BF     		.align	2
  66              	.L3:
  67 0028 00000000 		.word	.LANCHOR0
  68 002c 00007042 		.word	1114636288
  69 0030 66662641 		.word	1093035622
  70              		.cfi_endproc
  71              	.LFE66:
  72              		.size	Motor_Speed_ISR, .-Motor_Speed_ISR
  73              		.global	__aeabi_fsub
  74              		.global	__aeabi_fadd
  75              		.section	.text.RPM_Estimado,"ax",%progbits
  76              		.align	2
  77              		.global	RPM_Estimado
  78              		.thumb
  79              		.thumb_func
  80              		.type	RPM_Estimado, %function
ARM GAS  C:\Users\user\AppData\Local\Temp\cc10KRYZ.s 			page 4


  81              	RPM_Estimado:
  82              	.LFB64:
  47:main.c        ****     float x = (float)pwm;
  83              		.loc 1 47 0
  84              		.cfi_startproc
  85              		@ args = 0, pretend = 0, frame = 0
  86              		@ frame_needed = 0, uses_anonymous_args = 0
  87              	.LVL7:
  88 0000 10B5     		push	{r4, lr}
  89              		.cfi_def_cfa_offset 8
  90              		.cfi_offset 4, -8
  91              		.cfi_offset 14, -4
  48:main.c        ****     return (((RPM_P1 * x + RPM_P2) * x + RPM_P3) * x + RPM_P4) * x + RPM_P5;
  92              		.loc 1 48 0
  93 0002 FFF7FEFF 		bl	__aeabi_i2f
  94              	.LVL8:
  95 0006 0446     		mov	r4, r0
  96              	.LVL9:
  49:main.c        **** }
  97              		.loc 1 49 0
  98 0008 0D49     		ldr	r1, .L7
  99 000a FFF7FEFF 		bl	__aeabi_fmul
 100              	.LVL10:
 101 000e 0D49     		ldr	r1, .L7+4
 102 0010 FFF7FEFF 		bl	__aeabi_fsub
 103              	.LVL11:
 104 0014 0146     		mov	r1, r0
 105 0016 2046     		mov	r0, r4
 106 0018 FFF7FEFF 		bl	__aeabi_fmul
 107              	.LVL12:
 108 001c 0A49     		ldr	r1, .L7+8
 109 001e FFF7FEFF 		bl	__aeabi_fadd
 110              	.LVL13:
 111 0022 0146     		mov	r1, r0
 112 0024 2046     		mov	r0, r4
 113 0026 FFF7FEFF 		bl	__aeabi_fmul
 114              	.LVL14:
 115 002a 0849     		ldr	r1, .L7+12
 116 002c FFF7FEFF 		bl	__aeabi_fadd
 117              	.LVL15:
 118 0030 0146     		mov	r1, r0
 119 0032 2046     		mov	r0, r4
 120 0034 FFF7FEFF 		bl	__aeabi_fmul
 121              	.LVL16:
 122 0038 0549     		ldr	r1, .L7+16
 123 003a FFF7FEFF 		bl	__aeabi_fsub
 124              	.LVL17:
  50:main.c        **** 
 125              		.loc 1 50 0
 126 003e 10BD     		pop	{r4, pc}
 127              	.LVL18:
 128              	.L8:
 129              		.align	2
 130              	.L7:
 131 0040 BF24C72D 		.word	768025791
 132 0044 3FC08133 		.word	864141375
 133 0048 00AE3F38 		.word	943697408
ARM GAS  C:\Users\user\AppData\Local\Temp\cc10KRYZ.s 			page 5


 134 004c 3128D33A 		.word	986916913
 135 0050 516B5A3F 		.word	1062890321
 136              		.cfi_endproc
 137              	.LFE64:
 138              		.size	RPM_Estimado, .-RPM_Estimado
 139              		.global	__aeabi_f2iz
 140              		.section	.text.PWM_Desde_Voltaje,"ax",%progbits
 141              		.align	2
 142              		.global	PWM_Desde_Voltaje
 143              		.thumb
 144              		.thumb_func
 145              		.type	PWM_Desde_Voltaje, %function
 146              	PWM_Desde_Voltaje:
 147              	.LFB65:
  53:main.c        ****     int16 pwm = (int16)((((PWM_P1 * v + PWM_P2) * v + PWM_P3) * v + PWM_P4) * v + PWM_P5);
 148              		.loc 1 53 0
 149              		.cfi_startproc
 150              		@ args = 0, pretend = 0, frame = 0
 151              		@ frame_needed = 0, uses_anonymous_args = 0
 152              	.LVL19:
 153 0000 10B5     		push	{r4, lr}
 154              		.cfi_def_cfa_offset 8
 155              		.cfi_offset 4, -8
 156              		.cfi_offset 14, -4
 157 0002 0446     		mov	r4, r0
  54:main.c        ****     if (pwm > MOTOR_MAX) pwm = MOTOR_MAX;
 158              		.loc 1 54 0
 159 0004 1349     		ldr	r1, .L15
 160 0006 FFF7FEFF 		bl	__aeabi_fmul
 161              	.LVL20:
 162 000a 1349     		ldr	r1, .L15+4
 163 000c FFF7FEFF 		bl	__aeabi_fadd
 164              	.LVL21:
 165 0010 0146     		mov	r1, r0
 166 0012 2046     		mov	r0, r4
 167 0014 FFF7FEFF 		bl	__aeabi_fmul
 168              	.LVL22:
 169 0018 1049     		ldr	r1, .L15+8
 170 001a FFF7FEFF 		bl	__aeabi_fsub
 171              	.LVL23:
 172 001e 0146     		mov	r1, r0
 173 0020 2046     		mov	r0, r4
 174 0022 FFF7FEFF 		bl	__aeabi_fmul
 175              	.LVL24:
 176 0026 0E49     		ldr	r1, .L15+12
 177 0028 FFF7FEFF 		bl	__aeabi_fadd
 178              	.LVL25:
 179 002c 0146     		mov	r1, r0
 180 002e 2046     		mov	r0, r4
 181 0030 FFF7FEFF 		bl	__aeabi_fmul
 182              	.LVL26:
 183 0034 0B49     		ldr	r1, .L15+16
 184 0036 FFF7FEFF 		bl	__aeabi_fadd
 185              	.LVL27:
 186 003a FFF7FEFF 		bl	__aeabi_f2iz
 187              	.LVL28:
 188 003e 00B2     		sxth	r0, r0
ARM GAS  C:\Users\user\AppData\Local\Temp\cc10KRYZ.s 			page 6


 189              	.LVL29:
  55:main.c        ****     if (pwm < 0)         pwm = 0;
 190              		.loc 1 55 0
 191 0040 B0F59E6F 		cmp	r0, #1264
 192 0044 01DD     		ble	.L10
 193 0046 4FF49E60 		mov	r0, #1264
 194              	.LVL30:
 195              	.L10:
  56:main.c        ****     return pwm;
 196              		.loc 1 56 0
 197 004a 0028     		cmp	r0, #0
 198 004c 00DA     		bge	.L11
 199 004e 0020     		movs	r0, #0
 200              	.LVL31:
 201              	.L11:
  58:main.c        **** 
 202              		.loc 1 58 0
 203 0050 10BD     		pop	{r4, pc}
 204              	.LVL32:
 205              	.L16:
 206 0052 00BF     		.align	2
 207              	.L15:
 208 0054 2AA4E1BD 		.word	-1109285846
 209 0058 86D88140 		.word	1082251398
 210 005c D3EAF541 		.word	1106635475
 211 0060 CC1F0443 		.word	1124343756
 212 0064 FB2BFA42 		.word	1123691515
 213              		.cfi_endproc
 214              	.LFE65:
 215              		.size	PWM_Desde_Voltaje, .-PWM_Desde_Voltaje
 216              		.section	.text.Motor_Control,"ax",%progbits
 217              		.align	2
 218              		.global	Motor_Control
 219              		.thumb
 220              		.thumb_func
 221              		.type	Motor_Control, %function
 222              	Motor_Control:
 223              	.LFB67:
  92:main.c        **** }
  93:main.c        **** 
  94:main.c        **** /*******************************************************************************
  95:main.c        **** * FUNCIONES DE CONTROL DEL MOTOR
  96:main.c        **** *******************************************************************************/
  97:main.c        **** 
  98:main.c        **** /**
  99:main.c        ****  * @brief Controla el motor DC con el L298N
 100:main.c        ****  * @param velocidad: -2524 (máx. atrás) a +2524 (máx. adelante)
 101:main.c        ****  * 
 102:main.c        ****  * Pines utilizados:
 103:main.c        ****  *   - Pin_ENA (P2[7]): PWM para velocidad
 104:main.c        ****  *   - Pin_IN1 (P2[6]): Control de dirección 1
 105:main.c        ****  *   - Pin_IN2 (P2[5]): Control de dirección 2
 106:main.c        ****  */
 107:main.c        **** void Motor_Control(int16 velocidad) {
 224              		.loc 1 107 0
 225              		.cfi_startproc
 226              		@ args = 0, pretend = 0, frame = 0
ARM GAS  C:\Users\user\AppData\Local\Temp\cc10KRYZ.s 			page 7


 227              		@ frame_needed = 0, uses_anonymous_args = 0
 228              	.LVL33:
 229 0000 10B5     		push	{r4, lr}
 230              		.cfi_def_cfa_offset 8
 231              		.cfi_offset 4, -8
 232              		.cfi_offset 14, -4
 233 0002 0446     		mov	r4, r0
 108:main.c        ****     
 109:main.c        ****     // Saturación de velocidad
 110:main.c        ****     if (velocidad > MOTOR_MAX) velocidad = MOTOR_MAX;
 234              		.loc 1 110 0
 235 0004 B0F59E6F 		cmp	r0, #1264
 236 0008 01DD     		ble	.L18
 237 000a 4FF49E64 		mov	r4, #1264
 238              	.L18:
 239              	.LVL34:
 111:main.c        ****     if (velocidad < MOTOR_MIN) velocidad = MOTOR_MIN;
 240              		.loc 1 111 0
 241 000e 14F59E6F 		cmn	r4, #1264
 242 0012 00DA     		bge	.L19
 243 0014 114C     		ldr	r4, .L26
 244              	.LVL35:
 245              	.L19:
 112:main.c        ****     
 113:main.c        ****     if (velocidad > 0) {
 246              		.loc 1 113 0
 247 0016 002C     		cmp	r4, #0
 248 0018 09DD     		ble	.L20
 114:main.c        ****         // Motor ADELANTE
 115:main.c        ****         Pin_IN1_Write(1);
 249              		.loc 1 115 0
 250 001a 0120     		movs	r0, #1
 251 001c FFF7FEFF 		bl	Pin_IN1_Write
 252              	.LVL36:
 116:main.c        ****         Pin_IN2_Write(0);
 253              		.loc 1 116 0
 254 0020 0020     		movs	r0, #0
 255 0022 FFF7FEFF 		bl	Pin_IN2_Write
 256              	.LVL37:
 117:main.c        ****         PWM_Motor_WriteCompare((uint16)velocidad);
 257              		.loc 1 117 0
 258 0026 A0B2     		uxth	r0, r4
 259 0028 FFF7FEFF 		bl	PWM_Motor_WriteCompare
 260              	.LVL38:
 261 002c 10BD     		pop	{r4, pc}
 262              	.LVL39:
 263              	.L20:
 118:main.c        ****     }
 119:main.c        ****     else if (velocidad < 0) {
 264              		.loc 1 119 0
 265 002e 002C     		cmp	r4, #0
 266 0030 0ADA     		bge	.L22
 120:main.c        ****         // Motor ATRÁS
 121:main.c        ****         Pin_IN1_Write(0);
 267              		.loc 1 121 0
 268 0032 0020     		movs	r0, #0
 269 0034 FFF7FEFF 		bl	Pin_IN1_Write
ARM GAS  C:\Users\user\AppData\Local\Temp\cc10KRYZ.s 			page 8


 270              	.LVL40:
 122:main.c        ****         Pin_IN2_Write(1);
 271              		.loc 1 122 0
 272 0038 0120     		movs	r0, #1
 273 003a FFF7FEFF 		bl	Pin_IN2_Write
 274              	.LVL41:
 123:main.c        ****         PWM_Motor_WriteCompare((uint16)(-velocidad));
 275              		.loc 1 123 0
 276 003e 6042     		negs	r0, r4
 277 0040 80B2     		uxth	r0, r0
 278 0042 FFF7FEFF 		bl	PWM_Motor_WriteCompare
 279              	.LVL42:
 280 0046 10BD     		pop	{r4, pc}
 281              	.LVL43:
 282              	.L22:
 124:main.c        ****     }
 125:main.c        ****     else {
 126:main.c        ****         // DETENER (freno activo - cortocircuito)
 127:main.c        ****         Pin_IN1_Write(0);
 283              		.loc 1 127 0
 284 0048 0020     		movs	r0, #0
 285 004a FFF7FEFF 		bl	Pin_IN1_Write
 286              	.LVL44:
 128:main.c        ****         Pin_IN2_Write(0);
 287              		.loc 1 128 0
 288 004e 0020     		movs	r0, #0
 289 0050 FFF7FEFF 		bl	Pin_IN2_Write
 290              	.LVL45:
 129:main.c        ****         PWM_Motor_WriteCompare(0);
 291              		.loc 1 129 0
 292 0054 0020     		movs	r0, #0
 293 0056 FFF7FEFF 		bl	PWM_Motor_WriteCompare
 294              	.LVL46:
 295 005a 10BD     		pop	{r4, pc}
 296              	.LVL47:
 297              	.L27:
 298              		.align	2
 299              	.L26:
 300 005c 10FBFFFF 		.word	-1264
 301              		.cfi_endproc
 302              	.LFE67:
 303              		.size	Motor_Control, .-Motor_Control
 304              		.section	.text.Motor_Control_Percent,"ax",%progbits
 305              		.align	2
 306              		.global	Motor_Control_Percent
 307              		.thumb
 308              		.thumb_func
 309              		.type	Motor_Control_Percent, %function
 310              	Motor_Control_Percent:
 311              	.LFB68:
 130:main.c        ****     }
 131:main.c        **** }
 132:main.c        **** 
 133:main.c        **** /**
 134:main.c        ****  * @brief Controla el motor con porcentaje
 135:main.c        ****  * @param percent: -100 (máx. atrás) a +100 (máx. adelante)
 136:main.c        ****  */
ARM GAS  C:\Users\user\AppData\Local\Temp\cc10KRYZ.s 			page 9


 137:main.c        **** void Motor_Control_Percent(int8 percent) {
 312              		.loc 1 137 0
 313              		.cfi_startproc
 314              		@ args = 0, pretend = 0, frame = 0
 315              		@ frame_needed = 0, uses_anonymous_args = 0
 316              	.LVL48:
 317 0000 10B5     		push	{r4, lr}
 318              		.cfi_def_cfa_offset 8
 319              		.cfi_offset 4, -8
 320              		.cfi_offset 14, -4
 138:main.c        ****     
 139:main.c        ****     int16 pwm_value;
 140:main.c        ****     
 141:main.c        ****     // Saturación
 142:main.c        ****     if (percent > 100) percent = 100;
 321              		.loc 1 142 0
 322 0002 6428     		cmp	r0, #100
 323 0004 00DD     		ble	.L29
 324 0006 6420     		movs	r0, #100
 325              	.LVL49:
 326              	.L29:
 143:main.c        ****     if (percent < -100) percent = -100;
 327              		.loc 1 143 0
 328 0008 10F1640F 		cmn	r0, #100
 329 000c 01DA     		bge	.L30
 330 000e 6FF06300 		mvn	r0, #99
 331              	.LVL50:
 332              	.L30:
 144:main.c        ****     
 145:main.c        ****     // Convertir porcentaje a valor PWM
 146:main.c        ****     pwm_value = (abs(percent) * PWM_PERIOD) / 100;
 333              		.loc 1 146 0
 334 0012 80EAE072 		eor	r2, r0, r0, asr #31
 335 0016 A2EBE072 		sub	r2, r2, r0, asr #31
 336 001a 4FF49E63 		mov	r3, #1264
 337 001e 03FB02F3 		mul	r3, r3, r2
 338 0022 144C     		ldr	r4, .L37
 339 0024 84FB0324 		smull	r2, r4, r4, r3
 340 0028 DB17     		asrs	r3, r3, #31
 341 002a C3EB6414 		rsb	r4, r3, r4, asr #5
 342              	.LVL51:
 147:main.c        ****     
 148:main.c        ****     if (percent > 0) {
 343              		.loc 1 148 0
 344 002e 0028     		cmp	r0, #0
 345 0030 09DD     		ble	.L31
 149:main.c        ****         // Adelante
 150:main.c        ****         Pin_IN1_Write(1);
 346              		.loc 1 150 0
 347 0032 0120     		movs	r0, #1
 348              	.LVL52:
 349 0034 FFF7FEFF 		bl	Pin_IN1_Write
 350              	.LVL53:
 151:main.c        ****         Pin_IN2_Write(0);
 351              		.loc 1 151 0
 352 0038 0020     		movs	r0, #0
 353 003a FFF7FEFF 		bl	Pin_IN2_Write
ARM GAS  C:\Users\user\AppData\Local\Temp\cc10KRYZ.s 			page 10


 354              	.LVL54:
 152:main.c        ****         PWM_Motor_WriteCompare((uint16)pwm_value);
 355              		.loc 1 152 0
 356 003e A0B2     		uxth	r0, r4
 357 0040 FFF7FEFF 		bl	PWM_Motor_WriteCompare
 358              	.LVL55:
 359 0044 10BD     		pop	{r4, pc}
 360              	.LVL56:
 361              	.L31:
 153:main.c        ****     }
 154:main.c        ****     else if (percent < 0) {
 362              		.loc 1 154 0
 363 0046 0028     		cmp	r0, #0
 364 0048 09DA     		bge	.L33
 155:main.c        ****         // Atrás
 156:main.c        ****         Pin_IN1_Write(0);
 365              		.loc 1 156 0
 366 004a 0020     		movs	r0, #0
 367              	.LVL57:
 368 004c FFF7FEFF 		bl	Pin_IN1_Write
 369              	.LVL58:
 157:main.c        ****         Pin_IN2_Write(1);
 370              		.loc 1 157 0
 371 0050 0120     		movs	r0, #1
 372 0052 FFF7FEFF 		bl	Pin_IN2_Write
 373              	.LVL59:
 158:main.c        ****         PWM_Motor_WriteCompare((uint16)pwm_value);
 374              		.loc 1 158 0
 375 0056 A0B2     		uxth	r0, r4
 376 0058 FFF7FEFF 		bl	PWM_Motor_WriteCompare
 377              	.LVL60:
 378 005c 10BD     		pop	{r4, pc}
 379              	.LVL61:
 380              	.L33:
 159:main.c        ****     }
 160:main.c        ****     else {
 161:main.c        ****         // Detener
 162:main.c        ****         Pin_IN1_Write(0);
 381              		.loc 1 162 0
 382 005e 0020     		movs	r0, #0
 383              	.LVL62:
 384 0060 FFF7FEFF 		bl	Pin_IN1_Write
 385              	.LVL63:
 163:main.c        ****         Pin_IN2_Write(0);
 386              		.loc 1 163 0
 387 0064 0020     		movs	r0, #0
 388 0066 FFF7FEFF 		bl	Pin_IN2_Write
 389              	.LVL64:
 164:main.c        ****         PWM_Motor_WriteCompare(0);
 390              		.loc 1 164 0
 391 006a 0020     		movs	r0, #0
 392 006c FFF7FEFF 		bl	PWM_Motor_WriteCompare
 393              	.LVL65:
 394 0070 10BD     		pop	{r4, pc}
 395              	.LVL66:
 396              	.L38:
 397 0072 00BF     		.align	2
ARM GAS  C:\Users\user\AppData\Local\Temp\cc10KRYZ.s 			page 11


 398              	.L37:
 399 0074 1F85EB51 		.word	1374389535
 400              		.cfi_endproc
 401              	.LFE68:
 402              		.size	Motor_Control_Percent, .-Motor_Control_Percent
 403              		.section	.text.Motor_Brake,"ax",%progbits
 404              		.align	2
 405              		.global	Motor_Brake
 406              		.thumb
 407              		.thumb_func
 408              		.type	Motor_Brake, %function
 409              	Motor_Brake:
 410              	.LFB69:
 165:main.c        ****     }
 166:main.c        **** }
 167:main.c        **** 
 168:main.c        **** /**
 169:main.c        ****  * @brief Frena el motor activamente (cortocircuito)
 170:main.c        ****  */
 171:main.c        **** void Motor_Brake(void) {
 411              		.loc 1 171 0
 412              		.cfi_startproc
 413              		@ args = 0, pretend = 0, frame = 0
 414              		@ frame_needed = 0, uses_anonymous_args = 0
 415 0000 08B5     		push	{r3, lr}
 416              		.cfi_def_cfa_offset 8
 417              		.cfi_offset 3, -8
 418              		.cfi_offset 14, -4
 172:main.c        ****     Pin_IN1_Write(0);
 419              		.loc 1 172 0
 420 0002 0020     		movs	r0, #0
 421 0004 FFF7FEFF 		bl	Pin_IN1_Write
 422              	.LVL67:
 173:main.c        ****     Pin_IN2_Write(0);
 423              		.loc 1 173 0
 424 0008 0020     		movs	r0, #0
 425 000a FFF7FEFF 		bl	Pin_IN2_Write
 426              	.LVL68:
 174:main.c        ****     PWM_Motor_WriteCompare(PWM_PERIOD);  // PWM al 100%
 427              		.loc 1 174 0
 428 000e 4FF49E60 		mov	r0, #1264
 429 0012 FFF7FEFF 		bl	PWM_Motor_WriteCompare
 430              	.LVL69:
 431 0016 08BD     		pop	{r3, pc}
 432              		.cfi_endproc
 433              	.LFE69:
 434              		.size	Motor_Brake, .-Motor_Brake
 435              		.section	.text.Motor_Free,"ax",%progbits
 436              		.align	2
 437              		.global	Motor_Free
 438              		.thumb
 439              		.thumb_func
 440              		.type	Motor_Free, %function
 441              	Motor_Free:
 442              	.LFB70:
 175:main.c        **** }
 176:main.c        **** 
ARM GAS  C:\Users\user\AppData\Local\Temp\cc10KRYZ.s 			page 12


 177:main.c        **** /**
 178:main.c        ****  * @brief Deja el motor libre (sin freno)
 179:main.c        ****  */
 180:main.c        **** void Motor_Free(void) {
 443              		.loc 1 180 0
 444              		.cfi_startproc
 445              		@ args = 0, pretend = 0, frame = 0
 446              		@ frame_needed = 0, uses_anonymous_args = 0
 447 0000 08B5     		push	{r3, lr}
 448              		.cfi_def_cfa_offset 8
 449              		.cfi_offset 3, -8
 450              		.cfi_offset 14, -4
 181:main.c        ****     Pin_IN1_Write(0);
 451              		.loc 1 181 0
 452 0002 0020     		movs	r0, #0
 453 0004 FFF7FEFF 		bl	Pin_IN1_Write
 454              	.LVL70:
 182:main.c        ****     Pin_IN2_Write(0);
 455              		.loc 1 182 0
 456 0008 0020     		movs	r0, #0
 457 000a FFF7FEFF 		bl	Pin_IN2_Write
 458              	.LVL71:
 183:main.c        ****     PWM_Motor_WriteCompare(0);  // PWM apagado
 459              		.loc 1 183 0
 460 000e 0020     		movs	r0, #0
 461 0010 FFF7FEFF 		bl	PWM_Motor_WriteCompare
 462              	.LVL72:
 463 0014 08BD     		pop	{r3, pc}
 464              		.cfi_endproc
 465              	.LFE70:
 466              		.size	Motor_Free, .-Motor_Free
 467              		.global	__aeabi_d2f
 468 0016 00BF     		.section	.text.main,"ax",%progbits
 469              		.align	2
 470              		.global	main
 471              		.thumb
 472              		.thumb_func
 473              		.type	main, %function
 474              	main:
 475              	.LFB71:
 184:main.c        **** }
 185:main.c        **** 
 186:main.c        **** /*******************************************************************************
 187:main.c        **** * FUNCIÓN PRINCIPAL
 188:main.c        **** *******************************************************************************/
 189:main.c        **** 
 190:main.c        **** int main(void)
 191:main.c        **** {
 476              		.loc 1 191 0
 477              		.cfi_startproc
 478              		@ args = 0, pretend = 0, frame = 72
 479              		@ frame_needed = 0, uses_anonymous_args = 0
 480 0000 2DE9F047 		push	{r4, r5, r6, r7, r8, r9, r10, lr}
 481              		.cfi_def_cfa_offset 32
 482              		.cfi_offset 4, -32
 483              		.cfi_offset 5, -28
 484              		.cfi_offset 6, -24
ARM GAS  C:\Users\user\AppData\Local\Temp\cc10KRYZ.s 			page 13


 485              		.cfi_offset 7, -20
 486              		.cfi_offset 8, -16
 487              		.cfi_offset 9, -12
 488              		.cfi_offset 10, -8
 489              		.cfi_offset 14, -4
 490 0004 96B0     		sub	sp, sp, #88
 491              		.cfi_def_cfa_offset 120
 492              	.LVL73:
 192:main.c        ****     char  rx_buf[8];
 193:main.c        ****     uint8 rx_idx    = 0u;
 194:main.c        ****     uint8 rx_char;
 195:main.c        ****     float current_v  = 0.0f;
 196:main.c        ****     int16 current_pwm = 0;
 197:main.c        ****     char  tx_buf[64];
 198:main.c        ****     uint16 print_cnt = 0u;
 199:main.c        **** 
 200:main.c        ****     CyGlobalIntEnable;
 493              		.loc 1 200 0
 494              		.syntax unified
 495              	@ 200 "main.c" 1
 496 0006 62B6     		CPSIE   i
 497              	@ 0 "" 2
 201:main.c        **** 
 202:main.c        ****     // Inicializar componentes
 203:main.c        ****     PWM_Motor_Start();
 498              		.loc 1 203 0
 499              		.thumb
 500              		.syntax unified
 501 0008 FFF7FEFF 		bl	PWM_Motor_Start
 502              	.LVL74:
 204:main.c        ****     QuadDec_1_Start();
 503              		.loc 1 204 0
 504 000c FFF7FEFF 		bl	QuadDec_1_Start
 505              	.LVL75:
 205:main.c        ****     UART_1_Start();
 506              		.loc 1 205 0
 507 0010 FFF7FEFF 		bl	UART_1_Start
 508              	.LVL76:
 206:main.c        **** 
 207:main.c        ****     // Timer_1 para medición de velocidad (ISR cada 10 ms)
 208:main.c        ****     Timer_1_Start();
 509              		.loc 1 208 0
 510 0014 FFF7FEFF 		bl	Timer_1_Start
 511              	.LVL77:
 209:main.c        ****     isr_1_StartEx(Motor_Speed_ISR);
 512              		.loc 1 209 0
 513 0018 3748     		ldr	r0, .L50
 514 001a FFF7FEFF 		bl	isr_1_StartEx
 515              	.LVL78:
 210:main.c        **** 
 211:main.c        ****     UART_1_PutString("=== Motor Control ===\r\n");
 516              		.loc 1 211 0
 517 001e 3748     		ldr	r0, .L50+4
 518 0020 FFF7FEFF 		bl	UART_1_PutString
 519              	.LVL79:
 212:main.c        ****     UART_1_PutString("Ingrese Voltaje (ej: 7.5) + Enter\r\n");
 520              		.loc 1 212 0
ARM GAS  C:\Users\user\AppData\Local\Temp\cc10KRYZ.s 			page 14


 521 0024 3648     		ldr	r0, .L50+8
 522 0026 FFF7FEFF 		bl	UART_1_PutString
 523              	.LVL80:
 213:main.c        ****     UART_1_PutString("V_in  | PWM   | RPM_med | RPM_est\r\n");
 524              		.loc 1 213 0
 525 002a 3648     		ldr	r0, .L50+12
 526 002c FFF7FEFF 		bl	UART_1_PutString
 527              	.LVL81:
 214:main.c        ****     UART_1_PutString("------+-------+---------+--------\r\n");
 528              		.loc 1 214 0
 529 0030 3548     		ldr	r0, .L50+16
 530 0032 FFF7FEFF 		bl	UART_1_PutString
 531              	.LVL82:
 198:main.c        **** 
 532              		.loc 1 198 0
 533 0036 0024     		movs	r4, #0
 196:main.c        ****     char  tx_buf[64];
 534              		.loc 1 196 0
 535 0038 A046     		mov	r8, r4
 195:main.c        ****     int16 current_pwm = 0;
 536              		.loc 1 195 0
 537 003a 0027     		movs	r7, #0
 193:main.c        ****     uint8 rx_char;
 538              		.loc 1 193 0
 539 003c 2646     		mov	r6, r4
 540              	.LVL83:
 541              	.L48:
 215:main.c        **** 
 216:main.c        ****     for(;;)
 217:main.c        ****     {
 218:main.c        ****         /*----------------------------------------------------------------------
 219:main.c        ****         * Recepción de PWM por UART
 220:main.c        ****         * Escribir el número en PuTTY y presionar Enter para aplicarlo.
 221:main.c        ****         * Soporta negativos (ej: -1200 + Enter)
 222:main.c        ****         *---------------------------------------------------------------------*/
 223:main.c        ****         rx_char = UART_1_GetChar();
 542              		.loc 1 223 0
 543 003e FFF7FEFF 		bl	UART_1_GetChar
 544              	.LVL84:
 224:main.c        ****         if (rx_char != 0u)
 545              		.loc 1 224 0
 546 0042 0546     		mov	r5, r0
 547 0044 10B3     		cbz	r0, .L44
 225:main.c        ****         {
 226:main.c        ****             if (rx_char == '\r' || rx_char == '\n')
 548              		.loc 1 226 0
 549 0046 0D28     		cmp	r0, #13
 550 0048 01D0     		beq	.L45
 551              		.loc 1 226 0 is_stmt 0 discriminator 1
 552 004a 0A28     		cmp	r0, #10
 553 004c 14D1     		bne	.L46
 554              	.L45:
 227:main.c        ****             {
 228:main.c        ****                 if (rx_idx > 0u)
 555              		.loc 1 228 0 is_stmt 1
 556 004e EEB1     		cbz	r6, .L44
 229:main.c        ****                 {
ARM GAS  C:\Users\user\AppData\Local\Temp\cc10KRYZ.s 			page 15


 230:main.c        ****                     rx_buf[rx_idx] = '\0';
 557              		.loc 1 230 0
 558 0050 16AB     		add	r3, sp, #88
 559 0052 3344     		add	r3, r3, r6
 560 0054 0026     		movs	r6, #0
 561              	.LVL85:
 562 0056 03F8086C 		strb	r6, [r3, #-8]
 231:main.c        ****                     current_v   = (float)atof(rx_buf);
 563              		.loc 1 231 0
 564 005a 14A8     		add	r0, sp, #80
 565              	.LVL86:
 566 005c FFF7FEFF 		bl	atof
 567              	.LVL87:
 568 0060 FFF7FEFF 		bl	__aeabi_d2f
 569              	.LVL88:
 570 0064 0746     		mov	r7, r0
 571              	.LVL89:
 232:main.c        ****                     current_pwm = PWM_Desde_Voltaje(current_v);
 572              		.loc 1 232 0
 573 0066 FFF7FEFF 		bl	PWM_Desde_Voltaje
 574              	.LVL90:
 575 006a 8046     		mov	r8, r0
 576              	.LVL91:
 233:main.c        ****                     Motor_Control(current_pwm);
 577              		.loc 1 233 0
 578 006c FFF7FEFF 		bl	Motor_Control
 579              	.LVL92:
 234:main.c        ****                     rx_idx = 0u;
 235:main.c        ****                     UART_1_PutString("\r\n");
 580              		.loc 1 235 0
 581 0070 2648     		ldr	r0, .L50+20
 582 0072 FFF7FEFF 		bl	UART_1_PutString
 583              	.LVL93:
 584 0076 09E0     		b	.L44
 585              	.LVL94:
 586              	.L46:
 236:main.c        ****                 }
 237:main.c        ****             }
 238:main.c        ****             else if (rx_idx < (sizeof(rx_buf) - 1u))
 587              		.loc 1 238 0
 588 0078 062E     		cmp	r6, #6
 589 007a 07D8     		bhi	.L44
 239:main.c        ****             {
 240:main.c        ****                 UART_1_PutChar(rx_char);    // eco: ver lo que se escribe
 590              		.loc 1 240 0
 591 007c FFF7FEFF 		bl	UART_1_PutChar
 592              	.LVL95:
 241:main.c        ****                 rx_buf[rx_idx++] = (char)rx_char;
 593              		.loc 1 241 0
 594 0080 731C     		adds	r3, r6, #1
 595              	.LVL96:
 596 0082 16AA     		add	r2, sp, #88
 597 0084 1644     		add	r6, r6, r2
 598 0086 06F8085C 		strb	r5, [r6, #-8]
 599 008a DEB2     		uxtb	r6, r3
 600              	.LVL97:
 601              	.L44:
ARM GAS  C:\Users\user\AppData\Local\Temp\cc10KRYZ.s 			page 16


 242:main.c        ****             }
 243:main.c        ****         }
 244:main.c        **** 
 245:main.c        ****         /*----------------------------------------------------------------------
 246:main.c        ****         * Imprimir PWM y velocidad cada 500 ms
 247:main.c        ****         *---------------------------------------------------------------------*/
 248:main.c        ****         print_cnt++;
 602              		.loc 1 248 0
 603 008c 0134     		adds	r4, r4, #1
 604              	.LVL98:
 605 008e A4B2     		uxth	r4, r4
 606              	.LVL99:
 249:main.c        ****         if (print_cnt >= 50u)
 607              		.loc 1 249 0
 608 0090 312C     		cmp	r4, #49
 609 0092 2CD9     		bls	.L47
 610              	.LVL100:
 250:main.c        ****         {
 251:main.c        ****             print_cnt = 0u;
 252:main.c        ****             sprintf(tx_buf, "V:%2d.%1d | PWM:%5d | MED:%5d | EST:%5d\r\n",
 253:main.c        ****                     (int)current_v,
 254:main.c        ****                     (int)((current_v - (float)(int)current_v) * 10.0f),
 611              		.loc 1 254 0
 612 0094 3846     		mov	r0, r7
 613 0096 FFF7FEFF 		bl	__aeabi_f2iz
 614              	.LVL101:
 615 009a 0446     		mov	r4, r0
 616 009c FFF7FEFF 		bl	__aeabi_i2f
 617              	.LVL102:
 618 00a0 0146     		mov	r1, r0
 619 00a2 3846     		mov	r0, r7
 620 00a4 FFF7FEFF 		bl	__aeabi_fsub
 621              	.LVL103:
 622 00a8 1949     		ldr	r1, .L50+24
 623 00aa FFF7FEFF 		bl	__aeabi_fmul
 624              	.LVL104:
 625 00ae 0546     		mov	r5, r0
 252:main.c        ****                     (int)current_v,
 626              		.loc 1 252 0
 627 00b0 184B     		ldr	r3, .L50+28
 628 00b2 D3F80490 		ldr	r9, [r3, #4]	@ float
 255:main.c        ****                     (int)current_pwm,
 256:main.c        ****                     (int)motor_speed_rpm,
 257:main.c        ****                     (int)RPM_Estimado(current_pwm));
 629              		.loc 1 257 0
 630 00b6 4046     		mov	r0, r8
 631 00b8 FFF7FEFF 		bl	RPM_Estimado
 632              	.LVL105:
 633 00bc 8246     		mov	r10, r0
 252:main.c        ****                     (int)current_v,
 634              		.loc 1 252 0
 635 00be 2846     		mov	r0, r5
 636 00c0 FFF7FEFF 		bl	__aeabi_f2iz
 637              	.LVL106:
 638 00c4 0546     		mov	r5, r0
 639 00c6 5046     		mov	r0, r10
 640 00c8 FFF7FEFF 		bl	__aeabi_f2iz
ARM GAS  C:\Users\user\AppData\Local\Temp\cc10KRYZ.s 			page 17


 641              	.LVL107:
 642 00cc 0290     		str	r0, [sp, #8]
 643 00ce 4846     		mov	r0, r9
 644 00d0 FFF7FEFF 		bl	__aeabi_f2iz
 645              	.LVL108:
 646 00d4 0190     		str	r0, [sp, #4]
 647 00d6 CDF80080 		str	r8, [sp]
 648 00da 2B46     		mov	r3, r5
 649 00dc 2246     		mov	r2, r4
 650 00de 0E49     		ldr	r1, .L50+32
 651 00e0 04A8     		add	r0, sp, #16
 652 00e2 FFF7FEFF 		bl	sprintf
 653              	.LVL109:
 258:main.c        ****             UART_1_PutString(tx_buf);
 654              		.loc 1 258 0
 655 00e6 04A8     		add	r0, sp, #16
 656 00e8 FFF7FEFF 		bl	UART_1_PutString
 657              	.LVL110:
 251:main.c        ****             sprintf(tx_buf, "V:%2d.%1d | PWM:%5d | MED:%5d | EST:%5d\r\n",
 658              		.loc 1 251 0
 659 00ec 0024     		movs	r4, #0
 660              	.LVL111:
 661              	.L47:
 259:main.c        ****         }
 260:main.c        **** 
 261:main.c        ****         CyDelay(10);    // 10 ms por iteración → 50 iter = 500 ms
 662              		.loc 1 261 0
 663 00ee 0A20     		movs	r0, #10
 664 00f0 FFF7FEFF 		bl	CyDelay
 665              	.LVL112:
 262:main.c        ****     }
 666              		.loc 1 262 0
 667 00f4 A3E7     		b	.L48
 668              	.L51:
 669 00f6 00BF     		.align	2
 670              	.L50:
 671 00f8 00000000 		.word	Motor_Speed_ISR
 672 00fc 00000000 		.word	.LC0
 673 0100 18000000 		.word	.LC1
 674 0104 3C000000 		.word	.LC2
 675 0108 60000000 		.word	.LC3
 676 010c 84000000 		.word	.LC4
 677 0110 00002041 		.word	1092616192
 678 0114 00000000 		.word	.LANCHOR0
 679 0118 88000000 		.word	.LC5
 680              		.cfi_endproc
 681              	.LFE71:
 682              		.size	main, .-main
 683              		.global	motor_speed_rpm
 684              		.global	encoder_prev_count
 685              		.section	.rodata.str1.4,"aMS",%progbits,1
 686              		.align	2
 687              	.LC0:
 688 0000 3D3D3D20 		.ascii	"=== Motor Control ===\015\012\000"
 688      4D6F746F 
 688      7220436F 
 688      6E74726F 
ARM GAS  C:\Users\user\AppData\Local\Temp\cc10KRYZ.s 			page 18


 688      6C203D3D 
 689              	.LC1:
 690 0018 496E6772 		.ascii	"Ingrese Voltaje (ej: 7.5) + Enter\015\012\000"
 690      65736520 
 690      566F6C74 
 690      616A6520 
 690      28656A3A 
 691              	.LC2:
 692 003c 565F696E 		.ascii	"V_in  | PWM   | RPM_med | RPM_est\015\012\000"
 692      20207C20 
 692      50574D20 
 692      20207C20 
 692      52504D5F 
 693              	.LC3:
 694 0060 2D2D2D2D 		.ascii	"------+-------+---------+--------\015\012\000"
 694      2D2D2B2D 
 694      2D2D2D2D 
 694      2D2D2B2D 
 694      2D2D2D2D 
 695              	.LC4:
 696 0084 0D0A00   		.ascii	"\015\012\000"
 697 0087 00       		.space	1
 698              	.LC5:
 699 0088 563A2532 		.ascii	"V:%2d.%1d | PWM:%5d | MED:%5d | EST:%5d\015\012\000"
 699      642E2531 
 699      64207C20 
 699      50574D3A 
 699      25356420 
 700              		.bss
 701              		.align	2
 702              		.set	.LANCHOR0,. + 0
 703              		.type	encoder_prev_count, %object
 704              		.size	encoder_prev_count, 4
 705              	encoder_prev_count:
 706 0000 00000000 		.space	4
 707              		.type	motor_speed_rpm, %object
 708              		.size	motor_speed_rpm, 4
 709              	motor_speed_rpm:
 710 0004 00000000 		.space	4
 711              		.text
 712              	.Letext0:
 713              		.file 2 "d:\\psoc\\psoc creator\\4.4\\psoc creator\\import\\gnu\\arm\\5.4.1\\arm-none-eabi\\includ
 714              		.file 3 "d:\\psoc\\psoc creator\\4.4\\psoc creator\\import\\gnu\\arm\\5.4.1\\arm-none-eabi\\includ
 715              		.file 4 "Generated_Source\\PSoC5/cytypes.h"
 716              		.file 5 "Generated_Source\\PSoC5/core_cm3.h"
 717              		.file 6 "Generated_Source\\PSoC5/QuadDec_1.h"
 718              		.file 7 "Generated_Source\\PSoC5/Timer_1.h"
 719              		.file 8 "Generated_Source\\PSoC5/Pin_IN1.h"
 720              		.file 9 "Generated_Source\\PSoC5/Pin_IN2.h"
 721              		.file 10 "Generated_Source\\PSoC5/PWM_Motor.h"
 722              		.file 11 "Generated_Source\\PSoC5/UART_1.h"
 723              		.file 12 "Generated_Source\\PSoC5/isr_1.h"
 724              		.file 13 "d:\\psoc\\psoc creator\\4.4\\psoc creator\\import\\gnu\\arm\\5.4.1\\arm-none-eabi\\inclu
 725              		.file 14 "d:\\psoc\\psoc creator\\4.4\\psoc creator\\import\\gnu\\arm\\5.4.1\\arm-none-eabi\\inclu
 726              		.file 15 "Generated_Source\\PSoC5/CyLib.h"