ARM GAS  C:\Users\user\AppData\Local\Temp\cctiVylh.s 			page 1


   1              		.syntax unified
   2              		.cpu cortex-m3
   3              		.fpu softvfp
   4              		.eabi_attribute 20, 1
   5              		.eabi_attribute 21, 1
   6              		.eabi_attribute 23, 3
   7              		.eabi_attribute 24, 1
   8              		.eabi_attribute 25, 1
   9              		.eabi_attribute 26, 1
  10              		.eabi_attribute 30, 1
  11              		.eabi_attribute 34, 1
  12              		.eabi_attribute 18, 4
  13              		.thumb
  14              		.syntax unified
  15              		.file	"main.c"
  16              		.text
  17              	.Ltext0:
  18              		.cfi_sections	.debug_frame
  19              		.global	__aeabi_i2f
  20              		.global	__aeabi_fmul
  21              		.global	__aeabi_fdiv
  22              		.section	.text.Motor_Speed_ISR,"ax",%progbits
  23              		.align	2
  24              		.global	Motor_Speed_ISR
  25              		.thumb
  26              		.thumb_func
  27              		.type	Motor_Speed_ISR, %function
  28              	Motor_Speed_ISR:
  29              	.LFB64:
  30              		.file 1 "main.c"
   1:main.c        **** #include "project.h"
   2:main.c        **** #include <stdlib.h>
   3:main.c        **** #include <stdio.h>
   4:main.c        **** #include <math.h>
   5:main.c        **** 
   6:main.c        **** /*******************************************************************************
   7:main.c        **** * DEFINICIONES
   8:main.c        **** *******************************************************************************/
   9:main.c        **** 
  10:main.c        **** // Configuración del PWM
  11:main.c        **** #define PWM_PERIOD          1264
  12:main.c        **** 
  13:main.c        **** // Límites de velocidad
  14:main.c        **** #define MOTOR_MAX           PWM_PERIOD
  15:main.c        **** #define MOTOR_MIN           -PWM_PERIOD
  16:main.c        **** 
  17:main.c        **** // Encoder del motor: cuentas por revolución mecánica
  18:main.c        **** // QuadDec usa modo x4 → si el encoder tiene N PPR, CPR = 4*N
  19:main.c        **** // Ajustar según el encoder físico utilizado
  20:main.c        **** #define ENCODER_CPR         1040u
  21:main.c        **** 
  22:main.c        **** // Tiempo de muestreo en segundos.
  23:main.c        **** // clk_Timer = 24 MHz, period = 240000 cuentas
  24:main.c        **** //   T = 240000 / 24000000 = 0.01 s  (10 ms)
  25:main.c        **** #define SAMPLE_TIME_S       0.01f
  26:main.c        **** 
  27:main.c        **** /*******************************************************************************
ARM GAS  C:\Users\user\AppData\Local\Temp\cctiVylh.s 			page 2


  28:main.c        **** * VARIABLES GLOBALES — VELOCIDAD DEL MOTOR
  29:main.c        **** *******************************************************************************/
  30:main.c        **** 
  31:main.c        **** volatile int32 encoder_prev_count = 0;
  32:main.c        **** volatile float motor_speed_rpm    = 0.0f;   // Positivo = adelante, negativo = atrás
  33:main.c        **** 
  34:main.c        **** /*******************************************************************************
  35:main.c        **** * ISR DEL TIMER_1 — Cálculo periódico de velocidad del motor
  36:main.c        **** *
  37:main.c        **** * Se ejecuta cada SAMPLE_TIME_S segundos al llegar el Timer_1 a terminal count.
  38:main.c        **** * Fórmula: RPM = (delta_cuentas * 60) / (ENCODER_CPR * SAMPLE_TIME_S)
  39:main.c        **** *******************************************************************************/
  40:main.c        **** 
  41:main.c        **** CY_ISR(Motor_Speed_ISR)
  42:main.c        **** {
  31              		.loc 1 42 0
  32              		.cfi_startproc
  33              		@ args = 0, pretend = 0, frame = 0
  34              		@ frame_needed = 0, uses_anonymous_args = 0
  35 0000 10B5     		push	{r4, lr}
  36              		.cfi_def_cfa_offset 8
  37              		.cfi_offset 4, -8
  38              		.cfi_offset 14, -4
  43:main.c        ****     int32 current_count;
  44:main.c        ****     int32 delta_counts;
  45:main.c        **** 
  46:main.c        ****     // Leer posición actual del encoder
  47:main.c        ****     current_count = QuadDec_1_GetCounter();
  39              		.loc 1 47 0
  40 0002 FFF7FEFF 		bl	QuadDec_1_GetCounter
  41              	.LVL0:
  48:main.c        **** 
  49:main.c        ****     // Delta con signo (positivo = adelante, negativo = atrás)
  50:main.c        ****     delta_counts = current_count - encoder_prev_count;
  42              		.loc 1 50 0
  43 0006 084C     		ldr	r4, .L3
  44 0008 2368     		ldr	r3, [r4]
  45              	.LVL1:
  51:main.c        ****     encoder_prev_count = current_count;
  46              		.loc 1 51 0
  47 000a 2060     		str	r0, [r4]
  52:main.c        **** 
  53:main.c        ****     // Calcular RPM
  54:main.c        ****     motor_speed_rpm = ((float)delta_counts * 60.0f) /
  48              		.loc 1 54 0
  49 000c C01A     		subs	r0, r0, r3
  50              	.LVL2:
  51 000e FFF7FEFF 		bl	__aeabi_i2f
  52              	.LVL3:
  53 0012 0649     		ldr	r1, .L3+4
  54 0014 FFF7FEFF 		bl	__aeabi_fmul
  55              	.LVL4:
  56 0018 0549     		ldr	r1, .L3+8
  57 001a FFF7FEFF 		bl	__aeabi_fdiv
  58              	.LVL5:
  59 001e 6060     		str	r0, [r4, #4]	@ float
  55:main.c        ****                       ((float)ENCODER_CPR * SAMPLE_TIME_S);
ARM GAS  C:\Users\user\AppData\Local\Temp\cctiVylh.s 			page 3


  56:main.c        **** 
  57:main.c        ****     // Limpiar flag de interrupción del Timer_1
  58:main.c        ****     Timer_1_ReadStatusRegister();
  60              		.loc 1 58 0
  61 0020 FFF7FEFF 		bl	Timer_1_ReadStatusRegister
  62              	.LVL6:
  63 0024 10BD     		pop	{r4, pc}
  64              	.L4:
  65 0026 00BF     		.align	2
  66              	.L3:
  67 0028 00000000 		.word	.LANCHOR0
  68 002c 00007042 		.word	1114636288
  69 0030 66662641 		.word	1093035622
  70              		.cfi_endproc
  71              	.LFE64:
  72              		.size	Motor_Speed_ISR, .-Motor_Speed_ISR
  73              		.section	.text.Motor_Control,"ax",%progbits
  74              		.align	2
  75              		.global	Motor_Control
  76              		.thumb
  77              		.thumb_func
  78              		.type	Motor_Control, %function
  79              	Motor_Control:
  80              	.LFB65:
  59:main.c        **** }
  60:main.c        **** 
  61:main.c        **** /*******************************************************************************
  62:main.c        **** * FUNCIONES DE CONTROL DEL MOTOR
  63:main.c        **** *******************************************************************************/
  64:main.c        **** 
  65:main.c        **** /**
  66:main.c        ****  * @brief Controla el motor DC con el L298N
  67:main.c        ****  * @param velocidad: -2524 (máx. atrás) a +2524 (máx. adelante)
  68:main.c        ****  * 
  69:main.c        ****  * Pines utilizados:
  70:main.c        ****  *   - Pin_ENA (P2[7]): PWM para velocidad
  71:main.c        ****  *   - Pin_IN1 (P2[6]): Control de dirección 1
  72:main.c        ****  *   - Pin_IN2 (P2[5]): Control de dirección 2
  73:main.c        ****  */
  74:main.c        **** void Motor_Control(int16 velocidad) {
  81              		.loc 1 74 0
  82              		.cfi_startproc
  83              		@ args = 0, pretend = 0, frame = 0
  84              		@ frame_needed = 0, uses_anonymous_args = 0
  85              	.LVL7:
  86 0000 10B5     		push	{r4, lr}
  87              		.cfi_def_cfa_offset 8
  88              		.cfi_offset 4, -8
  89              		.cfi_offset 14, -4
  90 0002 0446     		mov	r4, r0
  75:main.c        ****     
  76:main.c        ****     // Saturación de velocidad
  77:main.c        ****     if (velocidad > MOTOR_MAX) velocidad = MOTOR_MAX;
  91              		.loc 1 77 0
  92 0004 B0F59E6F 		cmp	r0, #1264
  93 0008 01DD     		ble	.L6
  94 000a 4FF49E64 		mov	r4, #1264
ARM GAS  C:\Users\user\AppData\Local\Temp\cctiVylh.s 			page 4


  95              	.L6:
  96              	.LVL8:
  78:main.c        ****     if (velocidad < MOTOR_MIN) velocidad = MOTOR_MIN;
  97              		.loc 1 78 0
  98 000e 14F59E6F 		cmn	r4, #1264
  99 0012 00DA     		bge	.L7
 100 0014 114C     		ldr	r4, .L14
 101              	.LVL9:
 102              	.L7:
  79:main.c        ****     
  80:main.c        ****     if (velocidad > 0) {
 103              		.loc 1 80 0
 104 0016 002C     		cmp	r4, #0
 105 0018 09DD     		ble	.L8
  81:main.c        ****         // Motor ADELANTE
  82:main.c        ****         Pin_IN1_Write(1);
 106              		.loc 1 82 0
 107 001a 0120     		movs	r0, #1
 108 001c FFF7FEFF 		bl	Pin_IN1_Write
 109              	.LVL10:
  83:main.c        ****         Pin_IN2_Write(0);
 110              		.loc 1 83 0
 111 0020 0020     		movs	r0, #0
 112 0022 FFF7FEFF 		bl	Pin_IN2_Write
 113              	.LVL11:
  84:main.c        ****         PWM_Motor_WriteCompare((uint16)velocidad);
 114              		.loc 1 84 0
 115 0026 A0B2     		uxth	r0, r4
 116 0028 FFF7FEFF 		bl	PWM_Motor_WriteCompare
 117              	.LVL12:
 118 002c 10BD     		pop	{r4, pc}
 119              	.LVL13:
 120              	.L8:
  85:main.c        ****     }
  86:main.c        ****     else if (velocidad < 0) {
 121              		.loc 1 86 0
 122 002e 002C     		cmp	r4, #0
 123 0030 0ADA     		bge	.L10
  87:main.c        ****         // Motor ATRÁS
  88:main.c        ****         Pin_IN1_Write(0);
 124              		.loc 1 88 0
 125 0032 0020     		movs	r0, #0
 126 0034 FFF7FEFF 		bl	Pin_IN1_Write
 127              	.LVL14:
  89:main.c        ****         Pin_IN2_Write(1);
 128              		.loc 1 89 0
 129 0038 0120     		movs	r0, #1
 130 003a FFF7FEFF 		bl	Pin_IN2_Write
 131              	.LVL15:
  90:main.c        ****         PWM_Motor_WriteCompare((uint16)(-velocidad));
 132              		.loc 1 90 0
 133 003e 6042     		negs	r0, r4
 134 0040 80B2     		uxth	r0, r0
 135 0042 FFF7FEFF 		bl	PWM_Motor_WriteCompare
 136              	.LVL16:
 137 0046 10BD     		pop	{r4, pc}
 138              	.LVL17:
ARM GAS  C:\Users\user\AppData\Local\Temp\cctiVylh.s 			page 5


 139              	.L10:
  91:main.c        ****     }
  92:main.c        ****     else {
  93:main.c        ****         // DETENER (freno activo - cortocircuito)
  94:main.c        ****         Pin_IN1_Write(0);
 140              		.loc 1 94 0
 141 0048 0020     		movs	r0, #0
 142 004a FFF7FEFF 		bl	Pin_IN1_Write
 143              	.LVL18:
  95:main.c        ****         Pin_IN2_Write(0);
 144              		.loc 1 95 0
 145 004e 0020     		movs	r0, #0
 146 0050 FFF7FEFF 		bl	Pin_IN2_Write
 147              	.LVL19:
  96:main.c        ****         PWM_Motor_WriteCompare(0);
 148              		.loc 1 96 0
 149 0054 0020     		movs	r0, #0
 150 0056 FFF7FEFF 		bl	PWM_Motor_WriteCompare
 151              	.LVL20:
 152 005a 10BD     		pop	{r4, pc}
 153              	.LVL21:
 154              	.L15:
 155              		.align	2
 156              	.L14:
 157 005c 10FBFFFF 		.word	-1264
 158              		.cfi_endproc
 159              	.LFE65:
 160              		.size	Motor_Control, .-Motor_Control
 161              		.section	.text.Motor_Control_Percent,"ax",%progbits
 162              		.align	2
 163              		.global	Motor_Control_Percent
 164              		.thumb
 165              		.thumb_func
 166              		.type	Motor_Control_Percent, %function
 167              	Motor_Control_Percent:
 168              	.LFB66:
  97:main.c        ****     }
  98:main.c        **** }
  99:main.c        **** 
 100:main.c        **** /**
 101:main.c        ****  * @brief Controla el motor con porcentaje
 102:main.c        ****  * @param percent: -100 (máx. atrás) a +100 (máx. adelante)
 103:main.c        ****  */
 104:main.c        **** void Motor_Control_Percent(int8 percent) {
 169              		.loc 1 104 0
 170              		.cfi_startproc
 171              		@ args = 0, pretend = 0, frame = 0
 172              		@ frame_needed = 0, uses_anonymous_args = 0
 173              	.LVL22:
 174 0000 10B5     		push	{r4, lr}
 175              		.cfi_def_cfa_offset 8
 176              		.cfi_offset 4, -8
 177              		.cfi_offset 14, -4
 105:main.c        ****     
 106:main.c        ****     int16 pwm_value;
 107:main.c        ****     
 108:main.c        ****     // Saturación
ARM GAS  C:\Users\user\AppData\Local\Temp\cctiVylh.s 			page 6


 109:main.c        ****     if (percent > 100) percent = 100;
 178              		.loc 1 109 0
 179 0002 6428     		cmp	r0, #100
 180 0004 00DD     		ble	.L17
 181 0006 6420     		movs	r0, #100
 182              	.LVL23:
 183              	.L17:
 110:main.c        ****     if (percent < -100) percent = -100;
 184              		.loc 1 110 0
 185 0008 10F1640F 		cmn	r0, #100
 186 000c 01DA     		bge	.L18
 187 000e 6FF06300 		mvn	r0, #99
 188              	.LVL24:
 189              	.L18:
 111:main.c        ****     
 112:main.c        ****     // Convertir porcentaje a valor PWM
 113:main.c        ****     pwm_value = (abs(percent) * PWM_PERIOD) / 100;
 190              		.loc 1 113 0
 191 0012 80EAE072 		eor	r2, r0, r0, asr #31
 192 0016 A2EBE072 		sub	r2, r2, r0, asr #31
 193 001a 4FF49E63 		mov	r3, #1264
 194 001e 03FB02F3 		mul	r3, r3, r2
 195 0022 144C     		ldr	r4, .L25
 196 0024 84FB0324 		smull	r2, r4, r4, r3
 197 0028 DB17     		asrs	r3, r3, #31
 198 002a C3EB6414 		rsb	r4, r3, r4, asr #5
 199              	.LVL25:
 114:main.c        ****     
 115:main.c        ****     if (percent > 0) {
 200              		.loc 1 115 0
 201 002e 0028     		cmp	r0, #0
 202 0030 09DD     		ble	.L19
 116:main.c        ****         // Adelante
 117:main.c        ****         Pin_IN1_Write(1);
 203              		.loc 1 117 0
 204 0032 0120     		movs	r0, #1
 205              	.LVL26:
 206 0034 FFF7FEFF 		bl	Pin_IN1_Write
 207              	.LVL27:
 118:main.c        ****         Pin_IN2_Write(0);
 208              		.loc 1 118 0
 209 0038 0020     		movs	r0, #0
 210 003a FFF7FEFF 		bl	Pin_IN2_Write
 211              	.LVL28:
 119:main.c        ****         PWM_Motor_WriteCompare((uint16)pwm_value);
 212              		.loc 1 119 0
 213 003e A0B2     		uxth	r0, r4
 214 0040 FFF7FEFF 		bl	PWM_Motor_WriteCompare
 215              	.LVL29:
 216 0044 10BD     		pop	{r4, pc}
 217              	.LVL30:
 218              	.L19:
 120:main.c        ****     }
 121:main.c        ****     else if (percent < 0) {
 219              		.loc 1 121 0
 220 0046 0028     		cmp	r0, #0
 221 0048 09DA     		bge	.L21
ARM GAS  C:\Users\user\AppData\Local\Temp\cctiVylh.s 			page 7


 122:main.c        ****         // Atrás
 123:main.c        ****         Pin_IN1_Write(0);
 222              		.loc 1 123 0
 223 004a 0020     		movs	r0, #0
 224              	.LVL31:
 225 004c FFF7FEFF 		bl	Pin_IN1_Write
 226              	.LVL32:
 124:main.c        ****         Pin_IN2_Write(1);
 227              		.loc 1 124 0
 228 0050 0120     		movs	r0, #1
 229 0052 FFF7FEFF 		bl	Pin_IN2_Write
 230              	.LVL33:
 125:main.c        ****         PWM_Motor_WriteCompare((uint16)pwm_value);
 231              		.loc 1 125 0
 232 0056 A0B2     		uxth	r0, r4
 233 0058 FFF7FEFF 		bl	PWM_Motor_WriteCompare
 234              	.LVL34:
 235 005c 10BD     		pop	{r4, pc}
 236              	.LVL35:
 237              	.L21:
 126:main.c        ****     }
 127:main.c        ****     else {
 128:main.c        ****         // Detener
 129:main.c        ****         Pin_IN1_Write(0);
 238              		.loc 1 129 0
 239 005e 0020     		movs	r0, #0
 240              	.LVL36:
 241 0060 FFF7FEFF 		bl	Pin_IN1_Write
 242              	.LVL37:
 130:main.c        ****         Pin_IN2_Write(0);
 243              		.loc 1 130 0
 244 0064 0020     		movs	r0, #0
 245 0066 FFF7FEFF 		bl	Pin_IN2_Write
 246              	.LVL38:
 131:main.c        ****         PWM_Motor_WriteCompare(0);
 247              		.loc 1 131 0
 248 006a 0020     		movs	r0, #0
 249 006c FFF7FEFF 		bl	PWM_Motor_WriteCompare
 250              	.LVL39:
 251 0070 10BD     		pop	{r4, pc}
 252              	.LVL40:
 253              	.L26:
 254 0072 00BF     		.align	2
 255              	.L25:
 256 0074 1F85EB51 		.word	1374389535
 257              		.cfi_endproc
 258              	.LFE66:
 259              		.size	Motor_Control_Percent, .-Motor_Control_Percent
 260              		.section	.text.Motor_Brake,"ax",%progbits
 261              		.align	2
 262              		.global	Motor_Brake
 263              		.thumb
 264              		.thumb_func
 265              		.type	Motor_Brake, %function
 266              	Motor_Brake:
 267              	.LFB67:
 132:main.c        ****     }
ARM GAS  C:\Users\user\AppData\Local\Temp\cctiVylh.s 			page 8


 133:main.c        **** }
 134:main.c        **** 
 135:main.c        **** /**
 136:main.c        ****  * @brief Frena el motor activamente (cortocircuito)
 137:main.c        ****  */
 138:main.c        **** void Motor_Brake(void) {
 268              		.loc 1 138 0
 269              		.cfi_startproc
 270              		@ args = 0, pretend = 0, frame = 0
 271              		@ frame_needed = 0, uses_anonymous_args = 0
 272 0000 08B5     		push	{r3, lr}
 273              		.cfi_def_cfa_offset 8
 274              		.cfi_offset 3, -8
 275              		.cfi_offset 14, -4
 139:main.c        ****     Pin_IN1_Write(0);
 276              		.loc 1 139 0
 277 0002 0020     		movs	r0, #0
 278 0004 FFF7FEFF 		bl	Pin_IN1_Write
 279              	.LVL41:
 140:main.c        ****     Pin_IN2_Write(0);
 280              		.loc 1 140 0
 281 0008 0020     		movs	r0, #0
 282 000a FFF7FEFF 		bl	Pin_IN2_Write
 283              	.LVL42:
 141:main.c        ****     PWM_Motor_WriteCompare(PWM_PERIOD);  // PWM al 100%
 284              		.loc 1 141 0
 285 000e 4FF49E60 		mov	r0, #1264
 286 0012 FFF7FEFF 		bl	PWM_Motor_WriteCompare
 287              	.LVL43:
 288 0016 08BD     		pop	{r3, pc}
 289              		.cfi_endproc
 290              	.LFE67:
 291              		.size	Motor_Brake, .-Motor_Brake
 292              		.section	.text.Motor_Free,"ax",%progbits
 293              		.align	2
 294              		.global	Motor_Free
 295              		.thumb
 296              		.thumb_func
 297              		.type	Motor_Free, %function
 298              	Motor_Free:
 299              	.LFB68:
 142:main.c        **** }
 143:main.c        **** 
 144:main.c        **** /**
 145:main.c        ****  * @brief Deja el motor libre (sin freno)
 146:main.c        ****  */
 147:main.c        **** void Motor_Free(void) {
 300              		.loc 1 147 0
 301              		.cfi_startproc
 302              		@ args = 0, pretend = 0, frame = 0
 303              		@ frame_needed = 0, uses_anonymous_args = 0
 304 0000 08B5     		push	{r3, lr}
 305              		.cfi_def_cfa_offset 8
 306              		.cfi_offset 3, -8
 307              		.cfi_offset 14, -4
 148:main.c        ****     Pin_IN1_Write(0);
 308              		.loc 1 148 0
ARM GAS  C:\Users\user\AppData\Local\Temp\cctiVylh.s 			page 9


 309 0002 0020     		movs	r0, #0
 310 0004 FFF7FEFF 		bl	Pin_IN1_Write
 311              	.LVL44:
 149:main.c        ****     Pin_IN2_Write(0);
 312              		.loc 1 149 0
 313 0008 0020     		movs	r0, #0
 314 000a FFF7FEFF 		bl	Pin_IN2_Write
 315              	.LVL45:
 150:main.c        ****     PWM_Motor_WriteCompare(0);  // PWM apagado
 316              		.loc 1 150 0
 317 000e 0020     		movs	r0, #0
 318 0010 FFF7FEFF 		bl	PWM_Motor_WriteCompare
 319              	.LVL46:
 320 0014 08BD     		pop	{r3, pc}
 321              		.cfi_endproc
 322              	.LFE68:
 323              		.size	Motor_Free, .-Motor_Free
 324              		.global	__aeabi_f2iz
 325 0016 00BF     		.section	.text.main,"ax",%progbits
 326              		.align	2
 327              		.global	main
 328              		.thumb
 329              		.thumb_func
 330              		.type	main, %function
 331              	main:
 332              	.LFB69:
 151:main.c        **** }
 152:main.c        **** 
 153:main.c        **** /*******************************************************************************
 154:main.c        **** * FUNCIÓN PRINCIPAL
 155:main.c        **** *******************************************************************************/
 156:main.c        **** 
 157:main.c        **** int main(void)
 158:main.c        **** {
 333              		.loc 1 158 0
 334              		.cfi_startproc
 335              		@ args = 0, pretend = 0, frame = 48
 336              		@ frame_needed = 0, uses_anonymous_args = 0
 337 0000 F0B5     		push	{r4, r5, r6, r7, lr}
 338              		.cfi_def_cfa_offset 20
 339              		.cfi_offset 4, -20
 340              		.cfi_offset 5, -16
 341              		.cfi_offset 6, -12
 342              		.cfi_offset 7, -8
 343              		.cfi_offset 14, -4
 344 0002 8DB0     		sub	sp, sp, #52
 345              		.cfi_def_cfa_offset 72
 346              	.LVL47:
 159:main.c        ****     char  rx_buf[8];
 160:main.c        ****     uint8 rx_idx  = 0u;
 161:main.c        ****     uint8 rx_char;
 162:main.c        ****     int16 current_pwm = 0;
 163:main.c        ****     char  tx_buf[40];
 164:main.c        ****     uint16 print_cnt = 0u;
 165:main.c        **** 
 166:main.c        ****     CyGlobalIntEnable;
 347              		.loc 1 166 0
ARM GAS  C:\Users\user\AppData\Local\Temp\cctiVylh.s 			page 10


 348              		.syntax unified
 349              	@ 166 "main.c" 1
 350 0004 62B6     		CPSIE   i
 351              	@ 0 "" 2
 167:main.c        **** 
 168:main.c        ****     // Inicializar componentes
 169:main.c        ****     PWM_Motor_Start();
 352              		.loc 1 169 0
 353              		.thumb
 354              		.syntax unified
 355 0006 FFF7FEFF 		bl	PWM_Motor_Start
 356              	.LVL48:
 170:main.c        ****     QuadDec_1_Start();
 357              		.loc 1 170 0
 358 000a FFF7FEFF 		bl	QuadDec_1_Start
 359              	.LVL49:
 171:main.c        ****     UART_1_Start();
 360              		.loc 1 171 0
 361 000e FFF7FEFF 		bl	UART_1_Start
 362              	.LVL50:
 172:main.c        **** 
 173:main.c        ****     // Timer_1 para medición de velocidad (ISR cada 10 ms)
 174:main.c        ****     Timer_1_Start();
 363              		.loc 1 174 0
 364 0012 FFF7FEFF 		bl	Timer_1_Start
 365              	.LVL51:
 175:main.c        ****     isr_1_StartEx(Motor_Speed_ISR);
 366              		.loc 1 175 0
 367 0016 2448     		ldr	r0, .L38
 368 0018 FFF7FEFF 		bl	isr_1_StartEx
 369              	.LVL52:
 176:main.c        **** 
 177:main.c        ****     UART_1_PutString("=== Motor Control ===\r\n");
 370              		.loc 1 177 0
 371 001c 2348     		ldr	r0, .L38+4
 372 001e FFF7FEFF 		bl	UART_1_PutString
 373              	.LVL53:
 178:main.c        ****     UART_1_PutString("Ingrese PWM (-2524 a 2524) + Enter\r\n");
 374              		.loc 1 178 0
 375 0022 2348     		ldr	r0, .L38+8
 376 0024 FFF7FEFF 		bl	UART_1_PutString
 377              	.LVL54:
 179:main.c        ****     UART_1_PutString("PWM:     0 | RPM:     0.0\r\n");
 378              		.loc 1 179 0
 379 0028 2248     		ldr	r0, .L38+12
 380 002a FFF7FEFF 		bl	UART_1_PutString
 381              	.LVL55:
 164:main.c        **** 
 382              		.loc 1 164 0
 383 002e 0024     		movs	r4, #0
 162:main.c        ****     char  tx_buf[40];
 384              		.loc 1 162 0
 385 0030 2746     		mov	r7, r4
 160:main.c        ****     uint8 rx_char;
 386              		.loc 1 160 0
 387 0032 2646     		mov	r6, r4
 388              	.LVL56:
ARM GAS  C:\Users\user\AppData\Local\Temp\cctiVylh.s 			page 11


 389              	.L36:
 180:main.c        **** 
 181:main.c        ****     for(;;)
 182:main.c        ****     {
 183:main.c        ****         /*----------------------------------------------------------------------
 184:main.c        ****         * Recepción de PWM por UART
 185:main.c        ****         * Escribir el número en PuTTY y presionar Enter para aplicarlo.
 186:main.c        ****         * Soporta negativos (ej: -1200 + Enter)
 187:main.c        ****         *---------------------------------------------------------------------*/
 188:main.c        ****         rx_char = UART_1_GetChar();
 390              		.loc 1 188 0
 391 0034 FFF7FEFF 		bl	UART_1_GetChar
 392              	.LVL57:
 189:main.c        ****         if (rx_char != 0u)
 393              		.loc 1 189 0
 394 0038 0546     		mov	r5, r0
 395 003a F0B1     		cbz	r0, .L32
 190:main.c        ****         {
 191:main.c        ****             if (rx_char == '\r' || rx_char == '\n')
 396              		.loc 1 191 0
 397 003c 0D28     		cmp	r0, #13
 398 003e 01D0     		beq	.L33
 399              		.loc 1 191 0 is_stmt 0 discriminator 1
 400 0040 0A28     		cmp	r0, #10
 401 0042 10D1     		bne	.L34
 402              	.L33:
 192:main.c        ****             {
 193:main.c        ****                 if (rx_idx > 0u)
 403              		.loc 1 193 0 is_stmt 1
 404 0044 CEB1     		cbz	r6, .L32
 194:main.c        ****                 {
 195:main.c        ****                     rx_buf[rx_idx] = '\0';
 405              		.loc 1 195 0
 406 0046 0CAB     		add	r3, sp, #48
 407 0048 3344     		add	r3, r3, r6
 408 004a 0026     		movs	r6, #0
 409              	.LVL58:
 410 004c 03F8086C 		strb	r6, [r3, #-8]
 196:main.c        ****                     current_pwm = (int16)atoi(rx_buf);
 411              		.loc 1 196 0
 412 0050 0AA8     		add	r0, sp, #40
 413              	.LVL59:
 414 0052 FFF7FEFF 		bl	atoi
 415              	.LVL60:
 416 0056 07B2     		sxth	r7, r0
 417              	.LVL61:
 197:main.c        ****                     Motor_Control(current_pwm);
 418              		.loc 1 197 0
 419 0058 3846     		mov	r0, r7
 420 005a FFF7FEFF 		bl	Motor_Control
 421              	.LVL62:
 198:main.c        ****                     rx_idx = 0u;
 199:main.c        ****                     UART_1_PutString("\r\n");
 422              		.loc 1 199 0
 423 005e 1648     		ldr	r0, .L38+16
 424 0060 FFF7FEFF 		bl	UART_1_PutString
 425              	.LVL63:
ARM GAS  C:\Users\user\AppData\Local\Temp\cctiVylh.s 			page 12


 426 0064 09E0     		b	.L32
 427              	.LVL64:
 428              	.L34:
 200:main.c        ****                 }
 201:main.c        ****             }
 202:main.c        ****             else if (rx_idx < (sizeof(rx_buf) - 1u))
 429              		.loc 1 202 0
 430 0066 062E     		cmp	r6, #6
 431 0068 07D8     		bhi	.L32
 203:main.c        ****             {
 204:main.c        ****                 UART_1_PutChar(rx_char);    // eco: ver lo que se escribe
 432              		.loc 1 204 0
 433 006a FFF7FEFF 		bl	UART_1_PutChar
 434              	.LVL65:
 205:main.c        ****                 rx_buf[rx_idx++] = (char)rx_char;
 435              		.loc 1 205 0
 436 006e 731C     		adds	r3, r6, #1
 437              	.LVL66:
 438 0070 0CAA     		add	r2, sp, #48
 439 0072 1644     		add	r6, r6, r2
 440 0074 06F8085C 		strb	r5, [r6, #-8]
 441 0078 DEB2     		uxtb	r6, r3
 442              	.LVL67:
 443              	.L32:
 206:main.c        ****             }
 207:main.c        ****         }
 208:main.c        **** 
 209:main.c        ****         /*----------------------------------------------------------------------
 210:main.c        ****         * Imprimir PWM y velocidad cada 500 ms
 211:main.c        ****         *---------------------------------------------------------------------*/
 212:main.c        ****         print_cnt++;
 444              		.loc 1 212 0
 445 007a 0134     		adds	r4, r4, #1
 446              	.LVL68:
 447 007c A4B2     		uxth	r4, r4
 448              	.LVL69:
 213:main.c        ****         if (print_cnt >= 50u)
 449              		.loc 1 213 0
 450 007e 312C     		cmp	r4, #49
 451 0080 0DD9     		bls	.L35
 452              	.LVL70:
 214:main.c        ****         {
 215:main.c        ****             print_cnt = 0u;
 216:main.c        ****             sprintf(tx_buf, "PWM: %5d | RPM: %5d\r\n",
 453              		.loc 1 216 0
 454 0082 0E4B     		ldr	r3, .L38+20
 455 0084 5868     		ldr	r0, [r3, #4]	@ float
 456 0086 FFF7FEFF 		bl	__aeabi_f2iz
 457              	.LVL71:
 458 008a 0346     		mov	r3, r0
 459 008c 3A46     		mov	r2, r7
 460 008e 0C49     		ldr	r1, .L38+24
 461 0090 6846     		mov	r0, sp
 462 0092 FFF7FEFF 		bl	sprintf
 463              	.LVL72:
 217:main.c        ****                     (int)current_pwm, (int)motor_speed_rpm);
 218:main.c        ****             UART_1_PutString(tx_buf);
ARM GAS  C:\Users\user\AppData\Local\Temp\cctiVylh.s 			page 13


 464              		.loc 1 218 0
 465 0096 6846     		mov	r0, sp
 466 0098 FFF7FEFF 		bl	UART_1_PutString
 467              	.LVL73:
 215:main.c        ****             sprintf(tx_buf, "PWM: %5d | RPM: %5d\r\n",
 468              		.loc 1 215 0
 469 009c 0024     		movs	r4, #0
 470              	.LVL74:
 471              	.L35:
 219:main.c        ****         }
 220:main.c        **** 
 221:main.c        ****         CyDelay(10);    // 10 ms por iteración → 50 iter = 500 ms
 472              		.loc 1 221 0
 473 009e 0A20     		movs	r0, #10
 474 00a0 FFF7FEFF 		bl	CyDelay
 475              	.LVL75:
 222:main.c        ****     }
 476              		.loc 1 222 0
 477 00a4 C6E7     		b	.L36
 478              	.L39:
 479 00a6 00BF     		.align	2
 480              	.L38:
 481 00a8 00000000 		.word	Motor_Speed_ISR
 482 00ac 00000000 		.word	.LC0
 483 00b0 18000000 		.word	.LC1
 484 00b4 40000000 		.word	.LC2
 485 00b8 5C000000 		.word	.LC3
 486 00bc 00000000 		.word	.LANCHOR0
 487 00c0 60000000 		.word	.LC4
 488              		.cfi_endproc
 489              	.LFE69:
 490              		.size	main, .-main
 491              		.global	motor_speed_rpm
 492              		.global	encoder_prev_count
 493              		.section	.rodata.str1.4,"aMS",%progbits,1
 494              		.align	2
 495              	.LC0:
 496 0000 3D3D3D20 		.ascii	"=== Motor Control ===\015\012\000"
 496      4D6F746F 
 496      7220436F 
 496      6E74726F 
 496      6C203D3D 
 497              	.LC1:
 498 0018 496E6772 		.ascii	"Ingrese PWM (-2524 a 2524) + Enter\015\012\000"
 498      65736520 
 498      50574D20 
 498      282D3235 
 498      32342061 
 499 003d 000000   		.space	3
 500              	.LC2:
 501 0040 50574D3A 		.ascii	"PWM:     0 | RPM:     0.0\015\012\000"
 501      20202020 
 501      2030207C 
 501      2052504D 
 501      3A202020 
 502              	.LC3:
 503 005c 0D0A00   		.ascii	"\015\012\000"
ARM GAS  C:\Users\user\AppData\Local\Temp\cctiVylh.s 			page 14


 504 005f 00       		.space	1
 505              	.LC4:
 506 0060 50574D3A 		.ascii	"PWM: %5d | RPM: %5d\015\012\000"
 506      20253564 
 506      207C2052 
 506      504D3A20 
 506      2535640D 
 507              		.bss
 508              		.align	2
 509              		.set	.LANCHOR0,. + 0
 510              		.type	encoder_prev_count, %object
 511              		.size	encoder_prev_count, 4
 512              	encoder_prev_count:
 513 0000 00000000 		.space	4
 514              		.type	motor_speed_rpm, %object
 515              		.size	motor_speed_rpm, 4
 516              	motor_speed_rpm:
 517 0004 00000000 		.space	4
 518              		.text
 519              	.Letext0:
 520              		.file 2 "d:\\psoc\\psoc creator\\4.4\\psoc creator\\import\\gnu\\arm\\5.4.1\\arm-none-eabi\\includ
 521              		.file 3 "d:\\psoc\\psoc creator\\4.4\\psoc creator\\import\\gnu\\arm\\5.4.1\\arm-none-eabi\\includ
 522              		.file 4 "Generated_Source\\PSoC5/cytypes.h"
 523              		.file 5 "Generated_Source\\PSoC5/core_cm3.h"
 524              		.file 6 "Generated_Source\\PSoC5/QuadDec_1.h"
 525              		.file 7 "Generated_Source\\PSoC5/Timer_1.h"
 526              		.file 8 "Generated_Source\\PSoC5/Pin_IN1.h"
 527              		.file 9 "Generated_Source\\PSoC5/Pin_IN2.h"
 528              		.file 10 "Generated_Source\\PSoC5/PWM_Motor.h"
 529              		.file 11 "Generated_Source\\PSoC5/UART_1.h"
 530              		.file 12 "Generated_Source\\PSoC5/isr_1.h"
 531              		.file 13 "d:\\psoc\\psoc creator\\4.4\\psoc creator\\import\\gnu\\arm\\5.4.1\\arm-none-eabi\\inclu
 532              		.file 14 "d:\\psoc\\psoc creator\\4.4\\psoc creator\\import\\gnu\\arm\\5.4.1\\arm-none-eabi\\inclu
 533              		.file 15 "Generated_Source\\PSoC5/CyLib.h"