ARM GAS  C:\Users\user\AppData\Local\Temp\ccDg6Blx.s 			page 1


   1              		.syntax unified
   2              		.cpu cortex-m3
   3              		.fpu softvfp
   4              		.eabi_attribute 20, 1
   5              		.eabi_attribute 21, 1
   6              		.eabi_attribute 23, 3
   7              		.eabi_attribute 24, 1
   8              		.eabi_attribute 25, 1
   9              		.eabi_attribute 26, 1
  10              		.eabi_attribute 30, 1
  11              		.eabi_attribute 34, 1
  12              		.eabi_attribute 18, 4
  13              		.thumb
  14              		.syntax unified
  15              		.file	"motor.c"
  16              		.text
  17              	.Ltext0:
  18              		.cfi_sections	.debug_frame
  19              		.global	__aeabi_i2f
  20              		.global	__aeabi_fmul
  21              		.global	__aeabi_fsub
  22              		.global	__aeabi_fadd
  23              		.section	.text.RPM_Estimado,"ax",%progbits
  24              		.align	2
  25              		.global	RPM_Estimado
  26              		.thumb
  27              		.thumb_func
  28              		.type	RPM_Estimado, %function
  29              	RPM_Estimado:
  30              	.LFB63:
  31              		.file 1 "motor.c"
   1:motor.c       **** #include "motor.h"
   2:motor.c       **** #include "pid.h"
   3:motor.c       **** 
   4:motor.c       **** /*******************************************************************************
   5:motor.c       **** * INSTANCIA DEL CONTROLADOR PI
   6:motor.c       **** *******************************************************************************/
   7:motor.c       **** 
   8:motor.c       **** static PID_t pi_motor = {
   9:motor.c       ****     .kp         = PI_MOTOR_KP,
  10:motor.c       ****     .ki         = PI_MOTOR_KI,
  11:motor.c       ****     .kd         = 0.0f,
  12:motor.c       ****     .integrator = 0.0f,
  13:motor.c       ****     .prev_error = 0.0f,
  14:motor.c       ****     .out_max    = PI_MOTOR_OUT_MAX,
  15:motor.c       ****     .out_min    = PI_MOTOR_OUT_MIN
  16:motor.c       **** };
  17:motor.c       **** 
  18:motor.c       **** /*******************************************************************************
  19:motor.c       **** * VARIABLES GLOBALES
  20:motor.c       **** *******************************************************************************/
  21:motor.c       **** 
  22:motor.c       **** volatile float  omega_setpoint    = 0.0f;
  23:motor.c       **** volatile float  motor_speed_rads  = 0.0f;
  24:motor.c       **** volatile int16  pi_motor_output   = 0;
  25:motor.c       **** volatile float  motor_u           = 0.0f;
  26:motor.c       **** volatile uint8  flag_control      = 0u;
ARM GAS  C:\Users\user\AppData\Local\Temp\ccDg6Blx.s 			page 2


  27:motor.c       **** volatile uint16 print_cnt         = 0u;
  28:motor.c       **** 
  29:motor.c       **** static volatile int32 encoder_prev_count = 0;
  30:motor.c       **** static volatile float motor_speed_rpm    = 0.0f;
  31:motor.c       **** 
  32:motor.c       **** /*******************************************************************************
  33:motor.c       **** * CURVAS POLINOMIALES
  34:motor.c       **** *******************************************************************************/
  35:motor.c       **** 
  36:motor.c       **** float RPM_Estimado(int16 pwm)
  37:motor.c       **** {
  32              		.loc 1 37 0
  33              		.cfi_startproc
  34              		@ args = 0, pretend = 0, frame = 0
  35              		@ frame_needed = 0, uses_anonymous_args = 0
  36              	.LVL0:
  37 0000 10B5     		push	{r4, lr}
  38              		.cfi_def_cfa_offset 8
  39              		.cfi_offset 4, -8
  40              		.cfi_offset 14, -4
  38:motor.c       ****     float x = (float)pwm;
  41              		.loc 1 38 0
  42 0002 FFF7FEFF 		bl	__aeabi_i2f
  43              	.LVL1:
  44 0006 0446     		mov	r4, r0
  45              	.LVL2:
  39:motor.c       ****     return (((RPM_P1 * x + RPM_P2) * x + RPM_P3) * x + RPM_P4) * x + RPM_P5;
  46              		.loc 1 39 0
  47 0008 0D49     		ldr	r1, .L3
  48 000a FFF7FEFF 		bl	__aeabi_fmul
  49              	.LVL3:
  50 000e 0D49     		ldr	r1, .L3+4
  51 0010 FFF7FEFF 		bl	__aeabi_fsub
  52              	.LVL4:
  53 0014 0146     		mov	r1, r0
  54 0016 2046     		mov	r0, r4
  55 0018 FFF7FEFF 		bl	__aeabi_fmul
  56              	.LVL5:
  57 001c 0A49     		ldr	r1, .L3+8
  58 001e FFF7FEFF 		bl	__aeabi_fadd
  59              	.LVL6:
  60 0022 0146     		mov	r1, r0
  61 0024 2046     		mov	r0, r4
  62 0026 FFF7FEFF 		bl	__aeabi_fmul
  63              	.LVL7:
  64 002a 0849     		ldr	r1, .L3+12
  65 002c FFF7FEFF 		bl	__aeabi_fadd
  66              	.LVL8:
  67 0030 0146     		mov	r1, r0
  68 0032 2046     		mov	r0, r4
  69 0034 FFF7FEFF 		bl	__aeabi_fmul
  70              	.LVL9:
  71 0038 0549     		ldr	r1, .L3+16
  72 003a FFF7FEFF 		bl	__aeabi_fsub
  73              	.LVL10:
  40:motor.c       **** }
  74              		.loc 1 40 0
ARM GAS  C:\Users\user\AppData\Local\Temp\ccDg6Blx.s 			page 3


  75 003e 10BD     		pop	{r4, pc}
  76              	.LVL11:
  77              	.L4:
  78              		.align	2
  79              	.L3:
  80 0040 BF24C72D 		.word	768025791
  81 0044 3FC08133 		.word	864141375
  82 0048 00AE3F38 		.word	943697408
  83 004c 3128D33A 		.word	986916913
  84 0050 516B5A3F 		.word	1062890321
  85              		.cfi_endproc
  86              	.LFE63:
  87              		.size	RPM_Estimado, .-RPM_Estimado
  88              		.global	__aeabi_f2iz
  89              		.section	.text.PWM_Desde_Voltaje,"ax",%progbits
  90              		.align	2
  91              		.global	PWM_Desde_Voltaje
  92              		.thumb
  93              		.thumb_func
  94              		.type	PWM_Desde_Voltaje, %function
  95              	PWM_Desde_Voltaje:
  96              	.LFB64:
  41:motor.c       **** 
  42:motor.c       **** int16 PWM_Desde_Voltaje(float v)
  43:motor.c       **** {
  97              		.loc 1 43 0
  98              		.cfi_startproc
  99              		@ args = 0, pretend = 0, frame = 0
 100              		@ frame_needed = 0, uses_anonymous_args = 0
 101              	.LVL12:
 102 0000 10B5     		push	{r4, lr}
 103              		.cfi_def_cfa_offset 8
 104              		.cfi_offset 4, -8
 105              		.cfi_offset 14, -4
 106 0002 0446     		mov	r4, r0
  44:motor.c       ****     int16 pwm = (int16)((((PWM_P1 * v + PWM_P2) * v + PWM_P3) * v + PWM_P4) * v + PWM_P5);
 107              		.loc 1 44 0
 108 0004 1349     		ldr	r1, .L11
 109 0006 FFF7FEFF 		bl	__aeabi_fmul
 110              	.LVL13:
 111 000a 1349     		ldr	r1, .L11+4
 112 000c FFF7FEFF 		bl	__aeabi_fadd
 113              	.LVL14:
 114 0010 0146     		mov	r1, r0
 115 0012 2046     		mov	r0, r4
 116 0014 FFF7FEFF 		bl	__aeabi_fmul
 117              	.LVL15:
 118 0018 1049     		ldr	r1, .L11+8
 119 001a FFF7FEFF 		bl	__aeabi_fsub
 120              	.LVL16:
 121 001e 0146     		mov	r1, r0
 122 0020 2046     		mov	r0, r4
 123 0022 FFF7FEFF 		bl	__aeabi_fmul
 124              	.LVL17:
 125 0026 0E49     		ldr	r1, .L11+12
 126 0028 FFF7FEFF 		bl	__aeabi_fadd
 127              	.LVL18:
ARM GAS  C:\Users\user\AppData\Local\Temp\ccDg6Blx.s 			page 4


 128 002c 0146     		mov	r1, r0
 129 002e 2046     		mov	r0, r4
 130 0030 FFF7FEFF 		bl	__aeabi_fmul
 131              	.LVL19:
 132 0034 0B49     		ldr	r1, .L11+16
 133 0036 FFF7FEFF 		bl	__aeabi_fadd
 134              	.LVL20:
 135 003a FFF7FEFF 		bl	__aeabi_f2iz
 136              	.LVL21:
 137 003e 00B2     		sxth	r0, r0
 138              	.LVL22:
  45:motor.c       ****     if (pwm > MOTOR_MAX) pwm = MOTOR_MAX;
 139              		.loc 1 45 0
 140 0040 B0F59E6F 		cmp	r0, #1264
 141 0044 01DD     		ble	.L6
 142 0046 4FF49E60 		mov	r0, #1264
 143              	.LVL23:
 144              	.L6:
  46:motor.c       ****     if (pwm < 0)         pwm = 0;
 145              		.loc 1 46 0
 146 004a 0028     		cmp	r0, #0
 147 004c 00DA     		bge	.L7
 148 004e 0020     		movs	r0, #0
 149              	.LVL24:
 150              	.L7:
  47:motor.c       ****     return pwm;
  48:motor.c       **** }
 151              		.loc 1 48 0
 152 0050 10BD     		pop	{r4, pc}
 153              	.LVL25:
 154              	.L12:
 155 0052 00BF     		.align	2
 156              	.L11:
 157 0054 2AA4E1BD 		.word	-1109285846
 158 0058 86D88140 		.word	1082251398
 159 005c D3EAF541 		.word	1106635475
 160 0060 CC1F0443 		.word	1124343756
 161 0064 FB2BFA42 		.word	1123691515
 162              		.cfi_endproc
 163              	.LFE64:
 164              		.size	PWM_Desde_Voltaje, .-PWM_Desde_Voltaje
 165              		.section	.text.Motor_Speed_ISR,"ax",%progbits
 166              		.align	2
 167              		.global	Motor_Speed_ISR
 168              		.thumb
 169              		.thumb_func
 170              		.type	Motor_Speed_ISR, %function
 171              	Motor_Speed_ISR:
 172              	.LFB65:
  49:motor.c       **** 
  50:motor.c       **** /*******************************************************************************
  51:motor.c       **** * ISR DEL TIMER_1 — Disparo periódico cada SAMPLE_TIME_S
  52:motor.c       **** *******************************************************************************/
  53:motor.c       **** 
  54:motor.c       **** CY_ISR(Motor_Speed_ISR)
  55:motor.c       **** {
 173              		.loc 1 55 0
ARM GAS  C:\Users\user\AppData\Local\Temp\ccDg6Blx.s 			page 5


 174              		.cfi_startproc
 175              		@ args = 0, pretend = 0, frame = 0
 176              		@ frame_needed = 0, uses_anonymous_args = 0
 177 0000 08B5     		push	{r3, lr}
 178              		.cfi_def_cfa_offset 8
 179              		.cfi_offset 3, -8
 180              		.cfi_offset 14, -4
  56:motor.c       ****     Timer_1_ReadStatusRegister();
 181              		.loc 1 56 0
 182 0002 FFF7FEFF 		bl	Timer_1_ReadStatusRegister
 183              	.LVL26:
  57:motor.c       ****     flag_control = 1u;
 184              		.loc 1 57 0
 185 0006 044A     		ldr	r2, .L15
 186 0008 0123     		movs	r3, #1
 187 000a 1370     		strb	r3, [r2]
  58:motor.c       ****     print_cnt++;
 188              		.loc 1 58 0
 189 000c 5388     		ldrh	r3, [r2, #2]
 190 000e 9BB2     		uxth	r3, r3
 191 0010 0133     		adds	r3, r3, #1
 192 0012 9BB2     		uxth	r3, r3
 193 0014 5380     		strh	r3, [r2, #2]	@ movhi
 194 0016 08BD     		pop	{r3, pc}
 195              	.L16:
 196              		.align	2
 197              	.L15:
 198 0018 00000000 		.word	.LANCHOR0
 199              		.cfi_endproc
 200              	.LFE65:
 201              		.size	Motor_Speed_ISR, .-Motor_Speed_ISR
 202              		.section	.text.Motor_Control,"ax",%progbits
 203              		.align	2
 204              		.global	Motor_Control
 205              		.thumb
 206              		.thumb_func
 207              		.type	Motor_Control, %function
 208              	Motor_Control:
 209              	.LFB68:
  59:motor.c       **** }
  60:motor.c       **** 
  61:motor.c       **** /*******************************************************************************
  62:motor.c       **** * LAZO DE CONTROL — ejecutado desde main cuando flag_control == 1
  63:motor.c       **** *******************************************************************************/
  64:motor.c       **** 
  65:motor.c       **** void Motor_Stop(void)
  66:motor.c       **** {
  67:motor.c       ****     PID_Reset(&pi_motor);
  68:motor.c       ****     motor_u          = 0.0f;
  69:motor.c       ****     pi_motor_output  = 0;
  70:motor.c       ****     VDAC8_u_SetValue((uint8)((0.0f + 12.0f) * (255.0f / 24.0f)));
  71:motor.c       ****     Motor_Free();
  72:motor.c       **** }
  73:motor.c       **** 
  74:motor.c       **** void Motor_Controller_Run(void)
  75:motor.c       **** {
  76:motor.c       ****     int32 current_count = QuadDec_1_GetCounter();
ARM GAS  C:\Users\user\AppData\Local\Temp\ccDg6Blx.s 			page 6


  77:motor.c       ****     int32 delta_counts  = current_count - encoder_prev_count;
  78:motor.c       ****     encoder_prev_count  = current_count;
  79:motor.c       **** 
  80:motor.c       ****     motor_speed_rpm  = ((float)delta_counts * 60.0f) /
  81:motor.c       ****                        ((float)ENCODER_CPR * SAMPLE_TIME_S);
  82:motor.c       ****     motor_speed_rads = motor_speed_rpm * (3.14159265f / 30.0f);
  83:motor.c       **** 
  84:motor.c       ****     /* Setpoint = 0: liberar motor y resetear PI para evitar windup */
  85:motor.c       ****     if (omega_setpoint > -0.01f && omega_setpoint < 0.01f)
  86:motor.c       ****     {
  87:motor.c       ****         Motor_Stop();
  88:motor.c       ****         return;
  89:motor.c       ****     }
  90:motor.c       **** 
  91:motor.c       ****     float u = PID_Compute(&pi_motor, omega_setpoint, motor_speed_rads);
  92:motor.c       ****     motor_u = u;
  93:motor.c       **** 
  94:motor.c       ****     if (u >= 0.0f)
  95:motor.c       ****         pi_motor_output =  (int16)PWM_Desde_Voltaje( u);
  96:motor.c       ****     else
  97:motor.c       ****         pi_motor_output = -(int16)PWM_Desde_Voltaje(-u);
  98:motor.c       **** 
  99:motor.c       ****     Motor_Control(pi_motor_output);
 100:motor.c       ****     VDAC8_u_SetValue((uint8)((u + 12.0f) * (255.0f / 24.0f)));
 101:motor.c       **** }
 102:motor.c       **** 
 103:motor.c       **** /*******************************************************************************
 104:motor.c       **** * CONTROL DE HARDWARE DEL MOTOR (L298N)
 105:motor.c       **** *
 106:motor.c       **** * Pines: Pin_ENA (PWM velocidad), Pin_IN1 / Pin_IN2 (dirección)
 107:motor.c       **** *******************************************************************************/
 108:motor.c       **** 
 109:motor.c       **** void Motor_Control(int16 velocidad)
 110:motor.c       **** {
 210              		.loc 1 110 0
 211              		.cfi_startproc
 212              		@ args = 0, pretend = 0, frame = 0
 213              		@ frame_needed = 0, uses_anonymous_args = 0
 214              	.LVL27:
 215 0000 10B5     		push	{r4, lr}
 216              		.cfi_def_cfa_offset 8
 217              		.cfi_offset 4, -8
 218              		.cfi_offset 14, -4
 219 0002 0446     		mov	r4, r0
 111:motor.c       ****     if (velocidad > MOTOR_MAX) velocidad = MOTOR_MAX;
 220              		.loc 1 111 0
 221 0004 B0F59E6F 		cmp	r0, #1264
 222 0008 01DD     		ble	.L18
 223 000a 4FF49E64 		mov	r4, #1264
 224              	.L18:
 225              	.LVL28:
 112:motor.c       ****     if (velocidad < MOTOR_MIN) velocidad = MOTOR_MIN;
 226              		.loc 1 112 0
 227 000e 14F59E6F 		cmn	r4, #1264
 228 0012 00DA     		bge	.L19
 229 0014 114C     		ldr	r4, .L26
 230              	.LVL29:
ARM GAS  C:\Users\user\AppData\Local\Temp\ccDg6Blx.s 			page 7


 231              	.L19:
 113:motor.c       **** 
 114:motor.c       ****     if (velocidad > 0) {
 232              		.loc 1 114 0
 233 0016 002C     		cmp	r4, #0
 234 0018 09DD     		ble	.L20
 115:motor.c       ****         Pin_IN1_Write(1);
 235              		.loc 1 115 0
 236 001a 0120     		movs	r0, #1
 237 001c FFF7FEFF 		bl	Pin_IN1_Write
 238              	.LVL30:
 116:motor.c       ****         Pin_IN2_Write(0);
 239              		.loc 1 116 0
 240 0020 0020     		movs	r0, #0
 241 0022 FFF7FEFF 		bl	Pin_IN2_Write
 242              	.LVL31:
 117:motor.c       ****         PWM_Motor_WriteCompare((uint16)velocidad);
 243              		.loc 1 117 0
 244 0026 A0B2     		uxth	r0, r4
 245 0028 FFF7FEFF 		bl	PWM_Motor_WriteCompare
 246              	.LVL32:
 247 002c 10BD     		pop	{r4, pc}
 248              	.LVL33:
 249              	.L20:
 118:motor.c       ****     } else if (velocidad < 0) {
 250              		.loc 1 118 0
 251 002e 002C     		cmp	r4, #0
 252 0030 0ADA     		bge	.L22
 119:motor.c       ****         Pin_IN1_Write(0);
 253              		.loc 1 119 0
 254 0032 0020     		movs	r0, #0
 255 0034 FFF7FEFF 		bl	Pin_IN1_Write
 256              	.LVL34:
 120:motor.c       ****         Pin_IN2_Write(1);
 257              		.loc 1 120 0
 258 0038 0120     		movs	r0, #1
 259 003a FFF7FEFF 		bl	Pin_IN2_Write
 260              	.LVL35:
 121:motor.c       ****         PWM_Motor_WriteCompare((uint16)(-velocidad));
 261              		.loc 1 121 0
 262 003e 6042     		negs	r0, r4
 263 0040 80B2     		uxth	r0, r0
 264 0042 FFF7FEFF 		bl	PWM_Motor_WriteCompare
 265              	.LVL36:
 266 0046 10BD     		pop	{r4, pc}
 267              	.LVL37:
 268              	.L22:
 122:motor.c       ****     } else {
 123:motor.c       ****         Pin_IN1_Write(0);
 269              		.loc 1 123 0
 270 0048 0020     		movs	r0, #0
 271 004a FFF7FEFF 		bl	Pin_IN1_Write
 272              	.LVL38:
 124:motor.c       ****         Pin_IN2_Write(0);
 273              		.loc 1 124 0
 274 004e 0020     		movs	r0, #0
 275 0050 FFF7FEFF 		bl	Pin_IN2_Write
ARM GAS  C:\Users\user\AppData\Local\Temp\ccDg6Blx.s 			page 8


 276              	.LVL39:
 125:motor.c       ****         PWM_Motor_WriteCompare(0);
 277              		.loc 1 125 0
 278 0054 0020     		movs	r0, #0
 279 0056 FFF7FEFF 		bl	PWM_Motor_WriteCompare
 280              	.LVL40:
 281 005a 10BD     		pop	{r4, pc}
 282              	.LVL41:
 283              	.L27:
 284              		.align	2
 285              	.L26:
 286 005c 10FBFFFF 		.word	-1264
 287              		.cfi_endproc
 288              	.LFE68:
 289              		.size	Motor_Control, .-Motor_Control
 290              		.section	.text.Motor_Brake,"ax",%progbits
 291              		.align	2
 292              		.global	Motor_Brake
 293              		.thumb
 294              		.thumb_func
 295              		.type	Motor_Brake, %function
 296              	Motor_Brake:
 297              	.LFB69:
 126:motor.c       ****     }
 127:motor.c       **** }
 128:motor.c       **** 
 129:motor.c       **** /* Freno activo (cortocircuito) */
 130:motor.c       **** void Motor_Brake(void)
 131:motor.c       **** {
 298              		.loc 1 131 0
 299              		.cfi_startproc
 300              		@ args = 0, pretend = 0, frame = 0
 301              		@ frame_needed = 0, uses_anonymous_args = 0
 302 0000 08B5     		push	{r3, lr}
 303              		.cfi_def_cfa_offset 8
 304              		.cfi_offset 3, -8
 305              		.cfi_offset 14, -4
 132:motor.c       ****     Pin_IN1_Write(0);
 306              		.loc 1 132 0
 307 0002 0020     		movs	r0, #0
 308 0004 FFF7FEFF 		bl	Pin_IN1_Write
 309              	.LVL42:
 133:motor.c       ****     Pin_IN2_Write(0);
 310              		.loc 1 133 0
 311 0008 0020     		movs	r0, #0
 312 000a FFF7FEFF 		bl	Pin_IN2_Write
 313              	.LVL43:
 134:motor.c       ****     PWM_Motor_WriteCompare(PWM_PERIOD);
 314              		.loc 1 134 0
 315 000e 4FF49E60 		mov	r0, #1264
 316 0012 FFF7FEFF 		bl	PWM_Motor_WriteCompare
 317              	.LVL44:
 318 0016 08BD     		pop	{r3, pc}
 319              		.cfi_endproc
 320              	.LFE69:
 321              		.size	Motor_Brake, .-Motor_Brake
 322              		.section	.text.Motor_Free,"ax",%progbits
ARM GAS  C:\Users\user\AppData\Local\Temp\ccDg6Blx.s 			page 9


 323              		.align	2
 324              		.global	Motor_Free
 325              		.thumb
 326              		.thumb_func
 327              		.type	Motor_Free, %function
 328              	Motor_Free:
 329              	.LFB70:
 135:motor.c       **** }
 136:motor.c       **** 
 137:motor.c       **** /* Motor libre (sin freno) */
 138:motor.c       **** void Motor_Free(void)
 139:motor.c       **** {
 330              		.loc 1 139 0
 331              		.cfi_startproc
 332              		@ args = 0, pretend = 0, frame = 0
 333              		@ frame_needed = 0, uses_anonymous_args = 0
 334 0000 08B5     		push	{r3, lr}
 335              		.cfi_def_cfa_offset 8
 336              		.cfi_offset 3, -8
 337              		.cfi_offset 14, -4
 140:motor.c       ****     Pin_IN1_Write(0);
 338              		.loc 1 140 0
 339 0002 0020     		movs	r0, #0
 340 0004 FFF7FEFF 		bl	Pin_IN1_Write
 341              	.LVL45:
 141:motor.c       ****     Pin_IN2_Write(0);
 342              		.loc 1 141 0
 343 0008 0020     		movs	r0, #0
 344 000a FFF7FEFF 		bl	Pin_IN2_Write
 345              	.LVL46:
 142:motor.c       ****     PWM_Motor_WriteCompare(0);
 346              		.loc 1 142 0
 347 000e 0020     		movs	r0, #0
 348 0010 FFF7FEFF 		bl	PWM_Motor_WriteCompare
 349              	.LVL47:
 350 0014 08BD     		pop	{r3, pc}
 351              		.cfi_endproc
 352              	.LFE70:
 353              		.size	Motor_Free, .-Motor_Free
 354 0016 00BF     		.section	.text.Motor_Stop,"ax",%progbits
 355              		.align	2
 356              		.global	Motor_Stop
 357              		.thumb
 358              		.thumb_func
 359              		.type	Motor_Stop, %function
 360              	Motor_Stop:
 361              	.LFB66:
  66:motor.c       ****     PID_Reset(&pi_motor);
 362              		.loc 1 66 0
 363              		.cfi_startproc
 364              		@ args = 0, pretend = 0, frame = 0
 365              		@ frame_needed = 0, uses_anonymous_args = 0
 366 0000 08B5     		push	{r3, lr}
 367              		.cfi_def_cfa_offset 8
 368              		.cfi_offset 3, -8
 369              		.cfi_offset 14, -4
  67:motor.c       ****     motor_u          = 0.0f;
ARM GAS  C:\Users\user\AppData\Local\Temp\ccDg6Blx.s 			page 10


 370              		.loc 1 67 0
 371 0002 0748     		ldr	r0, .L34
 372 0004 FFF7FEFF 		bl	PID_Reset
 373              	.LVL48:
  68:motor.c       ****     pi_motor_output  = 0;
 374              		.loc 1 68 0
 375 0008 064B     		ldr	r3, .L34+4
 376 000a 0022     		movs	r2, #0
 377 000c 5A60     		str	r2, [r3, #4]	@ float
  69:motor.c       ****     VDAC8_u_SetValue((uint8)((0.0f + 12.0f) * (255.0f / 24.0f)));
 378              		.loc 1 69 0
 379 000e 0022     		movs	r2, #0
 380 0010 1A81     		strh	r2, [r3, #8]	@ movhi
  70:motor.c       ****     Motor_Free();
 381              		.loc 1 70 0
 382 0012 7F20     		movs	r0, #127
 383 0014 FFF7FEFF 		bl	VDAC8_u_SetValue
 384              	.LVL49:
  71:motor.c       **** }
 385              		.loc 1 71 0
 386 0018 FFF7FEFF 		bl	Motor_Free
 387              	.LVL50:
 388 001c 08BD     		pop	{r3, pc}
 389              	.L35:
 390 001e 00BF     		.align	2
 391              	.L34:
 392 0020 00000000 		.word	.LANCHOR1
 393 0024 00000000 		.word	.LANCHOR0
 394              		.cfi_endproc
 395              	.LFE66:
 396              		.size	Motor_Stop, .-Motor_Stop
 397              		.global	__aeabi_fdiv
 398              		.global	__aeabi_fcmpgt
 399              		.global	__aeabi_fcmplt
 400              		.global	__aeabi_fcmpge
 401              		.global	__aeabi_f2uiz
 402              		.section	.text.Motor_Controller_Run,"ax",%progbits
 403              		.align	2
 404              		.global	Motor_Controller_Run
 405              		.thumb
 406              		.thumb_func
 407              		.type	Motor_Controller_Run, %function
 408              	Motor_Controller_Run:
 409              	.LFB67:
  75:motor.c       ****     int32 current_count = QuadDec_1_GetCounter();
 410              		.loc 1 75 0
 411              		.cfi_startproc
 412              		@ args = 0, pretend = 0, frame = 0
 413              		@ frame_needed = 0, uses_anonymous_args = 0
 414 0000 38B5     		push	{r3, r4, r5, lr}
 415              		.cfi_def_cfa_offset 16
 416              		.cfi_offset 3, -16
 417              		.cfi_offset 4, -12
 418              		.cfi_offset 5, -8
 419              		.cfi_offset 14, -4
  76:motor.c       ****     int32 delta_counts  = current_count - encoder_prev_count;
 420              		.loc 1 76 0
ARM GAS  C:\Users\user\AppData\Local\Temp\ccDg6Blx.s 			page 11


 421 0002 FFF7FEFF 		bl	QuadDec_1_GetCounter
 422              	.LVL51:
  77:motor.c       ****     encoder_prev_count  = current_count;
 423              		.loc 1 77 0
 424 0006 254C     		ldr	r4, .L49
 425 0008 E368     		ldr	r3, [r4, #12]
 426              	.LVL52:
  78:motor.c       **** 
 427              		.loc 1 78 0
 428 000a E060     		str	r0, [r4, #12]
  80:motor.c       ****                        ((float)ENCODER_CPR * SAMPLE_TIME_S);
 429              		.loc 1 80 0
 430 000c C01A     		subs	r0, r0, r3
 431              	.LVL53:
 432 000e FFF7FEFF 		bl	__aeabi_i2f
 433              	.LVL54:
 434 0012 2349     		ldr	r1, .L49+4
 435 0014 FFF7FEFF 		bl	__aeabi_fmul
 436              	.LVL55:
 437 0018 2249     		ldr	r1, .L49+8
 438 001a FFF7FEFF 		bl	__aeabi_fdiv
 439              	.LVL56:
 440 001e 2061     		str	r0, [r4, #16]	@ float
  82:motor.c       **** 
 441              		.loc 1 82 0
 442 0020 2069     		ldr	r0, [r4, #16]	@ float
 443 0022 2149     		ldr	r1, .L49+12
 444 0024 FFF7FEFF 		bl	__aeabi_fmul
 445              	.LVL57:
 446 0028 6061     		str	r0, [r4, #20]	@ float
  85:motor.c       ****     {
 447              		.loc 1 85 0
 448 002a A069     		ldr	r0, [r4, #24]	@ float
 449 002c 1F49     		ldr	r1, .L49+16
 450 002e FFF7FEFF 		bl	__aeabi_fcmpgt
 451              	.LVL58:
 452 0032 38B1     		cbz	r0, .L37
  85:motor.c       ****     {
 453              		.loc 1 85 0 is_stmt 0 discriminator 1
 454 0034 A069     		ldr	r0, [r4, #24]	@ float
 455 0036 1E49     		ldr	r1, .L49+20
 456 0038 FFF7FEFF 		bl	__aeabi_fcmplt
 457              	.LVL59:
 458 003c 10B1     		cbz	r0, .L37
  87:motor.c       ****         return;
 459              		.loc 1 87 0 is_stmt 1
 460 003e FFF7FEFF 		bl	Motor_Stop
 461              	.LVL60:
  88:motor.c       ****     }
 462              		.loc 1 88 0
 463 0042 38BD     		pop	{r3, r4, r5, pc}
 464              	.L37:
  91:motor.c       ****     motor_u = u;
 465              		.loc 1 91 0
 466 0044 154C     		ldr	r4, .L49
 467 0046 A169     		ldr	r1, [r4, #24]	@ float
 468 0048 6269     		ldr	r2, [r4, #20]	@ float
ARM GAS  C:\Users\user\AppData\Local\Temp\ccDg6Blx.s 			page 12


 469 004a 1A48     		ldr	r0, .L49+24
 470 004c FFF7FEFF 		bl	PID_Compute
 471              	.LVL61:
 472 0050 0546     		mov	r5, r0
 473              	.LVL62:
  92:motor.c       **** 
 474              		.loc 1 92 0
 475 0052 6060     		str	r0, [r4, #4]	@ float
  94:motor.c       ****         pi_motor_output =  (int16)PWM_Desde_Voltaje( u);
 476              		.loc 1 94 0
 477 0054 0021     		movs	r1, #0
 478 0056 FFF7FEFF 		bl	__aeabi_fcmpge
 479              	.LVL63:
 480 005a 20B1     		cbz	r0, .L47
  95:motor.c       ****     else
 481              		.loc 1 95 0
 482 005c 2846     		mov	r0, r5
 483 005e FFF7FEFF 		bl	PWM_Desde_Voltaje
 484              	.LVL64:
 485 0062 2081     		strh	r0, [r4, #8]	@ movhi
 486 0064 07E0     		b	.L43
 487              	.L47:
  97:motor.c       **** 
 488              		.loc 1 97 0
 489 0066 05F10040 		add	r0, r5, #-2147483648
 490 006a FFF7FEFF 		bl	PWM_Desde_Voltaje
 491              	.LVL65:
 492 006e 4042     		negs	r0, r0
 493 0070 00B2     		sxth	r0, r0
 494 0072 0A4B     		ldr	r3, .L49
 495 0074 1881     		strh	r0, [r3, #8]	@ movhi
 496              	.L43:
  99:motor.c       ****     VDAC8_u_SetValue((uint8)((u + 12.0f) * (255.0f / 24.0f)));
 497              		.loc 1 99 0
 498 0076 094B     		ldr	r3, .L49
 499 0078 1889     		ldrh	r0, [r3, #8]
 500 007a 00B2     		sxth	r0, r0
 501 007c FFF7FEFF 		bl	Motor_Control
 502              	.LVL66:
 100:motor.c       **** }
 503              		.loc 1 100 0
 504 0080 0D49     		ldr	r1, .L49+28
 505 0082 2846     		mov	r0, r5
 506 0084 FFF7FEFF 		bl	__aeabi_fadd
 507              	.LVL67:
 508 0088 0C49     		ldr	r1, .L49+32
 509 008a FFF7FEFF 		bl	__aeabi_fmul
 510              	.LVL68:
 511 008e FFF7FEFF 		bl	__aeabi_f2uiz
 512              	.LVL69:
 513 0092 C0B2     		uxtb	r0, r0
 514 0094 FFF7FEFF 		bl	VDAC8_u_SetValue
 515              	.LVL70:
 516 0098 38BD     		pop	{r3, r4, r5, pc}
 517              	.LVL71:
 518              	.L50:
 519 009a 00BF     		.align	2
ARM GAS  C:\Users\user\AppData\Local\Temp\ccDg6Blx.s 			page 13


 520              	.L49:
 521 009c 00000000 		.word	.LANCHOR0
 522 00a0 00007042 		.word	1114636288
 523 00a4 6666A640 		.word	1084647014
 524 00a8 5077D63D 		.word	1037465424
 525 00ac 0AD723BC 		.word	-1138501878
 526 00b0 0AD7233C 		.word	1008981770
 527 00b4 00000000 		.word	.LANCHOR1
 528 00b8 00004041 		.word	1094713344
 529 00bc 00002A41 		.word	1093271552
 530              		.cfi_endproc
 531              	.LFE67:
 532              		.size	Motor_Controller_Run, .-Motor_Controller_Run
 533              		.global	print_cnt
 534              		.global	flag_control
 535              		.global	motor_u
 536              		.global	pi_motor_output
 537              		.global	motor_speed_rads
 538              		.global	omega_setpoint
 539              		.data
 540              		.align	2
 541              		.set	.LANCHOR1,. + 0
 542              		.type	pi_motor, %object
 543              		.size	pi_motor, 28
 544              	pi_motor:
 545 0000 20D21F40 		.word	1075827232
 546 0004 1500633D 		.word	1029898261
 547 0008 00000000 		.word	0
 548 000c 00000000 		.word	0
 549 0010 00000000 		.word	0
 550 0014 00004041 		.word	1094713344
 551 0018 000040C1 		.word	-1052770304
 552              		.bss
 553              		.align	2
 554              		.set	.LANCHOR0,. + 0
 555              		.type	flag_control, %object
 556              		.size	flag_control, 1
 557              	flag_control:
 558 0000 00       		.space	1
 559 0001 00       		.space	1
 560              		.type	print_cnt, %object
 561              		.size	print_cnt, 2
 562              	print_cnt:
 563 0002 0000     		.space	2
 564              		.type	motor_u, %object
 565              		.size	motor_u, 4
 566              	motor_u:
 567 0004 00000000 		.space	4
 568              		.type	pi_motor_output, %object
 569              		.size	pi_motor_output, 2
 570              	pi_motor_output:
 571 0008 0000     		.space	2
 572 000a 0000     		.space	2
 573              		.type	encoder_prev_count, %object
 574              		.size	encoder_prev_count, 4
 575              	encoder_prev_count:
 576 000c 00000000 		.space	4
ARM GAS  C:\Users\user\AppData\Local\Temp\ccDg6Blx.s 			page 14


 577              		.type	motor_speed_rpm, %object
 578              		.size	motor_speed_rpm, 4
 579              	motor_speed_rpm:
 580 0010 00000000 		.space	4
 581              		.type	motor_speed_rads, %object
 582              		.size	motor_speed_rads, 4
 583              	motor_speed_rads:
 584 0014 00000000 		.space	4
 585              		.type	omega_setpoint, %object
 586              		.size	omega_setpoint, 4
 587              	omega_setpoint:
 588 0018 00000000 		.space	4
 589              		.text
 590              	.Letext0:
 591              		.file 2 "d:\\psoc\\psoc creator\\4.4\\psoc creator\\import\\gnu\\arm\\5.4.1\\arm-none-eabi\\includ
 592              		.file 3 "d:\\psoc\\psoc creator\\4.4\\psoc creator\\import\\gnu\\arm\\5.4.1\\arm-none-eabi\\includ
 593              		.file 4 "Generated_Source\\PSoC5/cytypes.h"
 594              		.file 5 "pid.h"
 595              		.file 6 "Generated_Source\\PSoC5/core_cm3.h"
 596              		.file 7 "Generated_Source\\PSoC5/Timer_1.h"
 597              		.file 8 "Generated_Source\\PSoC5/Pin_IN1.h"
 598              		.file 9 "Generated_Source\\PSoC5/Pin_IN2.h"
 599              		.file 10 "Generated_Source\\PSoC5/PWM_Motor.h"
 600              		.file 11 "Generated_Source\\PSoC5/VDAC8_u.h"
 601              		.file 12 "Generated_Source\\PSoC5/QuadDec_1.h"